******************************************************************************
                  TI ARM Linker PC v5.1.6                      
******************************************************************************
>> Linked Tue Aug 22 17:46:47 2023

OUTPUT FILE NAME:   <build/app.out>
ENTRY POINT SYMBOL: "_c_int00"  address: 000bafc0


MEMORY CONFIGURATION

         name            origin    length      used     unused   attr    fill
----------------------  --------  ---------  --------  --------  ----  --------
  apdb_sec              000a0000   00000080  00000080  00000000  R     ffffffff 
  crc_sec               000a0080   00000080  00000080  00000000  R     ffffffff 
  flash                 000a0100   0025ff00  0002c3a0  00233b60  R  X
  stacks                08000020   00002fe0  00000000  00002fe0  RW  
  ram                   08003000   00035000  00000008  00034ff8  RW  
  io_driver_data_normal 08038000   00007ae0  00005c5c  00001e84  RW  
  io_driver_data_common 0803fae0   00000400  00000100  00000300  RW  
  shared_mem            0803fee0   00000120  00000120  00000000  RW  
  ext_ram               60000000   00200000  00000000  00200000  RW  
  ext_flash             64000000   007ffff8  00000000  007ffff8  R   
  cfg_flash             f0200000   00010000  00000000  00010000  R   


SEGMENT ALLOCATION MAP

run origin  load origin   length   init length attrs members
----------  ----------- ---------- ----------- ----- -------
000a0000    000a0000    0000fe38   0000fe38    r-x
  000a0000    000a0000    00000080   00000080    r-- .app_apdb
  000a0080    000a0080    00000080   00000080    r-- $fill000
  000a0100    000a0100    0000f430   0000f430    r-x .csm_code
  000af530    000af530    00000908   00000908    r-- .csm_const
000afe40    000afe40    0001b338   0001b338    r-x
  000afe40    000afe40    00018b10   00018b10    r-x .io_driver_code
  000c8950    000c8950    00002828   00002828    r-- .io_driver_const
000cb180    000cb180    00001328   00001328    r-x
  000cb180    000cb180    000005f0   000005f0    r-x .text
  000cb770    000cb770    00000220   00000220    r-- .const
  000cb990    000cb990    00000b18   00000b18    r-- .cinit
08003000    08003000    00000008   00000000    rw-
  08003000    08003000    00000008   00000000    rw- .sysmem
08038000    08038000    00005c5c   00000000    rw-
  08038000    08038000    00000390   00000000    rw- .CSM_VAR
  08038390    08038390    000058cc   00000000    rw- .IO_DRIVER_VAR_NORMAL
0803fae0    0803fae0    00000100   00000000    rw-
  0803fae0    0803fae0    00000100   00000000    rw- .IO_DRIVER_VAR_COMMON
0803fee0    0803fee0    00000120   00000000    rw-
  0803fee0    0803fee0    00000120   00000000    rw- .TI.bound:Csm_Mcu_SharedMem


SECTION ALLOCATION MAP

 output                                  attributes/
section   page    origin      length       input sections
--------  ----  ----------  ----------   ----------------
.app_apdb 
*          0    000a0000    00000080     
                  000a0000    00000080     main.obj (.APDB_SEC)

$fill000   0    000a0080    00000080     
                  000a0080    00000080     --HOLE-- [fill = ffffffff]

.csm_code 
*          0    000a0100    0000f430     
                  000a0100    00000018     ttc500.lib : drv_asm_Csm_Mcu_Core.obj (.CSM_CODE:Csm_Mcu_EnableFpu)
                  000a0118    00000094                : drv_asm_Csm_Mcu_Core.obj (.CSM_CODE:Csm_Mcu_InitStackPointers)
                  000a01ac    00000020                : drv_asm_Csm_Mcu_Core.obj (.CSM_CODE:Csm_Mcu_CalculateSharedMemorySize)
                  000a01cc    000000d4                : drv_asm_Csm_Mcu_Core.obj (.CSM_CODE:Csm_Mcu_CheckSharedMemory)
                  000a02a0    00000010                : drv_asm_Csm_Mcu_Core.obj (.CSM_CODE:Csm_Mcu_EnableEventBusExport)
                  000a02b0    00000010                : drv_asm_Csm_Mcu_Core.obj (.CSM_CODE:Csm_Mcu_DisableEventBusExport)
                  000a02c0    00000014                : drv_asm_Csm_Mcu_Core.obj (.CSM_CODE:Csm_Mcu_EnableEccFlash)
                  000a02d4    00000014                : drv_asm_Csm_Mcu_Core.obj (.CSM_CODE:Csm_Mcu_DisableEccFlash)
                  000a02e8    00000008     --HOLE-- [fill = 00000000]
                  000a02f0    00000084                : drv_Csm_Mcu_Boot.obj (.CSM_CODE:Csm_Mcu_SetupFlash)
                  000a0374    0000000c     --HOLE-- [fill = 00000000]
                  000a0380    00000054                : drv_Csm_Mcu_Boot.obj (.CSM_CODE:Csm_Mcu_SetupPLL)
                  000a03d4    0000000c     --HOLE-- [fill = 00000000]
                  000a03e0    00000038                : drv_Csm_Mcu_Boot.obj (.CSM_CODE:Csm_Mcu_PeriphInit1)
                  000a0418    00000008     --HOLE-- [fill = 00000000]
                  000a0420    00000044                : drv_Csm_Mcu_Boot.obj (.CSM_CODE:Csm_Mcu_PeriphInit2)
                  000a0464    0000000c     --HOLE-- [fill = 00000000]
                  000a0470    00000040                : drv_Csm_Mcu_Boot.obj (.CSM_CODE:Csm_Mcu_PeriphInit3)
                  000a04b0    00000054                : drv_Csm_Mcu_Boot.obj (.CSM_CODE:Csm_Mcu_TrimLPO)
                  000a0504    00000018                : drv_asm_Csm_Mcu_Core.obj (.CSM_CODE:Csm_Mcu_CountClocks_Asm)
                  000a051c    00000004     --HOLE-- [fill = 00000000]
                  000a0520    00000018                : drv_Csm_Mcu_Boot.obj (.CSM_CODE:Csm_Mcu_Below20Mhz)
                  000a0538    00000008     --HOLE-- [fill = 00000000]
                  000a0540    00000018                : drv_Csm_Mcu_Boot.obj (.CSM_CODE:Csm_Mcu_Above20Mhz)
                  000a0558    00000008     --HOLE-- [fill = 00000000]
                  000a0560    00000014                : drv_Csm_Mcu_Boot.obj (.CSM_CODE:Csm_Mcu_WaitClocksLocked)
                  000a0574    0000000c     --HOLE-- [fill = 00000000]
                  000a0580    0000002c                : drv_Csm_Mcu_Boot.obj (.CSM_CODE:Csm_Mcu_SystemInitFinalStep)
                  000a05ac    00000004     --HOLE-- [fill = 00000000]
                  000a05b0    0000001c                : drv_Csm_Mcu_Boot.obj (.CSM_CODE:Csm_Mcu_SystemInitFinalStep2)
                  000a05cc    00000058                : drv_asm_Csm_Mcu_Core.obj (.CSM_CODE:Csm_Mcu_SystemInit)
                  000a0624    0000026c                : drv_asm_Csm_Mcu_Core.obj (.CSM_CODE:Csm_Mcu_PBIST_Asm)
                  000a0890    0000002c                : drv_asm_Csm_Mcu_Core.obj (.CSM_CODE:Csm_Mcu_TestPBIST_Asm)
                  000a08bc    00000004     --HOLE-- [fill = 00000000]
                  000a08c0    00000008                : drv_Csm_Mcu_Boot.obj (.CSM_CODE:Csm_Mcu_TestRamSection_Boot)
                  000a08c8    00000024                : drv_asm_Csm_Mcu_Core.obj (.CSM_CODE:Csm_Mcu_InitSharedMemorySize)
                  000a08ec    00000024                : drv_asm_Csm_Mcu_Core.obj (.CSM_CODE:Csm_Mcu_CopyMemory)
                  000a0910    000000b0                : drv_asm_Csm_Mcu_Core.obj (.CSM_CODE:Csm_Mcu_TestRam_TwoSteps)
                  000a09c0    00000014                : drv_asm_Csm_Mcu_Core.obj (.CSM_CODE:Csm_Mcu_EnableEccRam)
                  000a09d4    00000014                : drv_asm_Csm_Mcu_Core.obj (.CSM_CODE:Csm_Mcu_DisableEccRam)
                  000a09e8    00000014                : drv_asm_Csm_Mcu_Core.obj (.CSM_CODE:Csm_Mcu_Errata_CORTEXR4_66)
                  000a09fc    00000058                : drv_asm_Csm_Mcu_Core.obj (.CSM_CODE:Csm_Mcu_InitRamSectionSW_Asm)
                  000a0a54    0000008c                : drv_asm_Csm_Mcu_Core.obj (.CSM_CODE:Csm_Mcu_InitRamSaveSharedMemory)
                  000a0ae0    00000080                : drv_asm_Csm_Mcu_Core.obj (.CSM_CODE:Csm_Mcu_InitRamSection_Asm)
                  000a0b60    00000044                : drv_Csm_Mcu_Boot.obj (.CSM_CODE:Csm_Mcu_EnableIOMMerrorSignaling)
                  000a0ba4    0000000c     --HOLE-- [fill = 00000000]
                  000a0bb0    0000007c                : drv_Csm_Mcu_Boot.obj (.CSM_CODE:Csm_Mcu_WriteIOMultiplexerConfig)
                  000a0c2c    00000004     --HOLE-- [fill = 00000000]
                  000a0c30    00000034                : drv_Csm_Mcu_Boot.obj (.CSM_CODE:Csm_Mcu_ReadResetReason)
                  000a0c64    0000000c     --HOLE-- [fill = 00000000]
                  000a0c70    00000014                : drv_Csm_Mcu_Boot.obj (.CSM_CODE:Csm_Mcu_StartCosmoSharedMemory)
                  000a0c84    0000000c     --HOLE-- [fill = 00000000]
                  000a0c90    00000160                : drv_Csm_Mcu_Boot.obj (.CSM_CODE:Csm_Mcu_Init)
                  000a0df0    000003cc                : drv_asm_Csm_Mcu_Core.obj (.CSM_CODE:Csm_Mcu_InitCore)
                  000a11bc    00000004     --HOLE-- [fill = 00000000]
                  000a11c0    0000006c                : drv_Csm_Dio.obj (.CSM_CODE:Csm_Dio_WriteChannel)
                  000a122c    00000004     --HOLE-- [fill = 00000000]
                  000a1230    0000013c                : drv_Csm_Nhet.obj (.CSM_CODE:Csm_Access_NHETram)
                  000a136c    00000004     --HOLE-- [fill = 00000000]
                  000a1370    00000064                : drv_Csm_Spi.obj (.CSM_CODE:.CSM_CODE_TRIGGERWATCHDOG:Csm_Spi_GroupTransferIsComplete)
                  000a13d4    0000000c     --HOLE-- [fill = 00000000]
                  000a13e0    00000078                : drv_Csm_Spi.obj (.CSM_CODE:Csm_Spi_CommonParameterCheck)
                  000a1458    00000008     --HOLE-- [fill = 00000000]
                  000a1460    000001a4                : drv_Csm_Spi.obj (.CSM_CODE:Csm_Spi_SetTxRamEx_u8)
                  000a1604    0000000c     --HOLE-- [fill = 00000000]
                  000a1610    000001a4                : drv_Csm_Spi.obj (.CSM_CODE:Csm_Spi_SetTxRamEx_u16)
                  000a17b4    0000000c     --HOLE-- [fill = 00000000]
                  000a17c0    00000024                : drv_Csm_Spi.obj (.CSM_CODE:Csm_Spi_SelectUnit)
                  000a17e4    0000000c     --HOLE-- [fill = 00000000]
                  000a17f0    0000006c                : drv_Csm_Spi.obj (.CSM_CODE:.CSM_CODE_TRIGGERWATCHDOG:Csm_Spi_StartGroupTransfer)
                  000a185c    00000010                : drv_asm_Csm_Mcu_Core.obj (.CSM_CODE:Csm_Mcu_Vim_Enable_HW_Vec_Mode_Asm)
                  000a186c    00000004     --HOLE-- [fill = 00000000]
                  000a1870    00000004                : drv_Csm_Vim.obj (.CSM_CODE:Csm_Mcu_Vim_Enable_HW_Vec_Mode)
                  000a1874    00000010                : drv_asm_Csm_Mcu_Core.obj (.CSM_CODE:Csm_Mcu_Vim_Disable_HW_Vec_Mode_Asm)
                  000a1884    0000000c     --HOLE-- [fill = 00000000]
                  000a1890    00000004                : drv_Csm_Vim.obj (.CSM_CODE:Csm_Mcu_Vim_Disable_HW_Vec_Mode)
                  000a1894    0000000c     --HOLE-- [fill = 00000000]
                  000a18a0    000001b0                : drv_Csm_Vim.obj (.CSM_CODE:Csm_Vim_Init)
                  000a1a50    000000b8                : drv_Csm_Esm.obj (.CSM_CODE:Csm_Esm_ErrorFlags)
                  000a1b08    00000008     --HOLE-- [fill = 00000000]
                  000a1b10    00000014                : drv_Csm_Mcu.obj (.CSM_CODE:Csm_Mcu_ClearFlashErrorCount)
                  000a1b24    0000000c     --HOLE-- [fill = 00000000]
                  000a1b30    0000003c                : drv_Csm_Mcu.obj (.CSM_CODE:Csm_Mcu_GetFlashErrorAddress)
                  000a1b6c    00000004     --HOLE-- [fill = 00000000]
                  000a1b70    00000034                : drv_Csm_Mcu.obj (.CSM_CODE:Csm_Mcu_ClearRamErrorCount)
                  000a1ba4    0000000c     --HOLE-- [fill = 00000000]
                  000a1bb0    0000005c                : drv_Csm_Mcu.obj (.CSM_CODE:Csm_Mcu_GetRamErrorAddress)
                  000a1c0c    00000004     --HOLE-- [fill = 00000000]
                  000a1c10    00000014                : drv_Csm_Mcu.obj (.CSM_CODE:Csm_Mcu_ClearEepromErrorCount)
                  000a1c24    0000000c     --HOLE-- [fill = 00000000]
                  000a1c30    0000003c                : drv_Csm_Mcu.obj (.CSM_CODE:Csm_Mcu_GetEepromErrorAddress)
                  000a1c6c    00000004     --HOLE-- [fill = 00000000]
                  000a1c70    00000014                : drv_Csm_Esm.obj (.CSM_CODE:Csm_Esm_GetErrorPin)
                  000a1c84    0000000c     --HOLE-- [fill = 00000000]
                  000a1c90    00000014                : drv_Csm_Esm.obj (.CSM_CODE:Csm_Esm_GetErrorKey)
                  000a1ca4    0000000c     --HOLE-- [fill = 00000000]
                  000a1cb0    00000048                : drv_Csm_Esm.obj (.CSM_CODE:Csm_Esm_TestParamToDefault)
                  000a1cf8    00000008     --HOLE-- [fill = 00000000]
                  000a1d00    00000038                : drv_Csm_Esm.obj (.CSM_CODE:Csm_Esm_RequestClearErrorPin)
                  000a1d38    00000008     --HOLE-- [fill = 00000000]
                  000a1d40    00000100                : drv_Csm_Esm.obj (.CSM_CODE:Csm_Esm_Init)
                  000a1e40    00000034                : drv_Csm_Vim.obj (.CSM_CODE:Csm_Vim_EnableInterrupt)
                  000a1e74    0000000c     --HOLE-- [fill = 00000000]
                  000a1e80    00000014                : drv_Csm_Mcu.obj (.CSM_CODE:Csm_Mcu_EnterCriticalSection)
                  000a1e94    0000000c     --HOLE-- [fill = 00000000]
                  000a1ea0    00000094                : drv_Csm_Esm.obj (.CSM_CODE:Csm_Esm_IntEnable)
                  000a1f34    0000000c     --HOLE-- [fill = 00000000]
                  000a1f40    00000094                : drv_Csm_Esm.obj (.CSM_CODE:Csm_Esm_IntPriority)
                  000a1fd4    0000000c     --HOLE-- [fill = 00000000]
                  000a1fe0    00000160                : drv_Csm_Esm.obj (.CSM_CODE:Csm_Esm_CheckStartParameters)
                  000a2140    00000014                : drv_Csm_Mcu.obj (.CSM_CODE:Csm_Mcu_LeaveCriticalSection)
                  000a2154    0000000c     --HOLE-- [fill = 00000000]
                  000a2160    000000c0                : drv_Csm_Esm.obj (.CSM_CODE:Csm_Esm_StartTest)
                  000a2220    00000084                : drv_Csm_Esm.obj (.CSM_CODE:Csm_Esm_ClearErrorFlags)
                  000a22a4    0000000c     --HOLE-- [fill = 00000000]
                  000a22b0    000000cc                : drv_Csm_Esm.obj (.CSM_CODE:Csm_Esm_GetTestResultsSupport)
                  000a237c    00000004     --HOLE-- [fill = 00000000]
                  000a2380    00000080                : drv_Csm_Esm.obj (.CSM_CODE:Csm_Esm_GetTestResults)
                  000a2400    00000050                : drv_Csm_Esm.obj (.CSM_CODE:Csm_Esm_StopTest)
                  000a2450    000000e0                : drv_Csm_Vim.obj (.CSM_CODE:Csm_Vim_TestRamParity)
                  000a2530    00000004                : drv_Csm_Mcu.obj (.CSM_CODE:Csm_Mcu_GetCosmoSharedMemory)
                  000a2534    0000000c     --HOLE-- [fill = 00000000]
                  000a2540    00000144                : drv_Csm_Mcu.obj (.CSM_CODE:Csm_Mcu_TestL2L3interconnect)
                  000a2684    0000000c     --HOLE-- [fill = 00000000]
                  000a2690    00000120                : drv_Csm_Mcu.obj (.CSM_CODE:Csm_Mcu_GetResetReason)
                  000a27b0    000000ac                : drv_Csm_Mcu.obj (.CSM_CODE:Csm_Mcu_TesteFuseStuckZero)
                  000a285c    00000004     --HOLE-- [fill = 00000000]
                  000a2860    000000d0                : drv_Csm_Mcu.obj (.CSM_CODE:Csm_Mcu_eFuseSelfTest)
                  000a2930    00000088                : drv_Csm_Mcu.obj (.CSM_CODE:Csm_Mcu_TesteFuseECC)
                  000a29b8    00000008     --HOLE-- [fill = 00000000]
                  000a29c0    00000120                : drv_Csm_Mcu.obj (.CSM_CODE:Csm_Mcu_TestFlashWrapperAddressECC)
                  000a2ae0    00000020                : drv_asm_Csm_Mcu_Core.obj (.CSM_CODE:Csm_Mcu_CheckStackPointerSave)
                  000a2b00    00001134                : drv_asm_Csm_Mcu_Core.obj (.CSM_CODE:Csm_Mcu_StackPointerSave)
                  000a3c34    0000000c     --HOLE-- [fill = 00000000]
                  000a3c40    00000128                : drv_Csm_Mcu_Selftest.obj (.CSM_CODE:Csm_Mcu_TestSTC)
                  000a3d68    00000008     --HOLE-- [fill = 00000000]
                  000a3d70    00000130                : drv_Csm_Mcu_Selftest.obj (.CSM_CODE:Csm_Mcu_CpuSelfTest)
                  000a3ea0    00000078                : drv_Csm_Mcu.obj (.CSM_CODE:Csm_Mcu_PSCONSelfTestDo)
                  000a3f18    00000008     --HOLE-- [fill = 00000000]
                  000a3f20    00000130                : drv_Csm_Mcu.obj (.CSM_CODE:Csm_Mcu_PSCONSelfTest)
                  000a4050    00000008                : drv_Csm_Mcu.obj (.CSM_CODE:Csm_Mcu_Get_CPSR)
                  000a4058    00000008     --HOLE-- [fill = 00000000]
                  000a4060    0000001c                : drv_Csm_Mcu.obj (.CSM_CODE:Csm_Mcu_GlobalInterruptEnable)
                  000a407c    00000004     --HOLE-- [fill = 00000000]
                  000a4080    00000090                : drv_Csm_Mcu.obj (.CSM_CODE:Csm_Mcu_CCMSelfTestDo)
                  000a4110    000000ec                : drv_Csm_Mcu.obj (.CSM_CODE:Csm_Mcu_CCMSelfTest)
                  000a41fc    00000004     --HOLE-- [fill = 00000000]
                  000a4200    00000088                : drv_Csm_Mcu.obj (.CSM_CODE:Csm_Mcu_ConditionalWait)
                  000a4288    00000008     --HOLE-- [fill = 00000000]
                  000a4290    00000110                : drv_Csm_Mcu.obj (.CSM_CODE:Csm_Mcu_TestClockMonitor)
                  000a43a0    00000088                : drv_Csm2_Mcu.obj (.CSM_CODE:Csm2_Mcu_ConditionalWait)
                  000a4428    00000008     --HOLE-- [fill = 00000000]
                  000a4430    00000170                : drv_Csm2_Mcu.obj (.CSM_CODE:Csm2_Mcu_TestPll1Slip)
                  000a45a0    00000148                : drv_Csm2_Mcu.obj (.CSM_CODE:Csm2_Mcu_TestPll2Slip)
                  000a46e8    00000008     --HOLE-- [fill = 00000000]
                  000a46f0    000000ec                : drv_Csm_Mcu.obj (.CSM_CODE:Csm_Mcu_TestRamECCDo)
                  000a47dc    00000004     --HOLE-- [fill = 00000000]
                  000a47e0    000001a0                : drv_Csm_Mcu.obj (.CSM_CODE:Csm_Mcu_TestRamECC)
                  000a4980    00000114                : drv_Csm_Mcu.obj (.CSM_CODE:Csm_Mcu_TestRamAddressBusParity)
                  000a4a94    0000000c     --HOLE-- [fill = 00000000]
                  000a4aa0    00000124                : drv_Csm_Mcu.obj (.CSM_CODE:Csm_Mcu_InequalityTest)
                  000a4bc4    0000000c     --HOLE-- [fill = 00000000]
                  000a4bd0    00000098                : drv_Csm_Mcu.obj (.CSM_CODE:Csm_Mcu_EqualityTest)
                  000a4c68    00000008     --HOLE-- [fill = 00000000]
                  000a4c70    00000050                : drv_Csm_Mcu.obj (.CSM_CODE:Csm_Mcu_TestRamAddressDecode)
                  000a4cc0    000001c8                : drv_Csm_Mcu.obj (.CSM_CODE:Csm_Mcu_TestFlashDataECC)
                  000a4e88    00000008     --HOLE-- [fill = 00000000]
                  000a4e90    0000011c                : drv_Csm_Mcu.obj (.CSM_CODE:Csm_Mcu_TestFlashAddressBus1Parity)
                  000a4fac    00000004     --HOLE-- [fill = 00000000]
                  000a4fb0    000000c8                : drv_Csm_Mcu.obj (.CSM_CODE:Csm_Mcu_TestEepromECC)
                  000a5078    00000008     --HOLE-- [fill = 00000000]
                  000a5080    00000154                : drv_Csm_Dcc.obj (.CSM_CODE:Csm_Dcc_SelfTest)
                  000a51d4    0000000c     --HOLE-- [fill = 00000000]
                  000a51e0    0000002c                : drv_Csm_Mcu.obj (.CSM_CODE:Csm_Mcu_TestIommLock)
                  000a520c    00000004     --HOLE-- [fill = 00000000]
                  000a5210    00000040                : drv_Csm_Mcu.obj (.CSM_CODE:Csm_Mcu_IommClearErrorAndFaultStatus)
                  000a5250    000000d4                : drv_Csm_Mcu.obj (.CSM_CODE:Csm_Mcu_TestIommAddrProtError)
                  000a5324    0000000c     --HOLE-- [fill = 00000000]
                  000a5330    00000054                : drv_Csm_Spi.obj (.CSM_CODE:Csm_Spi_CalculateFun)
                  000a5384    0000000c     --HOLE-- [fill = 00000000]
                  000a5390    00000054                : drv_Csm_Spi.obj (.CSM_CODE:Csm_Spi_Update_Format)
                  000a53e4    0000000c     --HOLE-- [fill = 00000000]
                  000a53f0    00000218                : drv_Csm_Spi.obj (.CSM_CODE:Csm_Spi_Init)
                  000a5608    00000008     --HOLE-- [fill = 00000000]
                  000a5610    00000124                : drv_Csm_Spi.obj (.CSM_CODE:Csm_Spi_TestMibSpiRamParityDo)
                  000a5734    0000000c     --HOLE-- [fill = 00000000]
                  000a5740    00000028                : drv_Csm_Spi.obj (.CSM_CODE:Csm_Spi_TestMibSpiRamParity)
                  000a5768    00000008     --HOLE-- [fill = 00000000]
                  000a5770    00000060                : drv_Csm_Dio.obj (.CSM_CODE:Csm_Dio_CheckGroupsCfg)
                  000a57d0    00000060                : drv_Csm_Dio.obj (.CSM_CODE:Csm_Dio_CheckChannelsCfg)
                  000a5830    0000002c                : drv_Csm_Dio.obj (.CSM_CODE:Csm_Dio_CheckCfgParameters)
                  000a585c    00000004     --HOLE-- [fill = 00000000]
                  000a5860    0000005c                : drv_Csm_Dio.obj (.CSM_CODE:Csm_Dio_InitChannelSuppA)
                  000a58bc    00000004     --HOLE-- [fill = 00000000]
                  000a58c0    00000160                : drv_Csm_Dio.obj (.CSM_CODE:Csm_Dio_InitChannelSuppB)
                  000a5a20    00000064                : drv_Csm_Dio.obj (.CSM_CODE:Csm_Dio_InitChannel)
                  000a5a84    0000000c     --HOLE-- [fill = 00000000]
                  000a5a90    000001d0                : drv_Csm_Dio.obj (.CSM_CODE:Csm_Dio_Init)
                  000a5c60    0000009c                : drv_Csm_Dma.obj (.CSM_CODE:Csm_Dma_ConfigInterrupts)
                  000a5cfc    00000004     --HOLE-- [fill = 00000000]
                  000a5d00    00000138                : drv_Csm_Dma.obj (.CSM_CODE:Csm_Dma_configControlPacket)
                  000a5e38    00000008     --HOLE-- [fill = 00000000]
                  000a5e40    000000f8                : drv_Csm_Dma.obj (.CSM_CODE:Csm_Dma_configMPU)
                  000a5f38    00000008     --HOLE-- [fill = 00000000]
                  000a5f40    0000008c                : drv_Csm_Dma.obj (.CSM_CODE:Csm_Dma_Configure)
                  000a5fcc    00000004     --HOLE-- [fill = 00000000]
                  000a5fd0    0000008c                : drv_Csm_Dma.obj (.CSM_CODE:Csm_Dma_Init)
                  000a605c    00000004     --HOLE-- [fill = 00000000]
                  000a6060    00000060                : drv_Csm_Dma.obj (.CSM_CODE:Csm_Dma_TestMPU_initControlPacket0)
                  000a60c0    00000078                : drv_Csm_Dma.obj (.CSM_CODE:Csm_Dma_TestMPU_initMPconfig)
                  000a6138    00000008     --HOLE-- [fill = 00000000]
                  000a6140    00000064                : drv_Csm_Dma.obj (.CSM_CODE:Csm_Dma_changeConfigControlPacketMPU)
                  000a61a4    0000000c     --HOLE-- [fill = 00000000]
                  000a61b0    00000110                : drv_Csm_Dma.obj (.CSM_CODE:Csm_Dma_ClearIrqFlag)
                  000a62c0    00000078                : drv_Csm_Dma.obj (.CSM_CODE:Csm_Dma_ClearMpcFaultBit)
                  000a6338    00000008     --HOLE-- [fill = 00000000]
                  000a6340    00000034                : drv_Csm_Dma.obj (.CSM_CODE:Csm_Dma_clearAllMpcFaultBits)
                  000a6374    0000000c     --HOLE-- [fill = 00000000]
                  000a6380    00000028                : drv_Csm_Dma.obj (.CSM_CODE:Csm_Dma_TriggerDMA)
                  000a63a8    00000008     --HOLE-- [fill = 00000000]
                  000a63b0    00000114                : drv_Csm_Dma.obj (.CSM_CODE:Csm_Dma_GetIrqFlag)
                  000a64c4    0000000c     --HOLE-- [fill = 00000000]
                  000a64d0    00000010                : drv_Csm_Dma.obj (.CSM_CODE:Csm_Dma_GetMpcFaultBits)
                  000a64e0    0000003c                : drv_Csm_Dma.obj (.CSM_CODE:Csm_Dma_GoodMpuTest_CheckResults)
                  000a651c    00000004     --HOLE-- [fill = 00000000]
                  000a6520    0000009c                : drv_Csm_Dma.obj (.CSM_CODE:Csm_Dma_GoodMpuTest_TestRoutine)
                  000a65bc    00000004     --HOLE-- [fill = 00000000]
                  000a65c0    00000024                : drv_Csm_Dma.obj (.CSM_CODE:Csm_Dma_goodMpuTest)
                  000a65e4    0000000c     --HOLE-- [fill = 00000000]
                  000a65f0    00000088                : drv_Csm_Dma.obj (.CSM_CODE:Csm_Dma_CheckForAccessViolation)
                  000a6678    00000008     --HOLE-- [fill = 00000000]
                  000a6680    00000034                : drv_Csm_Dma.obj (.CSM_CODE:Csm_Dma_BadMpuTest_CheckResults)
                  000a66b4    0000000c     --HOLE-- [fill = 00000000]
                  000a66c0    000000d0                : drv_Csm_Dma.obj (.CSM_CODE:Csm_Dma_BadMpuTest_TestRoutine)
                  000a6790    00000028                : drv_Csm_Dma.obj (.CSM_CODE:Csm_Dma_badMpuTest)
                  000a67b8    00000008     --HOLE-- [fill = 00000000]
                  000a67c0    00000034                : drv_Csm_Dma.obj (.CSM_CODE:Csm_Dma_MPUtest6)
                  000a67f4    0000000c     --HOLE-- [fill = 00000000]
                  000a6800    00000048                : drv_Csm_Dma.obj (.CSM_CODE:Csm_Dma_MPUtest5)
                  000a6848    00000008     --HOLE-- [fill = 00000000]
                  000a6850    00000050                : drv_Csm_Dma.obj (.CSM_CODE:Csm_Dma_MPUtest4)
                  000a68a0    0000004c                : drv_Csm_Dma.obj (.CSM_CODE:Csm_Dma_MPUtest3)
                  000a68ec    00000004     --HOLE-- [fill = 00000000]
                  000a68f0    00000048                : drv_Csm_Dma.obj (.CSM_CODE:Csm_Dma_MPUtest2)
                  000a6938    00000008     --HOLE-- [fill = 00000000]
                  000a6940    00000028                : drv_Csm_Dma.obj (.CSM_CODE:Csm_Dma_MPUtest1)
                  000a6968    00000008     --HOLE-- [fill = 00000000]
                  000a6970    00000048                : drv_Csm_Dma.obj (.CSM_CODE:Csm_Dma_MPUstartTestChain)
                  000a69b8    00000008     --HOLE-- [fill = 00000000]
                  000a69c0    000000ac                : drv_Csm_Dma.obj (.CSM_CODE:Csm_Dma_ClearAllInterrupts)
                  000a6a6c    00000004     --HOLE-- [fill = 00000000]
                  000a6a70    0000003c                : drv_Csm_Dma.obj (.CSM_CODE:Csm_Dma_restoreBeforeTestMPU)
                  000a6aac    00000004     --HOLE-- [fill = 00000000]
                  000a6ab0    0000007c                : drv_Csm_Dma.obj (.CSM_CODE:Csm_Dma_TestMPU)
                  000a6b2c    00000004     --HOLE-- [fill = 00000000]
                  000a6b30    000000c4                : drv_Csm_Dma.obj (.CSM_CODE:Csm_Dma_TestRamParity)
                  000a6bf4    0000000c     --HOLE-- [fill = 00000000]
                  000a6c00    00000030                : drv_Csm_Dma.obj (.CSM_CODE:Csm_Dma_SetupTransfer)
                  000a6c30    00000174                : drv_Csm_Dma.obj (.CSM_CODE:Csm_Dma_BasicFuncTest_Intern)
                  000a6da4    0000000c     --HOLE-- [fill = 00000000]
                  000a6db0    00000110                : drv_Csm_Dma.obj (.CSM_CODE:Csm_Dma_BasicFunctionalityTest)
                  000a6ec0    000000f8                : drv_Csm_Dma.obj (.CSM_CODE:Csm_Dma_TestImpreciseRead)
                  000a6fb8    00000008     --HOLE-- [fill = 00000000]
                  000a6fc0    00000040                : drv_Csm_Can.obj (.CSM_CODE:selectChannel)
                  000a7000    0000006c                : drv_Csm_Can.obj (.CSM_CODE:Csm_Can_EnterInitMode)
                  000a706c    00000004     --HOLE-- [fill = 00000000]
                  000a7070    0000008c                : drv_Csm_Dcc.obj (.CSM_CODE:Csm_Dcc_CheckClockSource)
                  000a70fc    00000004     --HOLE-- [fill = 00000000]
                  000a7100    0000011c                : drv_Csm_Dcc.obj (.CSM_CODE:Csm_Dcc_Init)
                  000a721c    00000004     --HOLE-- [fill = 00000000]
                  000a7220    00000078                : drv_Csm_Dio.obj (.CSM_CODE:Csm_Dio_ReadChannel)
                  000a7298    00000008     --HOLE-- [fill = 00000000]
                  000a72a0    00000028                : drv_Csm_Dma.obj (.CSM_CODE:Csm_Dma_EnableHardwareTrigger)
                  000a72c8    00000008     --HOLE-- [fill = 00000000]
                  000a72d0    00000054                : drv_Csm_Nhet.obj (.CSM_CODE:Csm_Nhet_Init_TestRam)
                  000a7324    0000000c     --HOLE-- [fill = 00000000]
                  000a7330    00000018                : drv_Csm_Nhet.obj (.CSM_CODE:Csm_Nhet_GetConfigVal_regPFR)
                  000a7348    00000008     --HOLE-- [fill = 00000000]
                  000a7350    00000014                : drv_Csm_Nhet.obj (.CSM_CODE:Csm_Nhet_GetConfigVal_regHETSFPRLD)
                  000a7364    0000000c     --HOLE-- [fill = 00000000]
                  000a7370    000001f0                : drv_Csm_Nhet.obj (.CSM_CODE:Csm_Nhet_Init)
                  000a7560    00000134                : drv_Csm_Nhet.obj (.CSM_CODE:Csm_Nhet_TestRamParityNHET)
                  000a7694    0000000c     --HOLE-- [fill = 00000000]
                  000a76a0    00000108                : drv_Csm_Nhet.obj (.CSM_CODE:Csm_Nhet_TestRamParityHTU)
                  000a77a8    00000008     --HOLE-- [fill = 00000000]
                  000a77b0    00000034                : drv_Csm_Adc.obj (.CSM_CODE:Csm_Adc_GetConfigVal_regBNDCR)
                  000a77e4    0000000c     --HOLE-- [fill = 00000000]
                  000a77f0    00000128                : drv_Csm_Adc.obj (.CSM_CODE:Init_Unit)
                  000a7918    00000008     --HOLE-- [fill = 00000000]
                  000a7920    00000080                : drv_Csm_Adc.obj (.CSM_CODE:Csm_Adc_Init)
                  000a79a0    00000048                : drv_Csm_Adc.obj (.CSM_CODE:Csm_Adc_TestRamParitySup)
                  000a79e8    00000008     --HOLE-- [fill = 00000000]
                  000a79f0    000000e4                : drv_Csm_Adc.obj (.CSM_CODE:Csm_Adc_TestRamParity)
                  000a7ad4    0000000c     --HOLE-- [fill = 00000000]
                  000a7ae0    000000a4                : drv_Csm_Nhet.obj (.CSM_CODE:Csm_Nhet_SetPinDirection)
                  000a7b84    0000000c     --HOLE-- [fill = 00000000]
                  000a7b90    00000014                : drv_Csm_Nhet.obj (.CSM_CODE:Csm_Nhet_GetInstrPos)
                  000a7ba4    0000000c     --HOLE-- [fill = 00000000]
                  000a7bb0    0000012c                : drv_Csm_Nhet.obj (.CSM_CODE:Csm_Nhet_HTUSetup)
                  000a7cdc    00000004     --HOLE-- [fill = 00000000]
                  000a7ce0    00000194                : drv_Csm_Nhet.obj (.CSM_CODE:Csm_Nhet_AppendPrg)
                  000a7e74    0000000c     --HOLE-- [fill = 00000000]
                  000a7e80    0000002c                : drv_Csm_Mcu.obj (.CSM_CODE:Csm_Mcu_I_Bit_Count)
                  000a7eac    00000004     --HOLE-- [fill = 00000000]
                  000a7eb0    000000a8                : drv_Csm_Adc.obj (.CSM_CODE:Csm_Adc_ConfigureGroupSup)
                  000a7f58    00000008     --HOLE-- [fill = 00000000]
                  000a7f60    00000014                : drv_Csm_Adc.obj (.CSM_CODE:Csm_Adc_GetConfigVal_regSAMPDISC)
                  000a7f74    0000000c     --HOLE-- [fill = 00000000]
                  000a7f80    000000ac                : drv_Csm_Adc.obj (.CSM_CODE:Csm_Adc_GetConfigVal_regMODECR)
                  000a802c    00000004     --HOLE-- [fill = 00000000]
                  000a8030    00000028                : drv_Csm_Adc.obj (.CSM_CODE:Csm_Adc_GetConfigVal_regSRC)
                  000a8058    00000008     --HOLE-- [fill = 00000000]
                  000a8060    000000d8                : drv_Csm_Adc.obj (.CSM_CODE:Csm_Adc_ConfigureGroup)
                  000a8138    00000008     --HOLE-- [fill = 00000000]
                  000a8140    00000090                : drv_Csm_Adc.obj (.CSM_CODE:manipulate_group)
                  000a81d0    00000064                : drv_Csm_Adc.obj (.CSM_CODE:Csm_Adc_EnableHardwareTrigger)
                  000a8234    0000000c     --HOLE-- [fill = 00000000]
                  000a8240    00000364                : drv_Csm_Pwm.obj (.CSM_CODE:Csm_Pwm_Init_PWM)
                  000a85a4    0000000c     --HOLE-- [fill = 00000000]
                  000a85b0    0000007c                : drv_Csm_Pwm.obj (.CSM_CODE:Csm_Pwm_Init)
                  000a862c    00000004     --HOLE-- [fill = 00000000]
                  000a8630    0000002c                : drv_Csm_Pwm.obj (.CSM_CODE:Csm_Pwm_CheckInitAndChannel)
                  000a865c    00000004     --HOLE-- [fill = 00000000]
                  000a8660    0000002c                : drv_Csm_Nhet.obj (.CSM_CODE:Csm_Nhet_SetPinLevel)
                  000a868c    00000004     --HOLE-- [fill = 00000000]
                  000a8690    000000f0                : drv_Csm_Pwm.obj (.CSM_CODE:Csm_Pwm_DisableChannel)
                  000a8780    000001cc                : drv_Csm_Icu.obj (.CSM_CODE:Csm_Icu_InitDutyCycle_int)
                  000a894c    00000004     --HOLE-- [fill = 00000000]
                  000a8950    00000178                : drv_Csm_Icu.obj (.CSM_CODE:Csm_Icu_Init_DutyCycle)
                  000a8ac8    00000008     --HOLE-- [fill = 00000000]
                  000a8ad0    00000228                : drv_Csm_Icu.obj (.CSM_CODE:Csm_Icu_InitTimeStamp_int)
                  000a8cf8    00000008     --HOLE-- [fill = 00000000]
                  000a8d00    00000174                : drv_Csm_Icu.obj (.CSM_CODE:Csm_Icu_Init_EdgeCountTimestamp)
                  000a8e74    0000000c     --HOLE-- [fill = 00000000]
                  000a8e80    00000088                : drv_Csm_Icu.obj (.CSM_CODE:Csm_Icu_InitQE_addUpdateCounterInstr)
                  000a8f08    00000008     --HOLE-- [fill = 00000000]
                  000a8f10    000001fc                : drv_Csm_Icu.obj (.CSM_CODE:Csm_Icu_InitQE_3pins_special_addInstrBeforeBranch)
                  000a910c    00000004     --HOLE-- [fill = 00000000]
                  000a9110    0000018c                : drv_Csm_Icu.obj (.CSM_CODE:Csm_Icu_QE_add_branches_int)
                  000a929c    00000004     --HOLE-- [fill = 00000000]
                  000a92a0    000000b0                : drv_Csm_Icu.obj (.CSM_CODE:Csm_Icu_InitQE_add_branches)
                  000a9350    00000440                : drv_Csm_Icu.obj (.CSM_CODE:Csm_Icu_InitQE_3pins_special_int)
                  000a9790    00000298                : drv_Csm_Icu.obj (.CSM_CODE:Csm_Icu_InitQE_3pins_int)
                  000a9a28    00000008     --HOLE-- [fill = 00000000]
                  000a9a30    00000170                : drv_Csm_Icu.obj (.CSM_CODE:Csm_Icu_InitQE_2pins_int)
                  000a9ba0    000000d8                : drv_Csm_Icu.obj (.CSM_CODE:Csm_Icu_InitSimple_int)
                  000a9c78    00000008     --HOLE-- [fill = 00000000]
                  000a9c80    000001a4                : drv_Csm_Icu.obj (.CSM_CODE:Csm_Icu_Init)
                  000a9e24    0000000c     --HOLE-- [fill = 00000000]
                  000a9e30    00000038                : drv_Csm_Nhet.obj (.CSM_CODE:Csm_Nhet_EnableHTU)
                  000a9e68    00000008     --HOLE-- [fill = 00000000]
                  000a9e70    00000070                : drv_Csm_Nhet.obj (.CSM_CODE:Csm_Nhet_Start)
                  000a9ee0    00000014                : drv_Csm_Spi.obj (.CSM_CODE:Csm_Spi_SetTxRam_u16)
                  000a9ef4    0000000c     --HOLE-- [fill = 00000000]
                  000a9f00    00000084                : drv_Csm_Spi.obj (.CSM_CODE:Csm_Spi_GetBufferAddresses)
                  000a9f84    0000000c     --HOLE-- [fill = 00000000]
                  000a9f90    0000013c                : drv_Csm_Esc.obj (.CSM_CODE:Csm_Esc_setup_transfer_group)
                  000aa0cc    00000004     --HOLE-- [fill = 00000000]
                  000aa0d0    000000bc                : drv_Csm_Esc.obj (.CSM_CODE:.CSM_CODE_TRIGGERWATCHDOG:Csm_Esc_TxSingleCmd_WaitTxComplete)
                  000aa18c    00000004     --HOLE-- [fill = 00000000]
                  000aa190    00000060                : drv_Csm_Esc.obj (.CSM_CODE:.CSM_CODE_TRIGGERWATCHDOG:Csm_Esc_CheckDevStatusFlags)
                  000aa1f0    00000080                : drv_Csm_Esc.obj (.CSM_CODE:.CSM_CODE_TRIGGERWATCHDOG:Csm_Esc_TransmitTgSingleCmd)
                  000aa270    00000120                : drv_Csm_Esc.obj (.CSM_CODE:Csm_Esc_Init)
                  000aa390    00000194                : drv_Csm_Spi.obj (.CSM_CODE:Csm_Spi_GetRxRamEx_u16)
                  000aa524    0000000c     --HOLE-- [fill = 00000000]
                  000aa530    00000024                : drv_Csm_Spi.obj (.CSM_CODE:Csm_Spi_GetRxRam_u16)
                  000aa554    0000000c     --HOLE-- [fill = 00000000]
                  000aa560    0000033c                : drv_Csm_Esc.obj (.CSM_CODE:Csm_Esc_UpdateStatus)
                  000aa89c    00000004     --HOLE-- [fill = 00000000]
                  000aa8a0    0000005c                : drv_Csm_Esc.obj (.CSM_CODE:.CSM_CODE_TRIGGERWATCHDOG:Csm_Esc_direct_wav)
                  000aa8fc    00000004     --HOLE-- [fill = 00000000]
                  000aa900    00000390                : drv_Csm_Esc.obj (.CSM_CODE:Csm_Esc_Configure)
                  000aac90    00000024                : drv_Csm_Esm.obj (.CSM_CODE:Csm_Esm_CalcChecksum)
                  000aacb4    0000000c     --HOLE-- [fill = 00000000]
                  000aacc0    00000088                : drv_Csm_Esm.obj (.CSM_CODE:Csm_Esm_GetResetCause)
                  000aad48    00000008     --HOLE-- [fill = 00000000]
                  000aad50    0000009c                : drv_Csm_Esc.obj (.CSM_CODE:Csm_Esc_ClearErrors)
                  000aadec    00000004     --HOLE-- [fill = 00000000]
                  000aadf0    00000060                : drv_Csm_Esc.obj (.CSM_CODE:Csm_Esc_DisableDiagnosticModeTimeout)
                  000aae50    00000044                : drv_Csm_Esc.obj (.CSM_CODE:Csm_Esc_Set_Reg_Win1_Win2)
                  000aae94    0000000c     --HOLE-- [fill = 00000000]
                  000aaea0    0000008c                : drv_Csm_Esc.obj (.CSM_CODE:.CSM_CODE_TRIGGERWATCHDOG:Csm_Esc_SendWdtTokenResp0to2)
                  000aaf2c    00000004     --HOLE-- [fill = 00000000]
                  000aaf30    00000010                : drv_Csm_Esc.obj (.CSM_CODE:.CSM_CODE_TRIGGERWATCHDOG:Csm_Esc_TrigWdt_CheckForCorrectValue)
                  000aaf40    0000007c                : drv_Csm_Esc.obj (.CSM_CODE:.CSM_CODE_TRIGGERWATCHDOG:Csm_Esc_TrigWdt_StartNewTokenSeqRun)
                  000aafbc    00000004     --HOLE-- [fill = 00000000]
                  000aafc0    00000054                : drv_Csm_Esc.obj (.CSM_CODE:.CSM_CODE_TRIGGERWATCHDOG:Csm_Esc_TrigWdt_To_TooLate)
                  000ab014    0000000c     --HOLE-- [fill = 00000000]
                  000ab020    0000003c                : drv_Csm_Esc.obj (.CSM_CODE:.CSM_CODE_TRIGGERWATCHDOG:Csm_Esc_TrigWdt_To_BorderToOrTooEarly)
                  000ab05c    00000004     --HOLE-- [fill = 00000000]
                  000ab060    00000180                : drv_Csm_Esc.obj (.CSM_CODE:.CSM_CODE_TRIGGERWATCHDOG:Csm_Esc_TriggerWatchdog)
                  000ab1e0    0000012c                : drv_Csm_Esc.obj (.CSM_CODE:Csm_Esc_DecrementWdtFailureCounter)
                  000ab30c    00000004     --HOLE-- [fill = 00000000]
                  000ab310    00000044                : drv_Csm_Esc.obj (.CSM_CODE:Csm_Esc_SetWdtFailureFunc)
                  000ab354    0000000c     --HOLE-- [fill = 00000000]
                  000ab360    00000030                : drv_Csm_Esc.obj (.CSM_CODE:Csm_Esc_GetNext8BitOfDataStream)
                  000ab390    00000154                : drv_Csm_Esc.obj (.CSM_CODE:Csm_Esc_calculateDevCfgCrcChecksum)
                  000ab4e4    0000000c     --HOLE-- [fill = 00000000]
                  000ab4f0    00000050                : drv_Csm_Esc.obj (.CSM_CODE:Csm_Esc_SetBit_SAFETY_CHECK_CTRL__CFG_CRC_EN)
                  000ab540    0000004c                : drv_Csm_Esc.obj (.CSM_CODE:Csm_Esc_CheckDevCfgCrc)
                  000ab58c    00000004     --HOLE-- [fill = 00000000]
                  000ab590    00000050                : drv_Csm_Esc.obj (.CSM_CODE:Csm_Esc_SetBit_SAFETY_BIST_CTRL__EE_CRC_CHK)
                  000ab5e0    00000088                : drv_Csm_Esc.obj (.CSM_CODE:Csm_Esc_CheckEepromCrc)
                  000ab668    00000008     --HOLE-- [fill = 00000000]
                  000ab670    000000cc                : drv_Csm_Esc.obj (.CSM_CODE:Csm_Esc_CalcAndCheckCrc)
                  000ab73c    00000004     --HOLE-- [fill = 00000000]
                  000ab740    00000028                : drv_Csm_Esc.obj (.CSM_CODE:Csm_Esc_ActivateWriteAccessLockProtection)
                  000ab768    00000008     --HOLE-- [fill = 00000000]
                  000ab770    000000f4                : drv_Csm_Esc.obj (.CSM_CODE:Csm_Esc_Activate)
                  000ab864    0000000c     --HOLE-- [fill = 00000000]
                  000ab870    000000b0                : drv_Csm_Esm.obj (.CSM_CODE:Csm_Esm_ForceErrorPinState)
                  000ab920    00000070                : drv_Csm_Esc.obj (.CSM_CODE:Csm_Esc_DriverEnable)
                  000ab990    00000034                : drv_Csm_Vim.obj (.CSM_CODE:Csm_Vim_DisableInterrupt)
                  000ab9c4    0000000c     --HOLE-- [fill = 00000000]
                  000ab9d0    00000090                : drv_Csm_Can.obj (.CSM_CODE:check_BitTiming_Config)
                  000aba60    00000080                : drv_Csm_Can.obj (.CSM_CODE:check_Can_Config)
                  000abae0    00000094                : drv_Csm_Can.obj (.CSM_CODE:Csm_Can_EnterPowerDownMode)
                  000abb74    0000000c     --HOLE-- [fill = 00000000]
                  000abb80    00000024                : drv_Csm_Can.obj (.CSM_CODE:Csm_Can_EnterInitializationMode)
                  000abba4    0000000c     --HOLE-- [fill = 00000000]
                  000abbb0    0000003c                : drv_Csm_Can.obj (.CSM_CODE:Csm_Can_TestRamSection)
                  000abbec    00000004     --HOLE-- [fill = 00000000]
                  000abbf0    0000003c                : drv_Csm_Can.obj (.CSM_CODE:Csm_Can_InitRamSection)
                  000abc2c    00000004     --HOLE-- [fill = 00000000]
                  000abc30    00000010                : drv_Csm_Can.obj (.CSM_CODE:Csm_Can_GetIF12)
                  000abc40    000000bc                : drv_Csm_Can.obj (.CSM_CODE:Csm_Can_ClearMsgVal)
                  000abcfc    00000004     --HOLE-- [fill = 00000000]
                  000abd00    00000060                : drv_Csm_Can.obj (.CSM_CODE:Csm_Can_SetupBitTiming)
                  000abd60    000001e4                : drv_Csm_Can.obj (.CSM_CODE:Csm_Can_Init)
                  000abf44    0000000c     --HOLE-- [fill = 00000000]
                  000abf50    00000044                : drv_Csm_Can.obj (.CSM_CODE:check_ArbId_Mask)
                  000abf94    0000000c     --HOLE-- [fill = 00000000]
                  000abfa0    0000009c                : drv_Csm_Can.obj (.CSM_CODE:check_Message_Config)
                  000ac03c    00000004     --HOLE-- [fill = 00000000]
                  000ac040    00000070                : drv_Csm_Can.obj (.CSM_CODE:Csm_Can_SetFormat)
                  000ac0b0    0000011c                : drv_Csm_Can.obj (.CSM_CODE:Csm_Can_InitMsg)
                  000ac1cc    00000004     --HOLE-- [fill = 00000000]
                  000ac1d0    00000060                : drv_Csm_Can.obj (.CSM_CODE:Csm_Can_CheckCommon)
                  000ac230    0000001c                : drv_Csm_Can.obj (.CSM_CODE:Csm_Can_CheckCommonMsg)
                  000ac24c    00000004     --HOLE-- [fill = 00000000]
                  000ac250    000000c8                : drv_Csm_Can.obj (.CSM_CODE:Csm_Can_MsgStatus)
                  000ac318    00000008     --HOLE-- [fill = 00000000]
                  000ac320    00000058                : drv_Csm_Can.obj (.CSM_CODE:check_Data_Frame)
                  000ac378    00000008     --HOLE-- [fill = 00000000]
                  000ac380    0000002c                : drv_Csm_Can.obj (.CSM_CODE:Csm_Can_CheckMessageConfigured)
                  000ac3ac    00000004     --HOLE-- [fill = 00000000]
                  000ac3b0    00000134                : drv_Csm_Can.obj (.CSM_CODE:Csm_Can_WriteMsgReadData)
                  000ac4e4    0000000c     --HOLE-- [fill = 00000000]
                  000ac4f0    00000080                : drv_Csm_Can.obj (.CSM_CODE:Csm_Can_WriteMsgUpdateHw)
                  000ac570    00000094                : drv_Csm_Can.obj (.CSM_CODE:Csm_Can_WriteMsg)
                  000ac604    0000000c     --HOLE-- [fill = 00000000]
                  000ac610    00000070                : drv_Csm_Can.obj (.CSM_CODE:Csm_Can_WriteTransmitMsg)
                  000ac680    0000016c                : drv_Csm_Dio.obj (.CSM_CODE:Csm_Dio_CheckChannelDirCfg)
                  000ac7ec    00000004     --HOLE-- [fill = 00000000]
                  000ac7f0    000000a4                : drv_Csm_Dio.obj (.CSM_CODE:Csm_Dio_ReadBackChannelCfg)
                  000ac894    0000000c     --HOLE-- [fill = 00000000]
                  000ac8a0    000001d0                : drv_Csm_Dio.obj (.CSM_CODE:Csm_Dio_ReadBackCfg)
                  000aca70    00000224                : drv_Csm_Nhet.obj (.CSM_CODE:Csm_Nhet_ReadBackCfgNHET)
                  000acc94    0000000c     --HOLE-- [fill = 00000000]
                  000acca0    000001a0                : drv_Csm_Nhet.obj (.CSM_CODE:Csm_Nhet_ReadBackCfgHTU)
                  000ace40    000001cc                : drv_Csm_Mcu.obj (.CSM_CODE:Csm_Mcu_ReadBackPllConfig)
                  000ad00c    00000004     --HOLE-- [fill = 00000000]
                  000ad010    00000054                : drv_Csm_Mcu.obj (.CSM_CODE:Csm_Mcu_ReadBackIommCfg)
                  000ad064    0000000c     --HOLE-- [fill = 00000000]
                  000ad070    000001e4                : drv_Csm_Mcu.obj (.CSM_CODE:Csm_Mcu_ReadBackCfg_Base)
                  000ad254    0000000c     --HOLE-- [fill = 00000000]
                  000ad260    00000078                : drv_Csm_Mcu.obj (.CSM_CODE:Csm_Mcu_ReadBackCfg_Flash)
                  000ad2d8    00000008     --HOLE-- [fill = 00000000]
                  000ad2e0    00000020                : drv_Csm_Mcu.obj (.CSM_CODE:Csm_Mcu_ReadBackCfg)
                  000ad300    000000cc                : drv_Csm_Esm.obj (.CSM_CODE:Csm_Esm_ReadBackCfg)
                  000ad3cc    00000018                : drv_asm_Csm_Mcu_Core.obj (.CSM_CODE:Csm_Mcu_Vim_Read_HW_Vec_Mode_Asm)
                  000ad3e4    0000000c     --HOLE-- [fill = 00000000]
                  000ad3f0    00000004                : drv_Csm_Vim.obj (.CSM_CODE:Csm_Mcu_Vim_Read_HW_Vec_Mode)
                  000ad3f4    0000000c     --HOLE-- [fill = 00000000]
                  000ad400    00000140                : drv_Csm_Vim.obj (.CSM_CODE:Csm_Vim_ReadBackCfg)
                  000ad540    0000018c                : drv_Csm_Dma.obj (.CSM_CODE:Csm_Dma_ReadBackInterruptsCfg)
                  000ad6cc    00000004     --HOLE-- [fill = 00000000]
                  000ad6d0    000001a0                : drv_Csm_Dma.obj (.CSM_CODE:Csm_Dma_ReadBackCtrlPacketCfg)
                  000ad870    00000150                : drv_Csm_Dma.obj (.CSM_CODE:Csm_Dma_ReadBackMPUCfg)
                  000ad9c0    000000c4                : drv_Csm_Dma.obj (.CSM_CODE:Csm_Dma_ReadBackCfg)
                  000ada84    0000000c     --HOLE-- [fill = 00000000]
                  000ada90    00000028                : drv_Csm_Adc.obj (.CSM_CODE:Csm_Adc_ReadBackCfgSup)
                  000adab8    00000008     --HOLE-- [fill = 00000000]
                  000adac0    00000180                : drv_Csm_Adc.obj (.CSM_CODE:Csm_Adc_ReadUnit)
                  000adc40    0000010c                : drv_Csm_Adc.obj (.CSM_CODE:Csm_Adc_ReadHwGroup)
                  000add4c    00000004     --HOLE-- [fill = 00000000]
                  000add50    0000008c                : drv_Csm_Adc.obj (.CSM_CODE:Csm_Adc_ReadBackCfg)
                  000adddc    00000004     --HOLE-- [fill = 00000000]
                  000adde0    00000338                : drv_Csm_Spi.obj (.CSM_CODE:Csm_Spi_ReadBackCfg)
                  000ae118    00000008     --HOLE-- [fill = 00000000]
                  000ae120    00000068                : drv_Csm_Esm.obj (.CSM_CODE:Csm_Esm_StoreResetCause)
                  000ae188    00000008     --HOLE-- [fill = 00000000]
                  000ae190    00000028                : drv_Csm_Esm.obj (.CSM_CODE:Csm_Esm_ForceErrorEndlessLoop)
                  000ae1b8    00000008     --HOLE-- [fill = 00000000]
                  000ae1c0    0000002c                : drv_Csm_Vim.obj (.CSM_CODE:Csm_Vim_PhantomInterrupt)
                  000ae1ec    00000004     --HOLE-- [fill = 00000000]
                  000ae1f0    00000038                : drv_Csm_Vim.obj (.CSM_CODE:Csm_Vim_PhantomInterrupt_ISR)
                  000ae228    00000008     --HOLE-- [fill = 00000000]
                  000ae230    000000a4                : drv_Csm_Esm.obj (.CSM_CODE:Csm_Esm_GetCategoryAndMask)
                  000ae2d4    0000000c     --HOLE-- [fill = 00000000]
                  000ae2e0    000000c8                : drv_Csm_Esm.obj (.CSM_CODE:Csm_Esm_CheckIntHiCrossover)
                  000ae3a8    00000008     --HOLE-- [fill = 00000000]
                  000ae3b0    00000068                : drv_Csm_Esm.obj (.CSM_CODE:Csm_Esm_GetErrorPinAction)
                  000ae418    00000008     --HOLE-- [fill = 00000000]
                  000ae420    00000290                : drv_Csm_Esm.obj (.CSM_CODE:Csm_Esm_HighLevel)
                  000ae6b0    000000ac                : drv_Csm_Esm.obj (.CSM_CODE:Csm_Esm_CheckIntLoCrossover)
                  000ae75c    00000004     --HOLE-- [fill = 00000000]
                  000ae760    000001f4                : drv_Csm_Esm.obj (.CSM_CODE:Csm_Esm_LowLevel)
                  000ae954    0000000c     --HOLE-- [fill = 00000000]
                  000ae960    00000038                : drv_Csm_Nhet.obj (.CSM_CODE:Csm_Nhet_ReadOffsetIndexLevel1)
                  000ae998    00000008     --HOLE-- [fill = 00000000]
                  000ae9a0    00000028                : drv_Csm_Nhet.obj (.CSM_CODE:Csm_Nhet_ReturnLRP)
                  000ae9c8    00000008     --HOLE-- [fill = 00000000]
                  000ae9d0    00000020                : drv_Csm_Pwm.obj (.CSM_CODE:Csm_Pwm_GetDutyCycle_Intern)
                  000ae9f0    00000014                : drv_Csm_Pwm.obj (.CSM_CODE:Csm_Pwm_GetPeriod_Intern)
                  000aea04    0000000c     --HOLE-- [fill = 00000000]
                  000aea10    000000dc                : drv_Csm_Pwm.obj (.CSM_CODE:Csm_Pwm_GetDutyCycleOrPeriod)
                  000aeaec    00000004     --HOLE-- [fill = 00000000]
                  000aeaf0    0000000c                : drv_Csm_Pwm.obj (.CSM_CODE:Csm_Pwm_GetDutyCycle)
                  000aeafc    00000004     --HOLE-- [fill = 00000000]
                  000aeb00    00000090                : drv_Csm_Dio.obj (.CSM_CODE:Csm_Dio_ChangeDirection)
                  000aeb90    00000038                : drv_Csm_Nhet.obj (.CSM_CODE:Csm_Nhet_ReadOffsetIndexLevel2)
                  000aebc8    00000008     --HOLE-- [fill = 00000000]
                  000aebd0    00000028                : drv_Csm_Dma.obj (.CSM_CODE:Csm_Dma_DisableHardwareTrigger)
                  000aebf8    00000008     --HOLE-- [fill = 00000000]
                  000aec00    00000028                : drv_Csm_Esc.obj (.CSM_CODE:Csm_Esc_PowerDown_ClrCANWUL)
                  000aec28    00000008     --HOLE-- [fill = 00000000]
                  000aec30    00000068                : drv_Csm_Esc.obj (.CSM_CODE:Csm_Esc_ForceTpsReset)
                  000aec98    00000008     --HOLE-- [fill = 00000000]
                  000aeca0    0000005c                : drv_Csm_Pwm.obj (.CSM_CODE:Csm_Pwm_CheckInitChannelDisableAndDC)
                  000aecfc    00000004     --HOLE-- [fill = 00000000]
                  000aed00    000000ac                : drv_Csm_Pwm.obj (.CSM_CODE:Csm_Pwm_SetPeriodAndDuty_Period)
                  000aedac    00000004     --HOLE-- [fill = 00000000]
                  000aedb0    00000180                : drv_Csm_Pwm.obj (.CSM_CODE:Csm_Pwm_SetPeriodAndDuty_Intern)
                  000aef30    00000028                : drv_Csm_Pwm.obj (.CSM_CODE:Csm_Pwm_SetDutyCycle)
                  000aef58    00000008     --HOLE-- [fill = 00000000]
                  000aef60    00000050                : drv_Csm_Pwm.obj (.CSM_CODE:Csm_Pwm_SetPeriodAndDuty)
                  000aefb0    0000010c                : drv_Csm_Pwm.obj (.CSM_CODE:Csm_Pwm_EnableChannel)
                  000af0bc    00000004     --HOLE-- [fill = 00000000]
                  000af0c0    00000194                : drv_Csm_Spi.obj (.CSM_CODE:Csm_Spi_GetRxRamEx_u8)
                  000af254    0000000c     --HOLE-- [fill = 00000000]
                  000af260    00000024                : drv_Csm_Spi.obj (.CSM_CODE:Csm_Spi_GetRxRam_u8)
                  000af284    0000000c     --HOLE-- [fill = 00000000]
                  000af290    00000030                : drv_Csm_Dma.obj (.CSM_CODE:Csm_Dma_GetDmaStatAndChanPend)
                  000af2c0    00000048                : drv_Csm_Dma.obj (.CSM_CODE:Csm_Dma_PortBActiveChannelInfo)
                  000af308    00000048                : drv_asm_Csm_Mcu_Core.obj (.CSM_CODE:Csm_Mcu_GetFpuExceptionFlags)
                  000af350    00000070                : drv_Csm_Vim.obj (.CSM_CODE:Csm_Vim_WriteInterruptVectorTable)
                  000af3c0    00000050                : drv_Csm_Vim.obj (.CSM_CODE:Csm_Vim_GetParityError)
                  000af410    000000e0                : drv_Csm_Vim.obj (.CSM_CODE:Csm_Vim_TestRamParityFallback)
                  000af4f0    00000038                : drv_Csm_Vim.obj (.CSM_CODE:Csm_Vim_TestRamParityFb_ISR)
                  000af528    00000008     --HOLE-- [fill = 00000000]

.csm_const 
*          0    000af530    00000908     
                  000af530    000001b0     ttc500.lib : drv_het_ADC_MUX_nhet_prg.obj (.CSM_CONST)
                  000af6e0    00000170                : drv_het_ICU_QE_3pins_special_highres_prg.obj (.CSM_CONST)
                  000af850    00000100                : drv_Csm_Esc.obj (.CSM_CONST)
                  000af950    000000e0                : drv_het_ICU_QE_3pins_highres_prg.obj (.CSM_CONST)
                  000afa30    000000c0                : drv_het_ICU_QE_2pins_highres_prg.obj (.CSM_CONST)
                  000afaf0    000000b0                : drv_het_PWM_GPIO_prg.obj (.CSM_CONST)
                  000afba0    00000080                : drv_Csm_Esc.obj (.CSM_CONST:.CSM_CONST_TRIGGERWATCHDOG)
                  000afc20    00000078                : drv_Csm_Spi.obj (.CSM_CONST:.CSM_CONST_TRIGGERWATCHDOG)
                  000afc98    00000050                : drv_het_Interrupt_prg.obj (.CSM_CONST)
                  000afce8    00000050                : drv_het_PWM_output_prg.obj (.CSM_CONST)
                  000afd38    00000040                : drv_Csm_Nhet.obj (.CSM_CONST)
                  000afd78    00000040                : drv_het_ICU_dutycycle_prg.obj (.CSM_CONST)
                  000afdb8    00000030                : drv_het_ICU_timestamp_edgecounter_prg.obj (.CSM_CONST)
                  000afde8    00000020                : drv_Csm_Adc.obj (.CSM_CONST)
                  000afe08    00000020                : drv_het_PWM_SSW_prg.obj (.CSM_CONST)
                  000afe28    00000010                : drv_het_ICU_simple_prg.obj (.CSM_CONST)

.io_driver_code 
*          0    000afe40    00018b10     
                  000afe40    00000004     bsp.lib : bsp_sys_startup.obj (.IO_DRIVER_CODE:RAM_Fail)
                  000afe44    00000020     ttc500.lib : drv_asm_IO_INT_MPU_ASM.obj (.IO_DRIVER_CODE:_mpuDisable_)
                  000afe64    00000018                : drv_asm_IO_INT_MPU_ASM.obj (.IO_DRIVER_CODE:_mpuDisableBackgroundRegion_)
                  000afe7c    00000008                : drv_asm_IO_INT_MPU_ASM.obj (.IO_DRIVER_CODE:_mpuSetRegion_)
                  000afe84    00000008                : drv_asm_IO_INT_MPU_ASM.obj (.IO_DRIVER_CODE:_mpuSetRegionBaseAddress_)
                  000afe8c    00000008                : drv_asm_IO_INT_MPU_ASM.obj (.IO_DRIVER_CODE:_mpuSetRegionTypeAndPermission_)
                  000afe94    00000008                : drv_asm_IO_INT_MPU_ASM.obj (.IO_DRIVER_CODE:_mpuSetRegionSizeAndEnable_)
                  000afe9c    00000004     --HOLE-- [fill = 00000000]
                  000afea0    00000064                : drv_IO_INT_MPU.obj (.IO_DRIVER_CODE:IO_INT_MPU_SetupRegion)
                  000aff04    00000018                : drv_asm_IO_INT_MPU_ASM.obj (.IO_DRIVER_CODE:_mpuEnableBackgroundRegion_)
                  000aff1c    00000020                : drv_asm_IO_INT_MPU_ASM.obj (.IO_DRIVER_CODE:_mpuEnable_)
                  000aff3c    00000004     --HOLE-- [fill = 00000000]
                  000aff40    0000005c                : drv_IO_INT_MPU.obj (.IO_DRIVER_CODE:IO_INT_MPU_Init)
                  000aff9c    00000004     --HOLE-- [fill = 00000000]
                  000affa0    000001c4                : drv_IO_INT_EMIF.obj (.IO_DRIVER_CODE:IO_INT_EMIF_UpdateTimings)
                  000b0164    00000008                : drv_asm_IO_INT_MPU_ASM.obj (.IO_DRIVER_CODE:_mpuGetRegionSizeAndEnable_)
                  000b016c    00000004     --HOLE-- [fill = 00000000]
                  000b0170    00000138                : drv_IO_INT_EMIF.obj (.IO_DRIVER_CODE:IO_INT_EMIF_Init)
                  000b02a8    00000008     --HOLE-- [fill = 00000000]
                  000b02b0    00000254     bsp.lib : bsp_sys_startup.obj (.IO_DRIVER_CODE:stack_init)
                  000b0504    0000000c     ttc500.lib : drv_asm_IO_INT_VEC_swi_ASM.obj (.IO_DRIVER_CODE:_io_swi_handler)
                  000b0510    00000088     bsp.lib : bsp_sys_startup.obj (.IO_DRIVER_CODE:heap_init)
                  000b0598    00000008     --HOLE-- [fill = 00000000]
                  000b05a0    0000000c             : bsp_sys_startup.obj (.IO_DRIVER_CODE:get_shared_memory)
                  000b05ac    00000004     --HOLE-- [fill = 00000000]
                  000b05b0    00000140             : bsp_sys_startup.obj (.IO_DRIVER_CODE:mem_init)
                  000b06f0    0000007c     ttc500.lib : drv_IO_Driver.obj (.IO_DRIVER_CODE:IO_Driver_CheckSafetyConf)
                  000b076c    00000004     --HOLE-- [fill = 00000000]
                  000b0770    000000bc                : drv_IO_INT_RTC.obj (.IO_DRIVER_CODE:IO_INT_RTC_SetupFrc)
                  000b082c    00000004     --HOLE-- [fill = 00000000]
                  000b0830    00000040                : drv_IO_INT_RTC.obj (.IO_DRIVER_CODE:IO_INT_RTC_Init)
                  000b0870    00000098                : drv_IO_Driver.obj (.IO_DRIVER_CODE:IO_Driver_Enter_Critical_All)
                  000b0908    00000008     --HOLE-- [fill = 00000000]
                  000b0910    0000001c                : drv_DIAG_INT_ErrorHandler.obj (.IO_DRIVER_CODE:DIAG_ERR_GetType)
                  000b092c    00000004     --HOLE-- [fill = 00000000]
                  000b0930    00000134                : drv_DIAG_INT_ErrorHandler.obj (.IO_DRIVER_CODE:DIAG_ERR_HandleTempErr)
                  000b0a64    0000000c     --HOLE-- [fill = 00000000]
                  000b0a70    00000054                : drv_IO_Driver.obj (.IO_DRIVER_CODE:IO_Driver_Enter_Critical_IRQ)
                  000b0ac4    0000000c     --HOLE-- [fill = 00000000]
                  000b0ad0    00000068                : drv_IO_Driver.obj (.IO_DRIVER_CODE:IO_Driver_Leave_Critical_IRQ)
                  000b0b38    00000008     --HOLE-- [fill = 00000000]
                  000b0b40    00000054                : drv_IO_INT_WD.obj (.IO_DRIVER_CODE:IO_INT_WD_TPS_GetStatusAsync)
                  000b0b94    0000000c     --HOLE-- [fill = 00000000]
                  000b0ba0    000000c4                : drv_IO_INT_WD.obj (.IO_DRIVER_CODE:IO_INT_WD_GetStatus)
                  000b0c64    0000000c     --HOLE-- [fill = 00000000]
                  000b0c70    00000084                : drv_IO_POWER.obj (.IO_DRIVER_CODE:IO_POWER_DisableSSWOutputs)
                  000b0cf4    0000000c     --HOLE-- [fill = 00000000]
                  000b0d00    000000c8                : drv_IO_Driver.obj (.IO_DRIVER_CODE:IO_Driver_Leave_Critical_All)
                  000b0dc8    00000008     --HOLE-- [fill = 00000000]
                  000b0dd0    00000040                : drv_IO_INT_SPI.obj (.IO_DRIVER_CODE:IO_INT_SPI_Async_TriggerTransmission)
                  000b0e10    000000d8                : drv_IO_INT_SHIFT.obj (.IO_DRIVER_CODE:IO_INT_SHIFT_Write)
                  000b0ee8    00000008     --HOLE-- [fill = 00000000]
                  000b0ef0    000001bc                : drv_IO_DIO.obj (.IO_DRIVER_CODE:IO_DO_WriteOutput)
                  000b10ac    00000004     --HOLE-- [fill = 00000000]
                  000b10b0    0000007c                : drv_IO_INT_PWM.obj (.IO_DRIVER_CODE:IO_INT_PWM_SSW_Disable)
                  000b112c    00000004     --HOLE-- [fill = 00000000]
                  000b1130    00000078                : drv_IO_INT_PWM.obj (.IO_DRIVER_CODE:IO_INT_PWM_SSW_Enable)
                  000b11a8    00000008     --HOLE-- [fill = 00000000]
                  000b11b0    000000a0                : drv_IO_POWER.obj (.IO_DRIVER_CODE:IO_POWER_EnableSSWOutputs)
                  000b1250    000003e0                : drv_IO_POWER.obj (.IO_DRIVER_CODE:IO_POWER_WriteMode)
                  000b1630    000000c0                : drv_DIAG_INT_ErrorHandler.obj (.IO_DRIVER_CODE:DIAG_ERR_DisableSafetySwitch)
                  000b16f0    000000e8                : drv_DIAG_INT_ErrorHandler.obj (.IO_DRIVER_CODE:DIAG_ERR_DisableSafeHS)
                  000b17d8    00000008     --HOLE-- [fill = 00000000]
                  000b17e0    000000ac                : drv_IO_INT_SPI.obj (.IO_DRIVER_CODE:IO_INT_SPI_GetConfigItems)
                  000b188c    00000004     --HOLE-- [fill = 00000000]
                  000b1890    00000074                : drv_IO_INT_SPI.obj (.IO_DRIVER_CODE:IO_INT_SPI_GetFormat)
                  000b1904    0000000c     --HOLE-- [fill = 00000000]
                  000b1910    000001a0                : drv_IO_INT_SPI.obj (.IO_DRIVER_CODE:IO_INT_SPI_Async_Write)
                  000b1ab0    00000058                : drv_IO_INT_SHIFT.obj (.IO_DRIVER_CODE:IO_INT_SHIFT_Sync)
                  000b1b08    00000008     --HOLE-- [fill = 00000000]
                  000b1b10    00000190                : drv_DIAG_INT_ErrorHandler.obj (.IO_DRIVER_CODE:DIAG_ERR_HandleAppCallback)
                  000b1ca0    00000128                : drv_DIAG_INT_States.obj (.IO_DRIVER_CODE:DIAG_CpuSafeState)
                  000b1dc8    00000008     --HOLE-- [fill = 00000000]
                  000b1dd0    00000014                : drv_DIAG_INT_States.obj (.IO_DRIVER_CODE:DIAG_RequestSafeState)
                  000b1de4    0000000c     --HOLE-- [fill = 00000000]
                  000b1df0    00000074                : drv_DIAG_INT_ErrorHandler.obj (.IO_DRIVER_CODE:DIAG_ERR_HandleAppNotify)
                  000b1e64    0000000c     --HOLE-- [fill = 00000000]
                  000b1e70    0000015c                : drv_DIAG_INT_ErrorHandler.obj (.IO_DRIVER_CODE:DIAG_ERR_Notify)
                  000b1fcc    00000004     --HOLE-- [fill = 00000000]
                  000b1fd0    00000020                : drv_DIAG_INT_SSW_Check.obj (.IO_DRIVER_CODE:DIAG_SSW_ModuleInit)
                  000b1ff0    0000001c                : drv_DIAG_INT_ADC_Check.obj (.IO_DRIVER_CODE:DIAG_ADC_ModuleInit)
                  000b200c    00000004     --HOLE-- [fill = 00000000]
                  000b2010    0000001c                : drv_DIAG_INT_PWM_Check.obj (.IO_DRIVER_CODE:DIAG_PWM_ModuleInit)
                  000b202c    00000004     --HOLE-- [fill = 00000000]
                  000b2030    0000002c                : drv_DIAG_INT_DIO_Check.obj (.IO_DRIVER_CODE:DIAG_DIO_ModuleInit)
                  000b205c    00000004     --HOLE-- [fill = 00000000]
                  000b2060    00000014                : drv_DIAG_INT_VMON_Check.obj (.IO_DRIVER_CODE:DIAG_VMON_ModuleInit)
                  000b2074    0000000c     --HOLE-- [fill = 00000000]
                  000b2080    00000024                : drv_DIAG_INT_ENTR_Check.obj (.IO_DRIVER_CODE:DIAG_ENTR_ModuleInit)
                  000b20a4    0000000c     --HOLE-- [fill = 00000000]
                  000b20b0    00000110                : drv_DIAG_INT_States.obj (.IO_DRIVER_CODE:DIAG_Init)
                  000b21c0    00000028                : drv_IO_INT_CRYPT.obj (.IO_DRIVER_CODE:IO_INT_CRYPT_ubyte4_to_bytes)
                  000b21e8    00000008     --HOLE-- [fill = 00000000]
                  000b21f0    00000030                : drv_IO_INT_CRYPT.obj (.IO_DRIVER_CODE:IO_INT_CRYPT_bytes_to_ubyte4)
                  000b2220    000003a0                : drv_IO_INT_CRYPT.obj (.IO_DRIVER_CODE:IO_INT_CRYPT_md5hash)
                  000b25c0    00000084                : drv_IO_INT_SHM.obj (.IO_DRIVER_CODE:IO_INT_SHM_VerifyIntegrity)
                  000b2644    0000000c     --HOLE-- [fill = 00000000]
                  000b2650    00000060                : drv_IO_INT_SHM.obj (.IO_DRIVER_CODE:IO_INT_SHM_Init)
                  000b26b0    00000018                : drv_DIAG_INT_Core.obj (.IO_DRIVER_CODE:DIAG_INT_GetFlashStatus)
                  000b26c8    00000008     --HOLE-- [fill = 00000000]
                  000b26d0    00000018                : drv_DIAG_INT_Core.obj (.IO_DRIVER_CODE:DIAG_INT_GetRamB0Status)
                  000b26e8    00000008     --HOLE-- [fill = 00000000]
                  000b26f0    00000018                : drv_DIAG_INT_Core.obj (.IO_DRIVER_CODE:DIAG_INT_GetRamB1Status)
                  000b2708    00000008     --HOLE-- [fill = 00000000]
                  000b2710    00000124                : drv_IO_INT_ESM.obj (.IO_DRIVER_CODE:IO_INT_ESM_CheckCat1LowStatus)
                  000b2834    0000000c     --HOLE-- [fill = 00000000]
                  000b2840    00000018                : drv_DIAG_INT_Core.obj (.IO_DRIVER_CODE:DIAG_INT_GetCfgFlashStatus)
                  000b2858    00000008     --HOLE-- [fill = 00000000]
                  000b2860    000000b8                : drv_IO_INT_ESM.obj (.IO_DRIVER_CODE:IO_INT_ESM_CheckCat1HighStatus)
                  000b2918    00000008     --HOLE-- [fill = 00000000]
                  000b2920    00000080                : drv_IO_INT_SHM.obj (.IO_DRIVER_CODE:IO_INT_SHM_Read)
                  000b29a0    000000e0                : drv_IO_INT_ESM.obj (.IO_DRIVER_CODE:IO_INT_ESM_CheckEsmInitStatus)
                  000b2a80    0000005c                : drv_IO_INT_SHM.obj (.IO_DRIVER_CODE:IO_INT_SHM_GenIntegrityInfo)
                  000b2adc    00000004     --HOLE-- [fill = 00000000]
                  000b2ae0    000000a4                : drv_IO_INT_SHM.obj (.IO_DRIVER_CODE:IO_INT_SHM_Write)
                  000b2b84    0000000c     --HOLE-- [fill = 00000000]
                  000b2b90    00000084                : drv_IO_Driver.obj (.IO_DRIVER_CODE:IO_Driver_VEC_Init)
                  000b2c14    0000000c     --HOLE-- [fill = 00000000]
                  000b2c20    00000084                : drv_IO_Tools.obj (.IO_DRIVER_CODE:IO_Tools_CalcCRC)
                  000b2ca4    0000000c     --HOLE-- [fill = 00000000]
                  000b2cb0    00000074                : drv_IO_INT_Variant.obj (.IO_DRIVER_CODE:IO_INT_Variant_CheckProdData)
                  000b2d24    0000000c     --HOLE-- [fill = 00000000]
                  000b2d30    00000064                : drv_IO_INT_Variant.obj (.IO_DRIVER_CODE:IO_INT_Variant_CheckSerial)
                  000b2d94    0000000c     --HOLE-- [fill = 00000000]
                  000b2da0    00000034                : drv_IO_INT_Variant.obj (.IO_DRIVER_CODE:IO_INT_Variant_CheckCRC)
                  000b2dd4    0000000c     --HOLE-- [fill = 00000000]
                  000b2de0    0000010c                : drv_IO_INT_Variant.obj (.IO_DRIVER_CODE:IO_INT_Variant_GetProdCode)
                  000b2eec    00000004     --HOLE-- [fill = 00000000]
                  000b2ef0    00000058                : drv_IO_INT_Variant.obj (.IO_DRIVER_CODE:IO_INT_Variant_ProdCodeComp_HW)
                  000b2f48    00000008     --HOLE-- [fill = 00000000]
                  000b2f50    0000004c                : drv_IO_INT_Variant.obj (.IO_DRIVER_CODE:IO_INT_Variant_ProdCodeComp_SW)
                  000b2f9c    00000004     --HOLE-- [fill = 00000000]
                  000b2fa0    000000d8                : drv_IO_INT_Variant.obj (.IO_DRIVER_CODE:IO_INT_Variant_Decode)
                  000b3078    00000008     --HOLE-- [fill = 00000000]
                  000b3080    00000038                : drv_IO_INT_Variant.obj (.IO_DRIVER_CODE:IO_INT_Variant_Write)
                  000b30b8    00000008     --HOLE-- [fill = 00000000]
                  000b30c0    00000064                : drv_IO_INT_Variant.obj (.IO_DRIVER_CODE:IO_INT_Variant_Read)
                  000b3124    0000000c     --HOLE-- [fill = 00000000]
                  000b3130    000000b4                : drv_IO_INT_Variant.obj (.IO_DRIVER_CODE:IO_INT_Variant_GetVariantCfg)
                  000b31e4    0000000c     --HOLE-- [fill = 00000000]
                  000b31f0    00000150                : drv_IO_INT_Variant.obj (.IO_DRIVER_CODE:IO_INT_Variant_Init)
                  000b3340    00000074                : drv_IO_INT_Variant.obj (.IO_DRIVER_CODE:IO_INT_Variant_GetPinAvail_Option)
                  000b33b4    0000000c     --HOLE-- [fill = 00000000]
                  000b33c0    00000070                : drv_IO_INT_Variant.obj (.IO_DRIVER_CODE:IO_INT_Variant_GetPinAvail_IO)
                  000b3430    00000064                : drv_IO_ADC.obj (.IO_DRIVER_CODE:IO_ADC_VariantInit)
                  000b3494    0000000c     --HOLE-- [fill = 00000000]
                  000b34a0    00000010                : drv_IO_Driver.obj (.IO_DRIVER_CODE:IO_Driver_EnableInterrupts)
                  000b34b0    0000000c     bsp.lib : bsp_sys_startup.obj (.IO_DRIVER_CODE:get_mcu_configuration)
                  000b34bc    00000004     --HOLE-- [fill = 00000000]
                  000b34c0    0000004c     ttc500.lib : drv_DIAG_INT_Core.obj (.IO_DRIVER_CODE:DIAG_INT_VimParityTest)
                  000b350c    00000020                : drv_asm_IO_INT_DEBUG_ASM.obj (.IO_DRIVER_CODE:IO_INT_DEBUG_ReadDbgBaseAddr)
                  000b352c    00000004     --HOLE-- [fill = 00000000]
                  000b3530    0000007c                : drv_IO_INT_DEBUG.obj (.IO_DRIVER_CODE:IO_INT_DEBUG_MaskDAbort)
                  000b35ac    00000004     --HOLE-- [fill = 00000000]
                  000b35b0    00000504                : drv_DIAG_INT_Core.obj (.IO_DRIVER_CODE:DIAG_INT_CoreInit)
                  000b3ab4    0000000c     --HOLE-- [fill = 00000000]
                  000b3ac0    00000080                : drv_IO_INT_SPI.obj (.IO_DRIVER_CODE:IO_INT_SPI_Init)
                  000b3b40    00000080                : drv_DIAG_INT_Core.obj (.IO_DRIVER_CODE:DIAG_INT_SpiParityTest)
                  000b3bc0    0000004c                : drv_DIAG_INT_Core.obj (.IO_DRIVER_CODE:DIAG_INT_DmaMpuTest)
                  000b3c0c    00000004     --HOLE-- [fill = 00000000]
                  000b3c10    0000004c                : drv_DIAG_INT_Core.obj (.IO_DRIVER_CODE:DIAG_INT_DmaParityTest)
                  000b3c5c    00000004     --HOLE-- [fill = 00000000]
                  000b3c60    000000dc                : drv_DIAG_INT_Core.obj (.IO_DRIVER_CODE:DIAG_INT_DmaBasicTest)
                  000b3d3c    00000004     --HOLE-- [fill = 00000000]
                  000b3d40    00000084                : drv_IO_Driver.obj (.IO_DRIVER_CODE:IO_Driver_DMA_Init)
                  000b3dc4    0000000c     --HOLE-- [fill = 00000000]
                  000b3dd0    0000004c                : drv_IO_CAN.obj (.IO_DRIVER_CODE:IO_CAN_CPU_InitDefault)
                  000b3e1c    00000004     --HOLE-- [fill = 00000000]
                  000b3e20    0000009c                : drv_IO_INT_SPI.obj (.IO_DRIVER_CODE:IO_INT_SPI_SetBuffers)
                  000b3ebc    00000004     --HOLE-- [fill = 00000000]
                  000b3ec0    0000002c                : drv_IO_INT_SHIFT.obj (.IO_DRIVER_CODE:IO_INT_SHIFT_SafetyInit)
                  000b3eec    00000004     --HOLE-- [fill = 00000000]
                  000b3ef0    00000060                : drv_IO_INT_SHIFT.obj (.IO_DRIVER_CODE:IO_INT_SHIFT_Init)
                  000b3f50    0000007c                : drv_IO_POWER.obj (.IO_DRIVER_CODE:IO_POWER_Init)
                  000b3fcc    00000004     --HOLE-- [fill = 00000000]
                  000b3fd0    00000050                : drv_DIAG_INT_Core.obj (.IO_DRIVER_CODE:DIAG_INT_DCC_Init)
                  000b4020    00000070                : drv_IO_INT_FPGA.obj (.IO_DRIVER_CODE:IO_INT_FPGA_ReadFIDB)
                  000b4090    000001a4                : drv_IO_INT_FPGA.obj (.IO_DRIVER_CODE:IO_INT_FPGA_SendImage_RLE)
                  000b4234    0000000c     --HOLE-- [fill = 00000000]
                  000b4240    0000005c                : drv_IO_INT_FPGA.obj (.IO_DRIVER_CODE:IO_INT_FPGA_SendImage_Plain)
                  000b429c    00000004     --HOLE-- [fill = 00000000]
                  000b42a0    00000050                : drv_IO_INT_FPGA.obj (.IO_DRIVER_CODE:IO_INT_FPGA_SendImage_Finalize)
                  000b42f0    00000080                : drv_IO_INT_FPGA.obj (.IO_DRIVER_CODE:IO_INT_FPGA_VersionCheck)
                  000b4370    00000070                : drv_IO_INT_Variant.obj (.IO_DRIVER_CODE:IO_INT_Variant_GetPinAvail_Full)
                  000b43e0    000000b4                : drv_IO_CAN.obj (.IO_DRIVER_CODE:IO_CAN_FPGA_InitDefault)
                  000b4494    0000000c     --HOLE-- [fill = 00000000]
                  000b44a0    000000cc                : drv_IO_INT_FPGA.obj (.IO_DRIVER_CODE:IO_INT_FPGA_InitRegisters)
                  000b456c    00000004     --HOLE-- [fill = 00000000]
                  000b4570    000001fc                : drv_IO_INT_FPGA.obj (.IO_DRIVER_CODE:IO_Driver_FPGA_Init)
                  000b476c    00000004     --HOLE-- [fill = 00000000]
                  000b4770    00000054                : drv_IO_Driver.obj (.IO_DRIVER_CODE:IO_Driver_DMA_EnableADCHwTrigger)
                  000b47c4    0000000c     --HOLE-- [fill = 00000000]
                  000b47d0    000000c8                : drv_DIAG_INT_Core.obj (.IO_DRIVER_CODE:DIAG_INT_NhetParityTest)
                  000b4898    00000008     --HOLE-- [fill = 00000000]
                  000b48a0    00000078                : drv_DIAG_INT_Core.obj (.IO_DRIVER_CODE:DIAG_INT_AdcParityTest)
                  000b4918    00000008     --HOLE-- [fill = 00000000]
                  000b4920    00000b2c                : drv_IO_INT_ADC.obj (.IO_DRIVER_CODE:IO_INT_ADC_MuxInit)
                  000b544c    00000004     --HOLE-- [fill = 00000000]
                  000b5450    00000050                : drv_IO_ADC.obj (.IO_DRIVER_CODE:IO_ADC_StatusInit)
                  000b54a0    0000011c                : drv_IO_INT_ADC.obj (.IO_DRIVER_CODE:IO_INT_ADC_Init)
                  000b55bc    00000004     --HOLE-- [fill = 00000000]
                  000b55c0    00000634                : drv_IO_INT_PWM.obj (.IO_DRIVER_CODE:IO_INT_PWM_GPIO_Init)
                  000b5bf4    0000000c     --HOLE-- [fill = 00000000]
                  000b5c00    000001bc                : drv_IO_INT_PWM.obj (.IO_DRIVER_CODE:IO_INT_PWM_SSW_Init)
                  000b5dbc    00000004     --HOLE-- [fill = 00000000]
                  000b5dc0    00000248                : drv_IO_INT_PWM.obj (.IO_DRIVER_CODE:IO_INT_PWM_Timer_Init)
                  000b6008    00000008     --HOLE-- [fill = 00000000]
                  000b6010    00000098                : drv_IO_PWM.obj (.IO_DRIVER_CODE:IO_PWM_StatusInit)
                  000b60a8    00000008     --HOLE-- [fill = 00000000]
                  000b60b0    00000118                : drv_IO_INT_PWM.obj (.IO_DRIVER_CODE:IO_INT_PWM_Init)
                  000b61c8    00000008     --HOLE-- [fill = 00000000]
                  000b61d0    00000074                : drv_IO_PWD.obj (.IO_DRIVER_CODE:IO_PWD_StatusInit)
                  000b6244    0000000c     --HOLE-- [fill = 00000000]
                  000b6250    000000a0                : drv_IO_INT_PWD.obj (.IO_DRIVER_CODE:IO_INT_PWD_Init)
                  000b62f0    0000012c                : drv_IO_Driver.obj (.IO_DRIVER_CODE:IO_Driver_NHET_InitStart)
                  000b641c    00000004     --HOLE-- [fill = 00000000]
                  000b6420    0000005c                : drv_IO_INT_ADC.obj (.IO_DRIVER_CODE:IO_INT_ADC_MuxEnable)
                  000b647c    00000004     --HOLE-- [fill = 00000000]
                  000b6480    00000044                : drv_IO_Driver.obj (.IO_DRIVER_CODE:IO_Driver_NHET_InitEnd)
                  000b64c4    0000000c     --HOLE-- [fill = 00000000]
                  000b64d0    00000078                : drv_IO_Driver.obj (.IO_DRIVER_CODE:IO_Driver_SHIFT_InitEnd)
                  000b6548    00000008     --HOLE-- [fill = 00000000]
                  000b6550    00000034                : drv_IO_INT_SPI.obj (.IO_DRIVER_CODE:IO_INT_SPI_GetInitStatus)
                  000b6584    0000000c     --HOLE-- [fill = 00000000]
                  000b6590    00000080                : drv_IO_INT_WD.obj (.IO_DRIVER_CODE:IO_INT_WD_TPS_CommInit)
                  000b6610    00000354                : drv_IO_INT_WD.obj (.IO_DRIVER_CODE:IO_INT_WD_DWWD_Init)
                  000b6964    0000000c     --HOLE-- [fill = 00000000]
                  000b6970    000000c4                : drv_IO_INT_WD.obj (.IO_DRIVER_CODE:IO_INT_WD_TPS_GetStatusSync)
                  000b6a34    0000000c     --HOLE-- [fill = 00000000]
                  000b6a40    000002c4                : drv_IO_INT_WD.obj (.IO_DRIVER_CODE:IO_INT_WD_TPS_Init)
                  000b6d04    0000000c     --HOLE-- [fill = 00000000]
                  000b6d10    0000007c                : drv_IO_INT_WD.obj (.IO_DRIVER_CODE:IO_INT_WD_Init)
                  000b6d8c    00000004     --HOLE-- [fill = 00000000]
                  000b6d90    00000010                : drv_IO_INT_WD.obj (.IO_DRIVER_CODE:IO_INT_WD_DWWD_IsInitialized)
                  000b6da0    00000084                : drv_DIAG_INT_States.obj (.IO_DRIVER_CODE:DIAG_WDInit)
                  000b6e24    0000000c     --HOLE-- [fill = 00000000]
                  000b6e30    000001a4                : drv_DIAG_INT_Core.obj (.IO_DRIVER_CODE:DIAG_INT_TPS_Triggering)
                  000b6fd4    0000000c     --HOLE-- [fill = 00000000]
                  000b6fe0    00000038                : drv_IO_INT_WD.obj (.IO_DRIVER_CODE:IO_INT_WD_TPS_Trigger)
                  000b7018    00000008     --HOLE-- [fill = 00000000]
                  000b7020    000001f4                : drv_IO_INT_WD.obj (.IO_DRIVER_CODE:IO_INT_WD_TPS_Activate)
                  000b7214    0000000c     --HOLE-- [fill = 00000000]
                  000b7220    00000098                : drv_IO_INT_WD.obj (.IO_DRIVER_CODE:IO_INT_WD_TPS_TaskStart)
                  000b72b8    00000008     --HOLE-- [fill = 00000000]
                  000b72c0    00000204                : drv_IO_INT_RTC.obj (.IO_DRIVER_CODE:IO_INT_RTC_SetupCompInt)
                  000b74c4    0000000c     --HOLE-- [fill = 00000000]
                  000b74d0    000000b0                : drv_DIAG_INT_Core.obj (.IO_DRIVER_CODE:DIAG_INT_ActivateMonTaskTPS)
                  000b7580    00000030                : drv_IO_INT_WD.obj (.IO_DRIVER_CODE:IO_INT_WD_TPS_IsActive)
                  000b75b0    00000180                : drv_DIAG_INT_Core.obj (.IO_DRIVER_CODE:DIAG_INT_DoErrorPinTest)
                  000b7730    00000154                : drv_DIAG_INT_Core.obj (.IO_DRIVER_CODE:DIAG_INT_TPSErrorPinTest)
                  000b7884    0000000c     --HOLE-- [fill = 00000000]
                  000b7890    00000080                : drv_IO_INT_WD.obj (.IO_DRIVER_CODE:IO_INT_WD_TPS_EnableDriver)
                  000b7910    0000004c                : drv_IO_INT_WD.obj (.IO_DRIVER_CODE:IO_INT_WD_TPS_StopTriggering)
                  000b795c    00000004     --HOLE-- [fill = 00000000]
                  000b7960    000000c0                : drv_DIAG_INT_Core.obj (.IO_DRIVER_CODE:DIAG_INT_MonitoringTaskTPSHandler)
                  000b7a20    00000010                : drv_IO_INT_ESM.obj (.IO_DRIVER_CODE:IO_INT_ESM_GetCallbackHighCnt)
                  000b7a30    00000010                : drv_IO_INT_ESM.obj (.IO_DRIVER_CODE:IO_INT_ESM_GetCallbackLowCnt)
                  000b7a40    000000c4                : drv_IO_INT_ESM.obj (.IO_DRIVER_CODE:IO_INT_ESM_CheckEsmStatus)
                  000b7b04    0000000c     --HOLE-- [fill = 00000000]
                  000b7b10    00000048                : drv_IO_Driver.obj (.IO_DRIVER_CODE:IO_Driver_VEC_ConfigRuntime)
                  000b7b58    00000008     --HOLE-- [fill = 00000000]
                  000b7b60    0000027c                : drv_IO_Driver.obj (.IO_DRIVER_CODE:IO_Driver_Init)
                  000b7ddc    00000004     --HOLE-- [fill = 00000000]
                  000b7de0    00000080                : drv_IO_Driver.obj (.IO_DRIVER_CODE:IO_Driver_SetFPUHandler)
                  000b7e60    00000040                : drv_IO_CAN.obj (.IO_DRIVER_CODE:IO_CAN_FPGA_GetChConfig)
                  000b7ea0    000003e4                : drv_IO_CAN.obj (.IO_DRIVER_CODE:IO_CAN_Init)
                  000b8284    0000000c     --HOLE-- [fill = 00000000]
                  000b8290    00000054                : drv_IO_CAN.obj (.IO_DRIVER_CODE:IO_CAN_CheckIdParm)
                  000b82e4    0000000c     --HOLE-- [fill = 00000000]
                  000b82f0    00000118                : drv_IO_CAN.obj (.IO_DRIVER_CODE:IO_CAN_GetNewMailbox)
                  000b8408    00000008     --HOLE-- [fill = 00000000]
                  000b8410    00000048                : drv_IO_CAN.obj (.IO_DRIVER_CODE:IO_CAN_GetNewHandle)
                  000b8458    00000008     --HOLE-- [fill = 00000000]
                  000b8460    000000c0                : drv_IO_CAN.obj (.IO_DRIVER_CODE:IO_CAN_FPGA_CreateRxAccMask)
                  000b8520    00000024                : drv_IO_CAN.obj (.IO_DRIVER_CODE:IO_CAN_CalcIdFormat)
                  000b8544    0000000c     --HOLE-- [fill = 00000000]
                  000b8550    000003dc                : drv_IO_CAN.obj (.IO_DRIVER_CODE:IO_CAN_ConfigMsgInt)
                  000b892c    00000004     --HOLE-- [fill = 00000000]
                  000b8930    00000030                : drv_IO_CAN.obj (.IO_DRIVER_CODE:IO_CAN_ConfigMsg)
                  000b8960    00000040                : drv_IO_RTC.obj (.IO_DRIVER_CODE:IO_RTC_StartTime)
                  000b89a0    00000080                : drv_IO_Driver.obj (.IO_DRIVER_CODE:IO_INT_Driver_TaskBegin)
                  000b8a20    00000024                : drv_IO_INT_WD.obj (.IO_DRIVER_CODE:IO_INT_WD_DWWD_Activate)
                  000b8a44    0000000c     --HOLE-- [fill = 00000000]
                  000b8a50    00000038                : drv_IO_INT_WD.obj (.IO_DRIVER_CODE:IO_INT_WD_DWWD_Trigger)
                  000b8a88    00000008     --HOLE-- [fill = 00000000]
                  000b8a90    0000015c                : drv_IO_INT_WD.obj (.IO_DRIVER_CODE:IO_INT_WD_DWWD_Task)
                  000b8bec    00000004     --HOLE-- [fill = 00000000]
                  000b8bf0    00000030                : drv_IO_Driver.obj (.IO_DRIVER_CODE:IO_Driver_TaskBegin)
                  000b8c20    00000044                : drv_IO_CAN.obj (.IO_DRIVER_CODE:IO_CAN_FPGA_GetRxComplete)
                  000b8c64    0000000c     --HOLE-- [fill = 00000000]
                  000b8c70    00000044                : drv_IO_CAN.obj (.IO_DRIVER_CODE:IO_CAN_FPGA_GetRxLost)
                  000b8cb4    0000000c     --HOLE-- [fill = 00000000]
                  000b8cc0    0000003c                : drv_IO_CAN.obj (.IO_DRIVER_CODE:IO_CAN_FPGA_GetTxStat)
                  000b8cfc    00000004     --HOLE-- [fill = 00000000]
                  000b8d00    000001f0                : drv_IO_CAN.obj (.IO_DRIVER_CODE:IO_CAN_MsgStatus)
                  000b8ef0    000000c4                : drv_IO_CAN.obj (.IO_DRIVER_CODE:IO_CAN_ConvertIO2FPGADataFrame)
                  000b8fb4    0000000c     --HOLE-- [fill = 00000000]
                  000b8fc0    00000054                : drv_IO_CAN.obj (.IO_DRIVER_CODE:IO_CAN_ConvertIO2CsmDataFrame)
                  000b9014    0000000c     --HOLE-- [fill = 00000000]
                  000b9020    000001fc                : drv_IO_CAN.obj (.IO_DRIVER_CODE:IO_CAN_WriteMsg)
                  000b921c    00000004     --HOLE-- [fill = 00000000]
                  000b9220    00000154                : drv_IO_INT_RTC.obj (.IO_DRIVER_CODE:IO_INT_RTC_ReadBackCfg)
                  000b9374    0000000c     --HOLE-- [fill = 00000000]
                  000b9380    000000a8                : drv_DIAG_INT_Core.obj (.IO_DRIVER_CODE:DIAG_INT_CoreTaskB)
                  000b9428    00000008     --HOLE-- [fill = 00000000]
                  000b9430    000000f4                : drv_DIAG_INT_SSW_Check.obj (.IO_DRIVER_CODE:DIAG_SSW_Drop_Check)
                  000b9524    0000000c     --HOLE-- [fill = 00000000]
                  000b9530    00000068                : drv_IO_ADC.obj (.IO_DRIVER_CODE:IO_ADC_ReadValue)
                  000b9598    00000008     --HOLE-- [fill = 00000000]
                  000b95a0    00000090                : drv_IO_DIO.obj (.IO_DRIVER_CODE:IO_DO_CheckOutputState)
                  000b9630    00000024                : drv_IO_ADC.obj (.IO_DRIVER_CODE:IO_ADC_Read2V5RefSum)
                  000b9654    0000000c     --HOLE-- [fill = 00000000]
                  000b9660    00000178                : drv_IO_DIO.obj (.IO_DRIVER_CODE:IO_DO_GetVoltage_Int)
                  000b97d8    00000008     --HOLE-- [fill = 00000000]
                  000b97e0    00000244                : drv_DIAG_INT_SSW_Check.obj (.IO_DRIVER_CODE:DIAG_SSW_VPGate_Check)
                  000b9a24    0000000c     --HOLE-- [fill = 00000000]
                  000b9a30    00000124                : drv_DIAG_INT_SSW_Check.obj (.IO_DRIVER_CODE:DIAG_SSW_ExtShutOff_Check)
                  000b9b54    0000000c     --HOLE-- [fill = 00000000]
                  000b9b60    00000048                : drv_DIAG_INT_VMON_Check.obj (.IO_DRIVER_CODE:DIAG_VMON_Check)
                  000b9ba8    00000008     --HOLE-- [fill = 00000000]
                  000b9bb0    000001b4                : drv_DIAG_INT_ADC_Check.obj (.IO_DRIVER_CODE:DIAG_ADC_3ModeSwitchPeriodicCheck)
                  000b9d64    0000000c     --HOLE-- [fill = 00000000]
                  000b9d70    0000004c                : drv_IO_INT_SHIFT.obj (.IO_DRIVER_CODE:IO_INT_SHIFT_Read)
                  000b9dbc    00000004     --HOLE-- [fill = 00000000]
                  000b9dc0    000003c4                : drv_DIAG_INT_ADC_Check.obj (.IO_DRIVER_CODE:DIAG_ADC_ShiftRegisterConfigurationCheck)
                  000ba184    0000000c     --HOLE-- [fill = 00000000]
                  000ba190    00000180                : drv_DIAG_INT_ADC_Check.obj (.IO_DRIVER_CODE:DIAG_ADC_RangeCheck)
                  000ba310    00000038                : drv_DIAG_INT_ADC_Check.obj (.IO_DRIVER_CODE:DIAG_ADC_2V5Ref_Check)
                  000ba348    00000008     --HOLE-- [fill = 00000000]
                  000ba350    00000038                : drv_DIAG_INT_ADC_Check.obj (.IO_DRIVER_CODE:DIAG_ADC_1V2_Check)
                  000ba388    00000008     --HOLE-- [fill = 00000000]
                  000ba390    00000034                : drv_DIAG_INT_ADC_Check.obj (.IO_DRIVER_CODE:DIAG_ADC_Battery_Check)
                  000ba3c4    0000000c     --HOLE-- [fill = 00000000]
                  000ba3d0    00000038                : drv_DIAG_INT_ADC_Check.obj (.IO_DRIVER_CODE:DIAG_ADC_BoardTemp_Check)
                  000ba408    00000008     --HOLE-- [fill = 00000000]
                  000ba410    00000090                : drv_DIAG_INT_ADC_Check.obj (.IO_DRIVER_CODE:DIAG_ADC_SSup5V_Check)
                  000ba4a0    00000170                : drv_DIAG_INT_DIO_Check.obj (.IO_DRIVER_CODE:DIAG_DIO_OutputCheck)
                  000ba610    000001d8                : drv_DIAG_INT_PWM_Check.obj (.IO_DRIVER_CODE:DIAG_PWM_OutputCheck)
                  000ba7e8    00000008     --HOLE-- [fill = 00000000]
                  000ba7f0    0000013c                : drv_DIAG_INT_PWM_Check.obj (.IO_DRIVER_CODE:DIAG_PWM_CurrentCheck)
                  000ba92c    00000004     --HOLE-- [fill = 00000000]
                  000ba930    000001d4                : drv_DIAG_INT_PWD_Check.obj (.IO_DRIVER_CODE:DIAG_PWD_RangeCheck)
                  000bab04    0000000c     --HOLE-- [fill = 00000000]
                  000bab10    000000dc                : drv_DIAG_INT_PWD_Check.obj (.IO_DRIVER_CODE:DIAG_PWD_CurrentCheck)
                  000babec    00000004     --HOLE-- [fill = 00000000]
                  000babf0    00000034                : drv_DIAG_INT_PWD_Check.obj (.IO_DRIVER_CODE:DIAG_PWD_ThresholdCheck)
                  000bac24    0000000c     --HOLE-- [fill = 00000000]
                  000bac30    0000012c                : drv_DIAG_INT_Core.obj (.IO_DRIVER_CODE:DIAG_INT_CoreTaskA)
                  000bad5c    00000004     --HOLE-- [fill = 00000000]
                  000bad60    00000038                : drv_DIAG_INT_States.obj (.IO_DRIVER_CODE:DIAG_ActivateSafeState)
                  000bad98    00000008     --HOLE-- [fill = 00000000]
                  000bada0    00000198                : drv_DIAG_INT_States.obj (.IO_DRIVER_CODE:DIAG_StateMain)
                  000baf38    00000008     --HOLE-- [fill = 00000000]
                  000baf40    00000020                : drv_DIAG_INT_States.obj (.IO_DRIVER_CODE:DIAG_Task_Appl)
                  000baf60    00000030                : drv_IO_Driver.obj (.IO_DRIVER_CODE:IO_Driver_TaskEnd)
                  000baf90    0000002c                : drv_IO_RTC.obj (.IO_DRIVER_CODE:IO_RTC_GetTimeUS)
                  000bafbc    00000004     --HOLE-- [fill = 00000000]
                  000bafc0    00000074     bsp.lib : bsp_sys_startup.obj (.IO_DRIVER_CODE:_c_int00)
                  000bb034    0000002c     ttc500.lib : drv_asm_IO_INT_MPU_ASM.obj (.IO_DRIVER_CODE:_mpuReadState_)
                  000bb060    00000038                : drv_asm_IO_INT_MPU_ASM.obj (.IO_DRIVER_CODE:_mpuWriteState_)
                  000bb098    00000008     --HOLE-- [fill = 00000000]
                  000bb0a0    00000060                : drv_IO_INT_MPU.obj (.IO_DRIVER_CODE:IO_INT_MPU_InternalCodeBegin)
                  000bb100    00000004     bsp.lib : bsp_sys_startup.obj (.IO_DRIVER_CODE:crossover_interrupt)
                  000bb104    00000038     ttc500.lib : drv_asm_IO_INT_MPU_ASM.obj (.IO_DRIVER_CODE:_mpuWriteStateDescend_)
                  000bb13c    00000004     --HOLE-- [fill = 00000000]
                  000bb140    0000001c                : drv_IO_INT_MPU.obj (.IO_DRIVER_CODE:IO_INT_MPU_InternalCodeEnd)
                  000bb15c    0000005c                : drv_asm_IO_INT_ESM_ASM.obj (.IO_DRIVER_CODE:IO_INT_ESM_HL_ISR)
                  000bb1b8    00000008     --HOLE-- [fill = 00000000]
                  000bb1c0    00000020                : drv_IO_INT_ESM.obj (.IO_DRIVER_CODE:IO_INT_ESM_LL_interrupt)
                  000bb1e0    0000006c                : drv_IO_INT_ESM.obj (.IO_DRIVER_CODE:IO_INT_ESM_LL_ISR)
                  000bb24c    00000004     --HOLE-- [fill = 00000000]
                  000bb250    00000068                : drv_IO_INT_PWM.obj (.IO_DRIVER_CODE:IO_INT_PWM_GPIO_GetDuty)
                  000bb2b8    00000008     --HOLE-- [fill = 00000000]
                  000bb2c0    000000d0                : drv_IO_PWM.obj (.IO_DRIVER_CODE:IO_PWM_ReadDuty)
                  000bb390    0000039c                : drv_IO_PWM.obj (.IO_DRIVER_CODE:IO_PWM_ReadFeedback)
                  000bb72c    00000004     --HOLE-- [fill = 00000000]
                  000bb730    00000040                : drv_IO_INT_PWD.obj (.IO_DRIVER_CODE:IO_INT_PWD_GetFPGALrPWM)
                  000bb770    00000040                : drv_IO_INT_PWD.obj (.IO_DRIVER_CODE:IO_INT_PWD_GetFPGAHrPWM)
                  000bb7b0    00000080                : drv_IO_PWM.obj (.IO_DRIVER_CODE:IO_PWM_ReadPinLevel)
                  000bb830    00000234                : drv_DIAG_INT_PWM_Check.obj (.IO_DRIVER_CODE:DIAG_PWM_ShortCircuitTestPerform)
                  000bba64    0000000c     --HOLE-- [fill = 00000000]
                  000bba70    000002c4                : drv_DIAG_INT_VMON_Check.obj (.IO_DRIVER_CODE:DIAG_VMON_TestPerform)
                  000bbd34    0000000c     --HOLE-- [fill = 00000000]
                  000bbd40    00000030                : drv_IO_PWM.obj (.IO_DRIVER_CODE:IO_PWM_Startup)
                  000bbd70    00000200                : drv_IO_PWM.obj (.IO_DRIVER_CODE:IO_PWM_N2HETx_interrupt)
                  000bbf70    0000004c                : drv_asm_IO_PWM_ASM.obj (.IO_DRIVER_CODE:IO_PWM_N2HETx_ISR)
                  000bbfbc    00000004     --HOLE-- [fill = 00000000]
                  000bbfc0    00000b38                : drv_DIAG_INT_ENTR_Check.obj (.IO_DRIVER_CODE:DIAG_ENTR_TestPerform)
                  000bcaf8    00000008     --HOLE-- [fill = 00000000]
                  000bcb00    000005dc                : drv_DIAG_INT_DIO_Check.obj (.IO_DRIVER_CODE:DIAG_DIO_TestPattern_HS)
                  000bd0dc    00000004     --HOLE-- [fill = 00000000]
                  000bd0e0    0000036c                : drv_DIAG_INT_DIO_Check.obj (.IO_DRIVER_CODE:DIAG_DIO_TestPattern_PVG)
                  000bd44c    00000004     --HOLE-- [fill = 00000000]
                  000bd450    00000a74                : drv_DIAG_INT_DIO_Check.obj (.IO_DRIVER_CODE:DIAG_DIO_TestPattern_LS)
                  000bdec4    0000000c     --HOLE-- [fill = 00000000]
                  000bded0    00000108                : drv_DIAG_INT_DIO_Check.obj (.IO_DRIVER_CODE:DIAG_DIO_ShortCircuitTestPerform)
                  000bdfd8    00000008     --HOLE-- [fill = 00000000]
                  000bdfe0    00000238                : drv_DIAG_INT_ADC_Check.obj (.IO_DRIVER_CODE:DIAG_ADC_2ModeConfTestPerform)
                  000be218    00000008     --HOLE-- [fill = 00000000]
                  000be220    00000730                : drv_DIAG_INT_ADC_Check.obj (.IO_DRIVER_CODE:DIAG_ADC_3ModeSwitchTestPerform)
                  000be950    00000300                : drv_DIAG_INT_SSW_Check.obj (.IO_DRIVER_CODE:DIAG_SSW_TestPerform)
                  000bec50    00000068                : drv_IO_ADC.obj (.IO_DRIVER_CODE:IO_ADC_QueueSlow)
                  000becb8    00000008     --HOLE-- [fill = 00000000]
                  000becc0    00000038                : drv_IO_ADC.obj (.IO_DRIVER_CODE:IO_ADC_QueueFast)
                  000becf8    00000008     --HOLE-- [fill = 00000000]
                  000bed00    00000070                : drv_IO_ADC.obj (.IO_DRIVER_CODE:IO_ADC_N2HET2_interrupt)
                  000bed70    0000006c                : drv_IO_ADC.obj (.IO_DRIVER_CODE:IO_ADC_N2HET2_ISR)
                  000beddc    00000004     --HOLE-- [fill = 00000000]
                  000bede0    00000030                : drv_IO_INT_ADC.obj (.IO_DRIVER_CODE:IO_INT_ADC_Enqueue)
                  000bee10    00000134                : drv_IO_PWM.obj (.IO_DRIVER_CODE:IO_PWM_CurrentCalc)
                  000bef44    0000000c     --HOLE-- [fill = 00000000]
                  000bef50    000000a0                : drv_IO_DIO.obj (.IO_DRIVER_CODE:IO_DO_CheckCurrent)
                  000beff0    00000054                : drv_IO_INT_UART.obj (.IO_DRIVER_CODE:IO_INT_UART_StopTxDMA)
                  000bf044    0000000c     --HOLE-- [fill = 00000000]
                  000bf050    000000f4                : drv_IO_INT_UART.obj (.IO_DRIVER_CODE:IO_INT_UART_CircularBufferRead)
                  000bf144    0000000c     --HOLE-- [fill = 00000000]
                  000bf150    000000c8                : drv_IO_INT_UART.obj (.IO_DRIVER_CODE:IO_INT_UART_StartTxDMA)
                  000bf218    00000008     --HOLE-- [fill = 00000000]
                  000bf220    00000050                : drv_IO_INT_UART.obj (.IO_DRIVER_CODE:IO_INT_UART_TxDMAHandler)
                  000bf270    00000150                : drv_IO_INT_DMA.obj (.IO_DRIVER_CODE:IO_INT_DMA_BTCA_interrupt)
                  000bf3c0    0000006c                : drv_IO_INT_DMA.obj (.IO_DRIVER_CODE:IO_INT_DMA_BTCA_int)
                  000bf42c    00000004     --HOLE-- [fill = 00000000]
                  000bf430    000000a4                : drv_IO_ADC.obj (.IO_DRIVER_CODE:IO_ADC_Calc2V5RefSum)
                  000bf4d4    0000000c     --HOLE-- [fill = 00000000]
                  000bf4e0    000000dc                : drv_IO_ADC.obj (.IO_DRIVER_CODE:IO_ADC_CalcBatteryVoltage)
                  000bf5bc    00000004     --HOLE-- [fill = 00000000]
                  000bf5c0    0000006c                : drv_IO_INT_PVG_VOUT.obj (.IO_DRIVER_CODE:IO_INT_PVG_VOUT_WriteOutput)
                  000bf62c    00000004     --HOLE-- [fill = 00000000]
                  000bf630    00000054                : drv_IO_INT_PVG_VOUT.obj (.IO_DRIVER_CODE:IO_INT_PVG_VOUT_SetVoltage)
                  000bf684    0000000c     --HOLE-- [fill = 00000000]
                  000bf690    00000078                : drv_IO_INT_PVG_VOUT.obj (.IO_DRIVER_CODE:IO_INT_PVG_VOUT_ControlTask)
                  000bf708    00000008     --HOLE-- [fill = 00000000]
                  000bf710    00000090                : drv_IO_INT_WD.obj (.IO_DRIVER_CODE:IO_INT_WD_HardReset)
                  000bf7a0    000000dc                : drv_IO_POWER.obj (.IO_DRIVER_CODE:IO_POWER_ShutDown_Task)
                  000bf87c    00000004     --HOLE-- [fill = 00000000]
                  000bf880    00000254                : drv_IO_ADC.obj (.IO_DRIVER_CODE:IO_ADC_CalcBoardTemp)
                  000bfad4    0000000c     --HOLE-- [fill = 00000000]
                  000bfae0    00000094                : drv_IO_ADC.obj (.IO_DRIVER_CODE:IO_ADC_GetVPGate)
                  000bfb74    0000000c     --HOLE-- [fill = 00000000]
                  000bfb80    000000ac                : drv_IO_ADC.obj (.IO_DRIVER_CODE:IO_ADC_GetVP)
                  000bfc2c    00000004     --HOLE-- [fill = 00000000]
                  000bfc30    000000a8                : drv_IO_ADC.obj (.IO_DRIVER_CODE:IO_ADC_Get1V2Supply)
                  000bfcd8    00000008     --HOLE-- [fill = 00000000]
                  000bfce0    00000060                : drv_IO_ADC.obj (.IO_DRIVER_CODE:IO_ADC_Get2V5Supply)
                  000bfd40    0000011c                : drv_IO_ADC.obj (.IO_DRIVER_CODE:IO_ADC_GetSafetySwitch)
                  000bfe5c    00000004     --HOLE-- [fill = 00000000]
                  000bfe60    000001f4                : drv_IO_ADC.obj (.IO_DRIVER_CODE:IO_ADC_GetSensorSupply)
                  000c0054    0000000c     --HOLE-- [fill = 00000000]
                  000c0060    00000060                : drv_IO_ADC.obj (.IO_DRIVER_CODE:IO_ADC_GetTimerInThreshold)
                  000c00c0    00000054                : drv_IO_ADC.obj (.IO_DRIVER_CODE:IO_ADC_GetSSupMode)
                  000c0114    0000000c     --HOLE-- [fill = 00000000]
                  000c0120    00000210                : drv_IO_ADC.obj (.IO_DRIVER_CODE:IO_ADC_GetPVGType)
                  000c0330    00000210                : drv_IO_ADC.obj (.IO_DRIVER_CODE:IO_ADC_GetDOType)
                  000c0540    000001f4                : drv_IO_ADC.obj (.IO_DRIVER_CODE:IO_ADC_GetPWDType)
                  000c0734    0000000c     --HOLE-- [fill = 00000000]
                  000c0740    00000044                : drv_IO_ADC.obj (.IO_DRIVER_CODE:IO_ADC_SafetyStep2Mode)
                  000c0784    0000000c     --HOLE-- [fill = 00000000]
                  000c0790    00000434                : drv_IO_ADC.obj (.IO_DRIVER_CODE:IO_ADC_Get2ModeType_Int)
                  000c0bc4    0000000c     --HOLE-- [fill = 00000000]
                  000c0bd0    000000cc                : drv_IO_ADC.obj (.IO_DRIVER_CODE:IO_ADC_Get2ModeType)
                  000c0c9c    00000004     --HOLE-- [fill = 00000000]
                  000c0ca0    0000005c                : drv_IO_ADC.obj (.IO_DRIVER_CODE:IO_ADC_SafetyStep3Mode)
                  000c0cfc    00000004     --HOLE-- [fill = 00000000]
                  000c0d00    00000418                : drv_IO_ADC.obj (.IO_DRIVER_CODE:IO_ADC_Get3ModeType)
                  000c1118    00000008     --HOLE-- [fill = 00000000]
                  000c1120    00000268                : drv_IO_ADC.obj (.IO_DRIVER_CODE:IO_ADC_Get)
                  000c1388    00000008     --HOLE-- [fill = 00000000]
                  000c1390    00000100                : drv_IO_ADC.obj (.IO_DRIVER_CODE:IO_ADC_GetExtShutOff)
                  000c1490    00000030                : drv_IO_ADC.obj (.IO_DRIVER_CODE:IO_ADC_SystemTask)
                  000c14c0    0000014c                : drv_IO_INT_WD.obj (.IO_DRIVER_CODE:IO_INT_WD_TPS_TaskCyclic)
                  000c160c    00000004     --HOLE-- [fill = 00000000]
                  000c1610    00000010                : drv_IO_INT_MDIO.obj (.IO_DRIVER_CODE:IO_INT_MDIO_GetPhyLinkStatus)
                  000c1620    0000005c                : drv_IO_INT_MDIO.obj (.IO_DRIVER_CODE:IO_INT_MDIO_WaitForCompletion)
                  000c167c    00000004     --HOLE-- [fill = 00000000]
                  000c1680    0000007c                : drv_IO_INT_MDIO.obj (.IO_DRIVER_CODE:IO_INT_MDIO_ReadPhyReg)
                  000c16fc    00000004     --HOLE-- [fill = 00000000]
                  000c1700    000000cc                : drv_IO_INT_PHY_DP83848x.obj (.IO_DRIVER_CODE:IO_PHY_DP83848x_GetSpeed)
                  000c17cc    00000004     --HOLE-- [fill = 00000000]
                  000c17d0    00000034                : drv_IO_INT_EMAC.obj (.IO_DRIVER_CODE:IO_INT_EMAC_RMIISpeedSet)
                  000c1804    0000000c     --HOLE-- [fill = 00000000]
                  000c1810    00000034                : drv_IO_INT_EMAC.obj (.IO_DRIVER_CODE:IO_INT_EMAC_DuplexSet)
                  000c1844    0000000c     --HOLE-- [fill = 00000000]
                  000c1850    0000012c                : drv_IO_INT_ETH.obj (.IO_DRIVER_CODE:IO_INT_ETH_CheckLink)
                  000c197c    00000004     --HOLE-- [fill = 00000000]
                  000c1980    00000010                : drv_IO_INT_EMAC.obj (.IO_DRIVER_CODE:IO_INT_EMAC_RxCPWrite)
                  000c1990    00000010                : drv_IO_INT_EMAC.obj (.IO_DRIVER_CODE:IO_INT_EMAC_RxHdrDescPtrWrite)
                  000c19a0    00000010                : drv_IO_INT_EMAC.obj (.IO_DRIVER_CODE:IO_INT_EMAC_CoreIntAck)
                  000c19b0    000001fc                : drv_IO_INT_ETH.obj (.IO_DRIVER_CODE:IO_INT_ETH_ReadInternal)
                  000c1bac    00000004     --HOLE-- [fill = 00000000]
                  000c1bb0    000000a0                : drv_IO_INT_ETH.obj (.IO_DRIVER_CODE:IO_INT_ETH_Read)
                  000c1c50    0000007c                : drv_IO_INT_DOWNLOAD.obj (.IO_DRIVER_CODE:IO_INT_DOWNLOAD_FrameAllowed)
                  000c1ccc    00000004     --HOLE-- [fill = 00000000]
                  000c1cd0    00000180                : drv_IO_INT_DOWNLOAD.obj (.IO_DRIVER_CODE:IO_INT_DOWNLOAD_Crypt)
                  000c1e50    000000e0                : drv_IO_INT_UDP.obj (.IO_DRIVER_CODE:IO_INT_UDP_CalcIpChecksum)
                  000c1f30    00000130                : drv_IO_INT_UDP.obj (.IO_DRIVER_CODE:IO_INT_UDP_CalcUdpChecksum)
                  000c2060    00000188                : drv_IO_INT_DOWNLOAD.obj (.IO_DRIVER_CODE:IO_INT_DOWNLOAD_PrepareHeader)
                  000c21e8    00000008     --HOLE-- [fill = 00000000]
                  000c21f0    00000050                : drv_IO_INT_ETH.obj (.IO_DRIVER_CODE:IO_INT_ETH_GetWriteStatus)
                  000c2240    00000010                : drv_IO_INT_EMAC.obj (.IO_DRIVER_CODE:IO_INT_EMAC_TxCPWrite)
                  000c2250    000000c0                : drv_IO_INT_ETH.obj (.IO_DRIVER_CODE:IO_INT_ETH_TxHandler)
                  000c2310    00000010                : drv_IO_INT_EMAC.obj (.IO_DRIVER_CODE:IO_INT_EMAC_TxHdrDescPtrWrite)
                  000c2320    000001f8                : drv_IO_INT_ETH.obj (.IO_DRIVER_CODE:IO_INT_ETH_WriteInternal)
                  000c2518    00000008     --HOLE-- [fill = 00000000]
                  000c2520    000000c0                : drv_IO_INT_ETH.obj (.IO_DRIVER_CODE:IO_INT_ETH_Write)
                  000c25e0    00000030                : drv_IO_INT_DOWNLOAD.obj (.IO_DRIVER_CODE:IO_INT_DOWNLOAD_Send_UDP)
                  000c2610    0000016c                : drv_IO_INT_DOWNLOAD.obj (.IO_DRIVER_CODE:IO_INT_DOWNLOAD_Handshake)
                  000c277c    00000004     --HOLE-- [fill = 00000000]
                  000c2780    00000068                : drv_IO_INT_DOWNLOAD.obj (.IO_DRIVER_CODE:IO_INT_DOWNLOAD_SavePCData)
                  000c27e8    00000008     --HOLE-- [fill = 00000000]
                  000c27f0    000002c4                : drv_IO_INT_DOWNLOAD.obj (.IO_DRIVER_CODE:IO_INT_DOWNLOAD_Task)
                  000c2ab4    0000000c     --HOLE-- [fill = 00000000]
                  000c2ac0    000000b8                : drv_DIAG_INT_Core.obj (.IO_DRIVER_CODE:DIAG_INT_TPS_CheckTriggering)
                  000c2b78    00000008     --HOLE-- [fill = 00000000]
                  000c2b80    0000002c                : drv_IO_PWM.obj (.IO_DRIVER_CODE:IO_PWM_CalcDiodePowerLimit)
                  000c2bac    00000004     --HOLE-- [fill = 00000000]
                  000c2bb0    0000006c                : drv_IO_INT_ADC.obj (.IO_DRIVER_CODE:IO_INT_ADC_DequeueSingle)
                  000c2c1c    00000004     --HOLE-- [fill = 00000000]
                  000c2c20    000000c0                : drv_IO_PWM.obj (.IO_DRIVER_CODE:IO_PWM_CheckDOProtLimit)
                  000c2ce0    00000040                : drv_IO_PWM.obj (.IO_DRIVER_CODE:IO_PWM_CalcCurLimit)
                  000c2d20    00000054                : drv_IO_PWM.obj (.IO_DRIVER_CODE:IO_PWM_CalcDiodePowerDis)
                  000c2d74    0000000c     --HOLE-- [fill = 00000000]
                  000c2d80    000001e4                : drv_IO_PWM.obj (.IO_DRIVER_CODE:IO_PWM_CheckPWMProtLimit)
                  000c2f64    0000000c     --HOLE-- [fill = 00000000]
                  000c2f70    000000a4                : drv_IO_PWM.obj (.IO_DRIVER_CODE:IO_PWM_ProtectionTask_Int)
                  000c3014    0000000c     --HOLE-- [fill = 00000000]
                  000c3020    0000011c                : drv_IO_PWM.obj (.IO_DRIVER_CODE:IO_PWM_CalcPwmData)
                  000c313c    00000004     --HOLE-- [fill = 00000000]
                  000c3140    0000000c                : drv_IO_PWM.obj (.IO_DRIVER_CODE:IO_PWM_ConvertLrp)
                  000c314c    00000004     --HOLE-- [fill = 00000000]
                  000c3150    00000250                : drv_IO_INT_PWM.obj (.IO_DRIVER_CODE:IO_INT_PWM_GPIO_SetDuty_Internal)
                  000c33a0    00000110                : drv_IO_INT_PWM.obj (.IO_DRIVER_CODE:IO_INT_PWM_GPIO_SetPeriodAndDuty)
                  000c34b0    0000009c                : drv_IO_INT_PWM.obj (.IO_DRIVER_CODE:IO_INT_PWM_GPIO_SetDuty)
                  000c354c    00000004     --HOLE-- [fill = 00000000]
                  000c3550    00000100                : drv_IO_PWM.obj (.IO_DRIVER_CODE:IO_PWM_WriteOutput)
                  000c3650    00000064                : drv_IO_PWM.obj (.IO_DRIVER_CODE:IO_PWM_ForceOutputLow)
                  000c36b4    0000000c     --HOLE-- [fill = 00000000]
                  000c36c0    000000ec                : drv_IO_INT_PWM.obj (.IO_DRIVER_CODE:IO_INT_PWM_GPIO_ChEnable)
                  000c37ac    00000004     --HOLE-- [fill = 00000000]
                  000c37b0    000007bc                : drv_IO_PWM.obj (.IO_DRIVER_CODE:IO_PWM_ProtectionTask)
                  000c3f6c    00000004     --HOLE-- [fill = 00000000]
                  000c3f70    00000090                : drv_IO_INT_WD.obj (.IO_DRIVER_CODE:IO_INT_WD_TPS_TaskStatusSave)
                  000c4000    00000004                : drv_DIAG_INT_States.obj (.IO_DRIVER_CODE:DIAG_StateSafe)
                  000c4004    0000000c     --HOLE-- [fill = 00000000]
                  000c4010    000000dc                : drv_IO_INT_PWM.obj (.IO_DRIVER_CODE:IO_INT_PWM_Timer_Disable)
                  000c40ec    00000004     --HOLE-- [fill = 00000000]
                  000c40f0    00000084                : drv_IO_POWER.obj (.IO_DRIVER_CODE:IO_POWER_Restore)
                  000c4174    0000000c     --HOLE-- [fill = 00000000]
                  000c4180    0000001c                : drv_DIAG_INT_VMON_Check.obj (.IO_DRIVER_CODE:DIAG_VMON_TestCheck)
                  000c419c    00000004     --HOLE-- [fill = 00000000]
                  000c41a0    0000001c                : drv_DIAG_INT_ENTR_Check.obj (.IO_DRIVER_CODE:DIAG_ENTR_TestCheck)
                  000c41bc    00000004     --HOLE-- [fill = 00000000]
                  000c41c0    0000001c                : drv_DIAG_INT_ADC_Check.obj (.IO_DRIVER_CODE:DIAG_ADC_2ModeConfTestCheck)
                  000c41dc    00000004     --HOLE-- [fill = 00000000]
                  000c41e0    0000001c                : drv_DIAG_INT_ADC_Check.obj (.IO_DRIVER_CODE:DIAG_ADC_3ModeSwitchTestCheck)
                  000c41fc    00000004     --HOLE-- [fill = 00000000]
                  000c4200    0000001c                : drv_DIAG_INT_PWM_Check.obj (.IO_DRIVER_CODE:DIAG_PWM_ShortCircuitTestCheck)
                  000c421c    00000004     --HOLE-- [fill = 00000000]
                  000c4220    0000001c                : drv_DIAG_INT_DIO_Check.obj (.IO_DRIVER_CODE:DIAG_DIO_ShortCircuitTestCheck)
                  000c423c    00000004     --HOLE-- [fill = 00000000]
                  000c4240    0000001c                : drv_DIAG_INT_SSW_Check.obj (.IO_DRIVER_CODE:DIAG_SSW_TestCheck)
                  000c425c    00000004     --HOLE-- [fill = 00000000]
                  000c4260    00000110                : drv_DIAG_INT_PWM_Check.obj (.IO_DRIVER_CODE:DIAG_PWM_LoadCheck_OL)
                  000c4370    00000130                : drv_DIAG_INT_DIO_Check.obj (.IO_DRIVER_CODE:DIAG_DIO_LoadCheck)
                  000c44a0    000000d4                : drv_DIAG_INT_PWM_Check.obj (.IO_DRIVER_CODE:DIAG_PWM_LoadCheck_SC)
                  000c4574    0000000c     --HOLE-- [fill = 00000000]
                  000c4580    00000108                : drv_IO_INT_PWM.obj (.IO_DRIVER_CODE:IO_INT_PWM_Timer_Setup)
                  000c4688    00000008     --HOLE-- [fill = 00000000]
                  000c4690    000002d0                : drv_DIAG_INT_States.obj (.IO_DRIVER_CODE:DIAG_StateConfig)
                  000c4960    00000090                : drv_DIAG_INT_States.obj (.IO_DRIVER_CODE:DIAG_Task_Int)
                  000c49f0    00000048                : drv_IO_INT_WD.obj (.IO_DRIVER_CODE:IO_INT_WD_TPS_TaskStatusRequest)
                  000c4a38    00000008     --HOLE-- [fill = 00000000]
                  000c4a40    000000c8                : drv_IO_DIO.obj (.IO_DRIVER_CODE:IO_DO_CheckCurProtLimit)
                  000c4b08    00000008     --HOLE-- [fill = 00000000]
                  000c4b10    00000348                : drv_IO_DIO.obj (.IO_DRIVER_CODE:IO_DO_ProtectionTask)
                  000c4e58    00000008     --HOLE-- [fill = 00000000]
                  000c4e60    00000250                : drv_IO_PWD.obj (.IO_DRIVER_CODE:IO_PWD_ProtectionTask)
                  000c50b0    000001dc                : drv_IO_ADC.obj (.IO_DRIVER_CODE:IO_ADC_ProtectionTask)
                  000c528c    00000004     --HOLE-- [fill = 00000000]
                  000c5290    0000006c                : drv_IO_INT_PVG_VOUT.obj (.IO_DRIVER_CODE:IO_INT_PVG_VOUT_CheckVoltProtLimit)
                  000c52fc    00000004     --HOLE-- [fill = 00000000]
                  000c5300    000003a8                : drv_IO_INT_PVG_VOUT.obj (.IO_DRIVER_CODE:IO_INT_PVG_VOUT_ProtectionTask)
                  000c56a8    00000008     --HOLE-- [fill = 00000000]
                  000c56b0    00000010                : drv_IO_FLASH.obj (.IO_DRIVER_CODE:FlashRead)
                  000c56c0    0000006c                : drv_IO_FLASH.obj (.IO_DRIVER_CODE:IO_FLASH_CheckBusyStatus)
                  000c572c    00000004     --HOLE-- [fill = 00000000]
                  000c5730    00000010                : drv_IO_FLASH.obj (.IO_DRIVER_CODE:FlashWrite)
                  000c5740    0000000c                : drv_IO_FLASH.obj (.IO_DRIVER_CODE:IO_FLASH_IssueEraseResume)
                  000c574c    00000004     --HOLE-- [fill = 00000000]
                  000c5750    0000000c                : drv_IO_FLASH.obj (.IO_DRIVER_CODE:IO_FLASH_IssueEraseSuspend)
                  000c575c    00000004     --HOLE-- [fill = 00000000]
                  000c5760    00000120                : drv_IO_FLASH.obj (.IO_DRIVER_CODE:IO_FLASH_SuspendResumeTask)
                  000c5880    00000020                : drv_IO_FLASH.obj (.IO_DRIVER_CODE:IO_FLASH_Read_CalculateStopAddress)
                  000c58a0    00000288                : drv_IO_FLASH.obj (.IO_DRIVER_CODE:IO_FLASH_ProcessRead)
                  000c5b28    00000008     --HOLE-- [fill = 00000000]
                  000c5b30    00000030                : drv_IO_FLASH.obj (.IO_DRIVER_CODE:IO_FLASH_IssueReset)
                  000c5b60    0000008c                : drv_IO_FLASH.obj (.IO_DRIVER_CODE:IO_FLASH_ReadTask)
                  000c5bec    00000004     --HOLE-- [fill = 00000000]
                  000c5bf0    00000060                : drv_IO_FLASH.obj (.IO_DRIVER_CODE:IO_FLASH_CheckWriteStatus)
                  000c5c50    00000024                : drv_IO_FLASH.obj (.IO_DRIVER_CODE:IO_FLASH_Write_CalculateStopAddress)
                  000c5c74    0000000c     --HOLE-- [fill = 00000000]
                  000c5c80    0000003c                : drv_IO_FLASH.obj (.IO_DRIVER_CODE:IO_FLASH_IssueWriteToBuffer)
                  000c5cbc    00000004     --HOLE-- [fill = 00000000]
                  000c5cc0    00000028                : drv_IO_FLASH.obj (.IO_DRIVER_CODE:IO_FLASH_IssueBufferProgramConfirm)
                  000c5ce8    00000008     --HOLE-- [fill = 00000000]
                  000c5cf0    00000158                : drv_IO_FLASH.obj (.IO_DRIVER_CODE:IO_FLASH_ProcessWrite)
                  000c5e48    00000008     --HOLE-- [fill = 00000000]
                  000c5e50    00000248                : drv_IO_FLASH.obj (.IO_DRIVER_CODE:IO_FLASH_ProcessBlankCheck)
                  000c6098    00000008     --HOLE-- [fill = 00000000]
                  000c60a0    0000016c                : drv_IO_FLASH.obj (.IO_DRIVER_CODE:IO_FLASH_WriteTask)
                  000c620c    00000004     --HOLE-- [fill = 00000000]
                  000c6210    00000050                : drv_IO_FLASH.obj (.IO_DRIVER_CODE:IO_FLASH_IssueChipErase)
                  000c6260    00000038                : drv_IO_FLASH.obj (.IO_DRIVER_CODE:IO_FLASH_CheckEraseStatus)
                  000c6298    00000008     --HOLE-- [fill = 00000000]
                  000c62a0    00000138                : drv_IO_FLASH.obj (.IO_DRIVER_CODE:IO_FLASH_ChipEraseTask)
                  000c63d8    00000008     --HOLE-- [fill = 00000000]
                  000c63e0    00000054                : drv_IO_FLASH.obj (.IO_DRIVER_CODE:IO_FLASH_IssueBlockErase)
                  000c6434    0000000c     --HOLE-- [fill = 00000000]
                  000c6440    00000174                : drv_IO_FLASH.obj (.IO_DRIVER_CODE:IO_FLASH_BlockEraseTask)
                  000c65b4    0000000c     --HOLE-- [fill = 00000000]
                  000c65c0    000000c0                : drv_IO_FLASH.obj (.IO_DRIVER_CODE:IO_FLASH_InitVariables)
                  000c6680    000000c4                : drv_IO_FLASH.obj (.IO_DRIVER_CODE:IO_FLASH_Task)
                  000c6744    0000000c     --HOLE-- [fill = 00000000]
                  000c6750    000000b4                : drv_IO_INT_LIN.obj (.IO_DRIVER_CODE:IO_INT_LIN_Task_RxComp)
                  000c6804    0000000c     --HOLE-- [fill = 00000000]
                  000c6810    00000044                : drv_IO_INT_LIN.obj (.IO_DRIVER_CODE:IO_INT_LIN_SoftwareReset)
                  000c6854    0000000c     --HOLE-- [fill = 00000000]
                  000c6860    00000078                : drv_IO_INT_LIN.obj (.IO_DRIVER_CODE:IO_INT_LIN_TimeoutDetection)
                  000c68d8    00000008     --HOLE-- [fill = 00000000]
                  000c68e0    00000134                : drv_IO_INT_LIN.obj (.IO_DRIVER_CODE:IO_INT_LIN_Task)
                  000c6a14    0000000c     --HOLE-- [fill = 00000000]
                  000c6a20    0000016c                : drv_IO_INT_SPI.obj (.IO_DRIVER_CODE:IO_INT_SPI_Async_Read)
                  000c6b8c    00000004     --HOLE-- [fill = 00000000]
                  000c6b90    00000098                : drv_IO_INT_SPI.obj (.IO_DRIVER_CODE:IO_INT_SPI_Async_Rx_Task)
                  000c6c28    00000008     --HOLE-- [fill = 00000000]
                  000c6c30    00000050                : drv_IO_INT_SPI.obj (.IO_DRIVER_CODE:IO_INT_SPI_Async_ReceptionCompleted)
                  000c6c80    0000004c                : drv_IO_INT_SPI.obj (.IO_DRIVER_CODE:IO_INT_SPI_Async_TransferCompleted)
                  000c6ccc    00000004     --HOLE-- [fill = 00000000]
                  000c6cd0    000000fc                : drv_IO_INT_SPI.obj (.IO_DRIVER_CODE:IO_INT_SPI_Clear_Buffers)
                  000c6dcc    00000004     --HOLE-- [fill = 00000000]
                  000c6dd0    00000030                : drv_IO_EEPROM.obj (.IO_DRIVER_CODE:IO_EEPROM_WriteCmd)
                  000c6e00    00000058                : drv_IO_EEPROM.obj (.IO_DRIVER_CODE:IO_EEPROM_ReadCmdResponse)
                  000c6e58    00000008     --HOLE-- [fill = 00000000]
                  000c6e60    00000070                : drv_IO_INT_SPI.obj (.IO_DRIVER_CODE:IO_INT_SPI_SetBufferSize)
                  000c6ed0    00000270                : drv_IO_EEPROM.obj (.IO_DRIVER_CODE:IO_EEPROM_ReadTask)
                  000c7140    000002b0                : drv_IO_EEPROM.obj (.IO_DRIVER_CODE:IO_EEPROM_WriteTask)
                  000c73f0    00000064                : drv_IO_EEPROM.obj (.IO_DRIVER_CODE:IO_EEPROM_Task)
                  000c7454    0000000c     --HOLE-- [fill = 00000000]
                  000c7460    00000358                : drv_IO_INT_RTC.obj (.IO_DRIVER_CODE:IO_INT_RTC_DateAndTimeTask)
                  000c77b8    00000008     --HOLE-- [fill = 00000000]
                  000c77c0    00000084                : drv_IO_INT_SPI.obj (.IO_DRIVER_CODE:IO_INT_SPI_Async_Tx_Task)
                  000c7844    0000000c     --HOLE-- [fill = 00000000]
                  000c7850    00000150                : drv_IO_INT_RTC.obj (.IO_DRIVER_CODE:IO_INT_RTC_Comp0_interrupt)
                  000c79a0    0000006c                : drv_IO_INT_RTC.obj (.IO_DRIVER_CODE:IO_INT_RTC_Comp0_int)
                  000c7a0c    00000004     --HOLE-- [fill = 00000000]
                  000c7a10    00000084                : drv_IO_INT_UART.obj (.IO_DRIVER_CODE:IO_INT_UART_interrupt)
                  000c7a94    0000000c     --HOLE-- [fill = 00000000]
                  000c7aa0    0000006c                : drv_IO_INT_UART.obj (.IO_DRIVER_CODE:IO_INT_UART_int)
                  000c7b0c    00000004     --HOLE-- [fill = 00000000]
                  000c7b10    000000f4                : drv_IO_INT_UART.obj (.IO_DRIVER_CODE:IO_INT_UART_CircularBufferWrite)
                  000c7c04    0000000c     --HOLE-- [fill = 00000000]
                  000c7c10    000001a0                : drv_IO_INT_UART.obj (.IO_DRIVER_CODE:IO_INT_UART_RxDMAHandler)
                  000c7db0    0000006c                : drv_IO_INT_DMA.obj (.IO_DRIVER_CODE:IO_INT_DMA_HBCA_interrupt)
                  000c7e1c    00000004     --HOLE-- [fill = 00000000]
                  000c7e20    0000006c                : drv_IO_INT_DMA.obj (.IO_DRIVER_CODE:IO_INT_DMA_HBCA_int)
                  000c7e8c    00000004     --HOLE-- [fill = 00000000]
                  000c7e90    0000005c                : drv_IO_Driver.obj (.IO_DRIVER_CODE:IO_Driver_FPU_InterruptHandler)
                  000c7eec    00000004     --HOLE-- [fill = 00000000]
                  000c7ef0    0000006c                : drv_IO_INT_RTC.obj (.IO_DRIVER_CODE:IO_INT_RTC_Comp1_int)
                  000c7f5c    00000004     --HOLE-- [fill = 00000000]
                  000c7f60    00000064                : drv_csm_vim_cfg.obj (.IO_DRIVER_CODE:Csm_Vim_PhantomInterruptCallback)
                  000c7fc4    0000000c     --HOLE-- [fill = 00000000]
                  000c7fd0    00000058                : drv_IO_INT_ESM.obj (.IO_DRIVER_CODE:IO_INT_ESM_GetDeviceNumber)
                  000c8028    00000008     --HOLE-- [fill = 00000000]
                  000c8030    000000c4                : drv_IO_INT_ESM.obj (.IO_DRIVER_CODE:IO_INT_ESM_ErrorCallbackLow)
                  000c80f4    0000000c     --HOLE-- [fill = 00000000]
                  000c8100    00000070                : drv_IO_INT_ESM.obj (.IO_DRIVER_CODE:IO_INT_ESM_ErrorCallbackHigh)
                  000c8170    00000084     bsp.lib : bsp_sys_startup.obj (.IO_DRIVER_CODE:custom_pabort)
                  000c81f4    00000168     ttc500.lib : drv_asm_IO_INT_VEC_data_ASM.obj (.IO_DRIVER_CODE:_io_data_handler)
                  000c835c    00000004     --HOLE-- [fill = 00000000]
                  000c8360    00000084     bsp.lib : bsp_sys_startup.obj (.IO_DRIVER_CODE:custom_dabort)
                  000c83e4    00000060     ttc500.lib : drv_asm_IO_INT_VEC_prefetch_ASM.obj (.IO_DRIVER_CODE:_io_prefetch_handler)
                  000c8444    00000058                : drv_asm_IO_INT_VEC_undef_ASM.obj (.IO_DRIVER_CODE:_io_undef_handler)
                  000c849c    00000004     --HOLE-- [fill = 00000000]
                  000c84a0    0000004c                : drv_csm_spi_cfg.obj (.IO_DRIVER_CODE:Csm_Spi_WaitInit_1)
                  000c84ec    00000004     --HOLE-- [fill = 00000000]
                  000c84f0    0000004c                : drv_csm_spi_cfg.obj (.IO_DRIVER_CODE:Csm_Spi_WaitInit_3)
                  000c853c    00000004     --HOLE-- [fill = 00000000]
                  000c8540    00000044                : drv_IO_INT_RTC.obj (.IO_DRIVER_CODE:IO_INT_RTC_BCDtoHEX)
                  000c8584    0000000c     --HOLE-- [fill = 00000000]
                  000c8590    00000044                : drv_IO_INT_RTC.obj (.IO_DRIVER_CODE:IO_INT_RTC_Comp1_interrupt)
                  000c85d4    0000000c     --HOLE-- [fill = 00000000]
                  000c85e0    00000044     bsp.lib : bsp_sys_startup.obj (.IO_DRIVER_CODE:vim_parity_error)
                  000c8624    0000000c     --HOLE-- [fill = 00000000]
                  000c8630    00000040     ttc500.lib : drv_csm_dma_cfg.obj (.IO_DRIVER_CODE:Csm_Dma_Wait)
                  000c8670    00000040                : drv_csm_esc_cfg.obj (.IO_DRIVER_CODE:Csm_Esc_WaitCfgCrcCheck)
                  000c86b0    00000040                : drv_csm_esc_cfg.obj (.IO_DRIVER_CODE:Csm_Esc_WaitEepromCrcCheck)
                  000c86f0    00000040                : drv_csm_esc_cfg.obj (.IO_DRIVER_CODE:Csm_Esc_WaitTG0)
                  000c8730    00000040                : drv_csm_spi_cfg.obj (.IO_DRIVER_CODE:Csm_Spi_WaitSendbuffer_1_3)
                  000c8770    00000040                : drv_IO_CAN.obj (.IO_DRIVER_CODE:IO_CAN_WaitCanTransfer)
                  000c87b0    00000040                : drv_IO_CAN.obj (.IO_DRIVER_CODE:IO_CAN_WaitInitNormalMode)
                  000c87f0    00000040                : drv_IO_CAN.obj (.IO_DRIVER_CODE:IO_CAN_WaitLocalPowerDown)
                  000c8830    00000020                : drv_IO_Driver.obj (.IO_DRIVER_CODE:IO_Driver_GetFPUExceptionFlags)
                  000c8850    00000010                : drv_asm_IO_INT_FPU_ASM.obj (.IO_DRIVER_CODE:IO_INT_FPU_ISR)
                  000c8860    00000034     bsp.lib : bsp_sys_startup.obj (.IO_DRIVER_CODE:custom_undef)
                  000c8894    0000000c     --HOLE-- [fill = 00000000]
                  000c88a0    00000024     ttc500.lib : drv_DIAG_INT_Core.obj (.IO_DRIVER_CODE:wait_CCMSelfTest)
                  000c88c4    0000000c     --HOLE-- [fill = 00000000]
                  000c88d0    00000024                : drv_DIAG_INT_Core.obj (.IO_DRIVER_CODE:wait_TestEFuseECC)
                  000c88f4    0000000c     --HOLE-- [fill = 00000000]
                  000c8900    00000020                : drv_DIAG_INT_Core.obj (.IO_DRIVER_CODE:wait_DCCSelfTest)
                  000c8920    00000020                : drv_DIAG_INT_Core.obj (.IO_DRIVER_CODE:wait_PSCONSelfTest)
                  000c8940    00000004                : drv_csm_mcu_cfg.obj (.IO_DRIVER_CODE:Csm_Mcu_EsmGroup3PowerUpError)
                  000c8944    0000000c     --HOLE-- [fill = 00000000]

.io_driver_const 
*          0    000c8950    00002828     
                  000c8950    00000af8     ttc500.lib : drv_IO_INT_VariantCfg.obj (.IO_DRIVER_CONST)
                  000c9448    00000a28                : drv_IO_Tools.obj (.IO_DRIVER_CONST)
                  000c9e70    000002c0                : drv_csm_dio_cfg.obj (.IO_DRIVER_CONST)
                  000ca130    00000200                : drv_IO_INT_CRYPT.obj (.IO_DRIVER_CONST)
                  000ca330    000001ec                : drv_csm_mcu_cfg.obj (.IO_DRIVER_CONST)
                  000ca51c    000001ec                : drv_csm_pwm_cfg.obj (.IO_DRIVER_CONST)
                  000ca708    00000170                : drv_csm_spi_cfg.obj (.IO_DRIVER_CONST)
                  000ca878    00000164                : drv_csm_icu_cfg.obj (.IO_DRIVER_CONST)
                  000ca9dc    00000118                : drv_IO_INT_MPU.obj (.IO_DRIVER_CONST)
                  000caaf4    000000e0                : drv_IO_INT_PWM.obj (.IO_DRIVER_CONST)
                  000cabd4    000000d4                : drv_csm_dma_cfg.obj (.IO_DRIVER_CONST)
                  000caca8    000000d0                : drv_DIAG_INT_ADC_Check.obj (.IO_DRIVER_CONST)
                  000cad78    00000098                : drv_DIAG_INT_ErrorHandler.obj (.IO_DRIVER_CONST)
                  000cae10    00000090                : drv_csm_can_cfg.obj (.IO_DRIVER_CONST)
                  000caea0    00000080                : drv_IO_INT_ESM.obj (.IO_DRIVER_CONST)
                  000caf20    00000074                : drv_csm_adc_cfg.obj (.IO_DRIVER_CONST)
                  000caf94    00000072                : drv_IO_ADC.obj (.IO_DRIVER_CONST)
                  000cb006    00000002     --HOLE-- [fill = 00000000]
                  000cb008    0000005c                : drv_csm_nhet_cfg.obj (.IO_DRIVER_CONST)
                  000cb064    00000058                : drv_IO_INT_EMIF.obj (.IO_DRIVER_CONST)
                  000cb0bc    00000048                : drv_csm_esm_cfg.obj (.IO_DRIVER_CONST)
                  000cb104    00000030                : drv_IO_INT_ADC.obj (.IO_DRIVER_CONST)
                  000cb134    00000028                : drv_csm_dcc_cfg.obj (.IO_DRIVER_CONST)
                  000cb15c    00000018                : drv_IO_POWER.obj (.IO_DRIVER_CONST)
                  000cb174    00000004     --HOLE-- [fill = 00000000]

.text      0    000cb180    000005f0     
                  000cb180    000000ba     rtsv7R4_T_be_v3D16_eabi.lib : no_stm_memcpy_t2.obj (.text)
                  000cb23a    0000009c                                 : memcpy_t2.obj (.text)
                  000cb2d6    00000002     --HOLE-- [fill = 00000000]
                  000cb2d8    00000048                                 : cpy_tbl.obj (.text)
                  000cb320    00000094                                 : auto_init.obj (.text)
                  000cb3b4    00000098                                 : no_stm_memset_t2.obj (.text)
                  000cb44c    00000022                                 : memcmp.obj (.text)
                  000cb46e    0000001e                                 : ll_lsl_t2.obj (.text)
                  000cb48c    00000004     --HOLE-- [fill = 00000000]
                  000cb490    00000228     main.obj (.text:main)
                  000cb6b8    00000060     rtsv7R4_T_be_v3D16_eabi.lib : copy_decompress_rle.obj (.text)
                  000cb718    00000012                                 : copy_zero_init.obj (.text:decompress:ZI)
                  000cb72a    0000000e                                 : copy_decompress_none.obj (.text:decompress:none)
                  000cb738    00000006                                 : copy_decompress_rle.obj (.text:decompress:rle24)
                  000cb73e    00000002     --HOLE-- [fill = 00000000]
                  000cb740    00000008     main.obj (.text:APPL_ErrorCb)
                  000cb748    00000008     --HOLE-- [fill = 00000000]
                  000cb750    00000004     main.obj (.text:APPL_FPUhandler)
                  000cb754    0000000c     --HOLE-- [fill = 00000000]
                  000cb760    00000004     main.obj (.text:APPL_NotifyCb)
                  000cb764    0000000c     --HOLE-- [fill = 00000000]

.const     0    000cb770    00000220     
                  000cb770    00000100     bsp.lib : bsp_sys_startup.obj (.const:$P$T0$1)
                  000cb870    00000062     ttc500.lib : drv_IO_INT_WD.obj (.const)
                  000cb8d2    00000002     --HOLE-- [fill = 00000000]
                  000cb8d4    00000057                : drv_IO_CAN.obj (.const)
                  000cb92b    00000001     --HOLE-- [fill = 00000000]
                  000cb92c    00000048                : drv_IO_INT_SPI.obj (.const)
                  000cb974    00000010     main.obj (.const)
                  000cb984    00000008     ttc500.lib : drv_IO_INT_UART.obj (.const)
                  000cb98c    00000004     --HOLE-- [fill = 00000000]

.init_array 
*          0    000cb770    00000000     UNINITIALIZED

.cinit     0    000cb990    00000b18     
                  000cb990    00000acb     (.cinit..IO_DRIVER_VAR_NORMAL.load) [load image, compression = rle]
                  000cc45b    00000001     --HOLE-- [fill = 00000000]
                  000cc45c    0000000c     (__TI_handler_table)
                  000cc468    0000000b     (.cinit..IO_DRIVER_VAR_COMMON.load) [load image, compression = rle]
                  000cc473    00000005     --HOLE-- [fill = 00000000]
                  000cc478    00000008     (.cinit..CSM_VAR.load) [load image, compression = zero_init]
                  000cc480    00000008     (.cinit..TI.bound:Csm_Mcu_SharedMem.load) [load image, compression = zero_init]
                  000cc488    00000020     (__TI_cinit_table)

.stack     0    08000020    00000000     UNINITIALIZED

.data      0    08003000    00000000     UNINITIALIZED

.bss       0    08003000    00000000     UNINITIALIZED

.sysmem    0    08003000    00000008     UNINITIALIZED
                  08003000    00000008     rtsv7R4_T_be_v3D16_eabi.lib : memory.obj (.sysmem)

.CSM_VAR   0    08038000    00000390     UNINITIALIZED
                  08038000    00000034     ttc500.lib : drv_Csm_Esc.obj (.CSM_VAR_ZERO_INIT_UNSPECIFIED)
                  08038034    00000020                : drv_Csm_Esm.obj (.CSM_VAR_ZERO_INIT_UNSPECIFIED)
                  08038054    0000001c                : drv_Csm_Adc.obj (.CSM_VAR_ZERO_INIT_UNSPECIFIED)
                  08038070    00000015                : drv_Csm_Vim.obj (.CSM_VAR_ZERO_INIT_UNSPECIFIED)
                  08038085    00000003     --HOLE--
                  08038088    0000000c                : drv_Csm_Dma.obj (.CSM_VAR_ZERO_INIT_UNSPECIFIED)
                  08038094    0000000c                : drv_Csm_Nhet.obj (.CSM_VAR_ZERO_INIT_UNSPECIFIED)
                  080380a0    00000004                : drv_Csm_Can.obj (.CSM_VAR_ZERO_INIT_UNSPECIFIED)
                  080380a4    00000004                : drv_Csm_Dio.obj (.CSM_VAR_ZERO_INIT_UNSPECIFIED)
                  080380a8    00000004                : drv_Csm_Icu.obj (.CSM_VAR_ZERO_INIT_UNSPECIFIED)
                  080380ac    00000004                : drv_Csm_Pwm.obj (.CSM_VAR_ZERO_INIT_UNSPECIFIED)
                  080380b0    000002e0                : drv_Csm_Mcu.obj (.CSM_VAR_NO_INIT_UNSPECIFIED)

.IO_DRIVER_VAR_NORMAL 
*          0    08038390    000058cc     UNINITIALIZED
                  08038390    0000118c     ttc500.lib : drv_IO_CAN.obj (.IO_DRIVER_DATA_NORMAL:init)
                  0803951c    00000cdc                : drv_IO_Tools.obj (.IO_DRIVER_DATA_NORMAL)
                  0803a1f8    00000c18                : drv_IO_INT_DOWNLOAD.obj (.IO_DRIVER_DATA_NORMAL:init)
                  0803ae10    00000832                : drv_IO_INT_Data.obj (.IO_DRIVER_DATA_NORMAL)
                  0803b642    00000002                : drv_DIAG_INT_ADC_Check.obj (.IO_DRIVER_DATA_NORMAL)
                  0803b644    00000758                : drv_IO_PWM.obj (.IO_DRIVER_DATA_NORMAL)
                  0803bd9c    00000651                : drv_DIAG_INT_ErrorHandler.obj (.IO_DRIVER_DATA_NORMAL)
                  0803c3ed    00000003                : drv_DIAG_INT_SSW_Check.obj (.IO_DRIVER_DATA_NORMAL)
                  0803c3f0    000004a0                : drv_IO_INT_UART.obj (.IO_DRIVER_DATA_NORMAL)
                  0803c890    00000480                : drv_IO_INT_PWD.obj (.IO_DRIVER_DATA_NORMAL)
                  0803cd10    000003a5                : drv_IO_INT_ADC.obj (.IO_DRIVER_DATA_NORMAL)
                  0803d0b5    00000002                : drv_DIAG_INT_PWM_Check.obj (.IO_DRIVER_DATA_NORMAL)
                  0803d0b7    00000001                : drv_DIAG_INT_States.obj (.IO_DRIVER_DATA_NORMAL)
                  0803d0b8    0000020c                : drv_csm_vim_cfg.obj (.IO_DRIVER_DATA_NORMAL)
                  0803d2c4    000001e0                : drv_IO_ADC.obj (.IO_DRIVER_DATA_NORMAL:uninit)
                  0803d4a4    00000150                : drv_IO_PWD.obj (.IO_DRIVER_DATA_NORMAL)
                  0803d5f4    00000140                : drv_IO_DIO.obj (.IO_DRIVER_DATA_NORMAL)
                  0803d734    00000100                : drv_csm_dma_cfg.obj (.IO_DRIVER_DATA_NORMAL)
                  0803d834    000000b9                : drv_IO_EEPROM.obj (.IO_DRIVER_DATA_NORMAL)
                  0803d8ed    00000001                : drv_DIAG_INT_VMON_Check.obj (.IO_DRIVER_DATA_NORMAL)
                  0803d8ee    00000001                : drv_IO_INT_SHM.obj (.IO_DRIVER_DATA_NORMAL)
                  0803d8ef    00000001     --HOLE--
                  0803d8f0    000000a0                : drv_IO_PVG.obj (.IO_DRIVER_DATA_NORMAL)
                  0803d990    00000070                : drv_IO_INT_RTC.obj (.IO_DRIVER_DATA_NORMAL)
                  0803da00    00000044                : drv_IO_INT_SPI.obj (.IO_DRIVER_DATA_NORMAL)
                  0803da44    00000044                : drv_IO_INT_WD.obj (.IO_DRIVER_DATA_NORMAL)
                  0803da88    00000042                : drv_IO_FLASH.obj (.IO_DRIVER_DATA_NORMAL)
                  0803daca    00000002     --HOLE--
                  0803dacc    00000034                : drv_csm_esc_cfg.obj (.IO_DRIVER_DATA_NORMAL)
                  0803db00    00000028                : drv_csm_pwm_cfg.obj (.IO_DRIVER_DATA_NORMAL)
                  0803db28    00000022                : drv_IO_INT_PWM.obj (.IO_DRIVER_DATA_NORMAL)
                  0803db4a    00000002     --HOLE--
                  0803db4c    0000001c                : drv_IO_Driver.obj (.IO_DRIVER_DATA_NORMAL)
                  0803db68    0000001b                : drv_IO_INT_ETH.obj (.IO_DRIVER_DATA_NORMAL)
                  0803db83    00000001     --HOLE--
                  0803db84    0000001b                : drv_IO_POWER.obj (.IO_DRIVER_DATA_NORMAL)
                  0803db9f    0000001b                : drv_csm_icu_cfg.obj (.IO_DRIVER_DATA_NORMAL)
                  0803dbba    00000005                : drv_DIAG_INT_DIO_Check.obj (.IO_DRIVER_DATA_NORMAL)
                  0803dbbf    00000001     --HOLE--
                  0803dbc0    00000019                : drv_DIAG_INT_Core.obj (.IO_DRIVER_DATA_NORMAL)
                  0803dbd9    00000001     --HOLE--
                  0803dbda    00000019                : drv_IO_INT_SHIFT.obj (.IO_DRIVER_DATA_NORMAL)
                  0803dbf3    00000001     --HOLE--
                  0803dbf4    00000016                : drv_IO_ADC.obj (.IO_DRIVER_DATA_NORMAL:init)
                  0803dc0a    00000002     --HOLE--
                  0803dc0c    00000014                : drv_IO_INT_LIN.obj (.IO_DRIVER_DATA_NORMAL)
                  0803dc20    00000012                : drv_csm_can_cfg.obj (.IO_DRIVER_DATA_NORMAL)
                  0803dc32    00000002     --HOLE--
                  0803dc34    00000010                : drv_IO_INT_Variant.obj (.IO_DRIVER_DATA_NORMAL)
                  0803dc44    00000008                : drv_IO_INT_ESM.obj (.IO_DRIVER_DATA_NORMAL)
                  0803dc4c    00000004                : drv_DIAG_INT_ENTR_Check.obj (.IO_DRIVER_DATA_NORMAL)
                  0803dc50    00000004                : drv_IO_INT_MPU.obj (.IO_DRIVER_DATA_NORMAL)
                  0803dc54    00000004                : drv_csm_spi_cfg.obj (.IO_DRIVER_DATA_NORMAL)
                  0803dc58    00000004                : drv_IO_INT_DOWNLOAD.obj (.IO_DRIVER_DATA_NORMAL:uninit)

.IO_DRIVER_VAR_COMMON 
*          0    0803fae0    00000100     UNINITIALIZED
                  0803fae0    00000100     ttc500.lib : drv_IO_INT_CRYPT.obj (.IO_DRIVER_DATA_COMMON)

.TI.bound:Csm_Mcu_SharedMem 
*          0    0803fee0    00000120     UNINITIALIZED
                  0803fee0    00000120     ttc500.lib : drv_csm_mcu_cfg.obj (.TI.bound:Csm_Mcu_SharedMem)


LINKER GENERATED COPY TABLES

__TI_cinit_table @ 000cc488 records: 4, size/record: 8, table size: 32
	.IO_DRIVER_VAR_NORMAL: load addr=000cb990, load size=00000acb bytes, run addr=08038390, run size=000058cc bytes, compression=rle
	.IO_DRIVER_VAR_COMMON: load addr=000cc468, load size=0000000b bytes, run addr=0803fae0, run size=00000100 bytes, compression=rle
	.CSM_VAR: load addr=000cc478, load size=00000008 bytes, run addr=08038000, run size=00000390 bytes, compression=zero_init
	.TI.bound:Csm_Mcu_SharedMem: load addr=000cc480, load size=00000008 bytes, run addr=0803fee0, run size=00000120 bytes, compression=zero_init


LINKER GENERATED HANDLER TABLE

__TI_handler_table @ 000cc45c records: 3, size/record: 4, table size: 12
	index: 0, handler: __TI_zero_init
	index: 1, handler: __TI_decompress_rle24
	index: 2, handler: __TI_decompress_none


GLOBAL SYMBOLS: SORTED ALPHABETICALLY BY Name 

address    name
--------   ----
000af530   ADC_MUX_nhet_prg
000a0000   Apdb_t
000c9508   CrcPolynome_u32a
000a4430   Csm2_Mcu_TestPll1Slip
000a45a0   Csm2_Mcu_TestPll2Slip
000a1230   Csm_Access_NHETram
000caf80   Csm_Adc_Config
000a8060   Csm_Adc_ConfigureGroup
000a81d0   Csm_Adc_EnableHardwareTrigger
000a7920   Csm_Adc_Init
000add50   Csm_Adc_ReadBackCfg
000a79f0   Csm_Adc_TestRamParity
000a7000   Csm_Can_EnterInitMode
000abd60   Csm_Can_Init
000ac0b0   Csm_Can_InitMsg
000ac250   Csm_Can_MsgStatus
000ac570   Csm_Can_WriteMsg
000ac610   Csm_Can_WriteTransmitMsg
000cb134   Csm_Dcc0_Config
000cb148   Csm_Dcc1_Config
000a7100   Csm_Dcc_Init
000a5080   Csm_Dcc_SelfTest
000aeb00   Csm_Dio_ChangeDirection
000ca110   Csm_Dio_Config
000a5a90   Csm_Dio_Init
000a5a20   Csm_Dio_InitChannel
000ca098   Csm_Dio_PortConfig
000ac8a0   Csm_Dio_ReadBackCfg
000a7220   Csm_Dio_ReadChannel
000a11c0   Csm_Dio_WriteChannel
000a6db0   Csm_Dma_BasicFunctionalityTest
0803d734   Csm_Dma_ChannelConfig
000a61b0   Csm_Dma_ClearIrqFlag
000a62c0   Csm_Dma_ClearMpcFaultBit
000cac94   Csm_Dma_Config
000a5c60   Csm_Dma_ConfigInterrupts
000aebd0   Csm_Dma_DisableHardwareTrigger
000a72a0   Csm_Dma_EnableHardwareTrigger
000af290   Csm_Dma_GetDmaStatAndChanPend
000a63b0   Csm_Dma_GetIrqFlag
000a64d0   Csm_Dma_GetMpcFaultBits
000a5fd0   Csm_Dma_Init
000cabd4   Csm_Dma_MPConfig
000af2c0   Csm_Dma_PortBActiveChannelInfo
000ad9c0   Csm_Dma_ReadBackCfg
000a6c00   Csm_Dma_SetupTransfer
000cac54   Csm_Dma_TempMPConfig
000a6ec0   Csm_Dma_TestImpreciseRead
000cac14   Csm_Dma_TestMPConfig
000a6ab0   Csm_Dma_TestMPU
000a6b30   Csm_Dma_TestRamParity
000a6380   Csm_Dma_TriggerDMA
000c8630   Csm_Dma_Wait
000a5e40   Csm_Dma_configMPU
000ab770   Csm_Esc_Activate
000ab740   Csm_Esc_ActivateWriteAccessLockProtection
000aad50   Csm_Esc_ClearErrors
0803dacc   Csm_Esc_Config
000aa900   Csm_Esc_Configure
000ab1e0   Csm_Esc_DecrementWdtFailureCounter
000aadf0   Csm_Esc_DisableDiagnosticModeTimeout
000ab920   Csm_Esc_DriverEnable
000aec30   Csm_Esc_ForceTpsReset
000aa270   Csm_Esc_Init
000aec00   Csm_Esc_PowerDown_ClrCANWUL
000ab060   Csm_Esc_TriggerWatchdog
000aa560   Csm_Esc_UpdateStatus
000a2220   Csm_Esm_ClearErrorFlags
000a1a50   Csm_Esm_ErrorFlags
000ae190   Csm_Esm_ForceErrorEndlessLoop
000ab870   Csm_Esm_ForceErrorPinState
000a1c90   Csm_Esm_GetErrorKey
000a1c70   Csm_Esm_GetErrorPin
000ae3b0   Csm_Esm_GetErrorPinAction
000aacc0   Csm_Esm_GetResetCause
000a2380   Csm_Esm_GetTestResults
000ae420   Csm_Esm_HighLevel
000a1d40   Csm_Esm_Init
000a1ea0   Csm_Esm_IntEnable
000a1f40   Csm_Esm_IntPriority
000ae760   Csm_Esm_LowLevel
000cb0e0   Csm_Esm_NonSafeConfig
000ad300   Csm_Esm_ReadBackCfg
000a1d00   Csm_Esm_RequestClearErrorPin
000cb0bc   Csm_Esm_SafeConfig
000a2160   Csm_Esm_StartTest
000a2400   Csm_Esm_StopTest
000ae120   Csm_Esm_StoreResetCause
000ca878   Csm_Icu_ChannelDutyCycleConfig
000ca980   Csm_Icu_ChannelQuadraturConfig
000ca8f0   Csm_Icu_ChannelTimeStampConfig
000ca9b8   Csm_Icu_Config
000a9c80   Csm_Icu_Init
000a4110   Csm_Mcu_CCMSelfTest
000a01b4   Csm_Mcu_CalculateSharedMemorySize
000a01e0   Csm_Mcu_CheckSharedMemory
000a2ae0   Csm_Mcu_CheckStackPointerSave
000a1c10   Csm_Mcu_ClearEepromErrorCount
000a1b10   Csm_Mcu_ClearFlashErrorCount
000a1b70   Csm_Mcu_ClearRamErrorCount
000ca3ac   Csm_Mcu_Config
000ca464   Csm_Mcu_ConfigBtld
000a08ec   Csm_Mcu_CopyMemory
000a0504   Csm_Mcu_CountClocks_Asm
000a3d70   Csm_Mcu_CpuSelfTest
000a3e18   Csm_Mcu_CpuSelfTestContinue
000a02d4   Csm_Mcu_DisableEccFlash
000a09d4   Csm_Mcu_DisableEccRam
000a02b0   Csm_Mcu_DisableEventBusExport
000a02c0   Csm_Mcu_EnableEccFlash
000a09c0   Csm_Mcu_EnableEccRam
000a02a0   Csm_Mcu_EnableEventBusExport
000a0100   Csm_Mcu_EnableFpu
000a1e80   Csm_Mcu_EnterCriticalSection
000a09e8   Csm_Mcu_Errata_CORTEXR4_66
000a2530   Csm_Mcu_GetCosmoSharedMemory
000a1c30   Csm_Mcu_GetEepromErrorAddress
000a1b30   Csm_Mcu_GetFlashErrorAddress
000af308   Csm_Mcu_GetFpuExceptionFlags
000a1bb0   Csm_Mcu_GetRamErrorAddress
000a2690   Csm_Mcu_GetResetReason
000a4060   Csm_Mcu_GlobalInterruptEnable
000a7e80   Csm_Mcu_I_Bit_Count
000a0c90   Csm_Mcu_Init
000a0e68   Csm_Mcu_InitCore
000a0a60   Csm_Mcu_InitRamSaveSharedMemory
000a0aec   Csm_Mcu_InitRamSection
000a09fc   Csm_Mcu_InitRamSectionSW_Asm
000a0aec   Csm_Mcu_InitRamSection_Asm
000a08c8   Csm_Mcu_InitSharedMemorySize
000a0130   Csm_Mcu_InitStackPointers
000a5210   Csm_Mcu_IommClearErrorAndFaultStatus
000a2140   Csm_Mcu_LeaveCriticalSection
000a0644   Csm_Mcu_PBIST_Asm
000a3f20   Csm_Mcu_PSCONSelfTest
000a03e0   Csm_Mcu_PeriphInit1
000a0420   Csm_Mcu_PeriphInit2
000a0470   Csm_Mcu_PeriphInit3
000ad2e0   Csm_Mcu_ReadBackCfg
000ad070   Csm_Mcu_ReadBackCfg_Base
000ad260   Csm_Mcu_ReadBackCfg_Flash
000a02f0   Csm_Mcu_SetupFlash
000a0380   Csm_Mcu_SetupPLL
0803fee0   Csm_Mcu_SharedMem
000a3220   Csm_Mcu_StackPointerRestore
000a2b08   Csm_Mcu_StackPointerSave
000a05cc   Csm_Mcu_SystemInit
000a0580   Csm_Mcu_SystemInitFinalStep
000a05b0   Csm_Mcu_SystemInitFinalStep2
000a4290   Csm_Mcu_TestClockMonitor
000a4fb0   Csm_Mcu_TestEepromECC
000a4e90   Csm_Mcu_TestFlashAddressBus1Parity
000a4cc0   Csm_Mcu_TestFlashDataECC
000a29c0   Csm_Mcu_TestFlashWrapperAddressECC
000a5250   Csm_Mcu_TestIommAddrProtError
000a51e0   Csm_Mcu_TestIommLock
000a2540   Csm_Mcu_TestL2L3interconnect
000a0890   Csm_Mcu_TestPBIST
000a0890   Csm_Mcu_TestPBIST_Asm
000a4980   Csm_Mcu_TestRamAddressBusParity
000a4c70   Csm_Mcu_TestRamAddressDecode
000a47e0   Csm_Mcu_TestRamECC
000a08c0   Csm_Mcu_TestRamSection
000a08c0   Csm_Mcu_TestRamSection_Boot
000a0924   Csm_Mcu_TestRam_TwoSteps
000a3c40   Csm_Mcu_TestSTC
000a3cd4   Csm_Mcu_TestSTCContinue
000a2930   Csm_Mcu_TesteFuseECC
000a04b0   Csm_Mcu_TrimLPO
000a1874   Csm_Mcu_Vim_Disable_HW_Vec_Mode_Asm
000a185c   Csm_Mcu_Vim_Enable_HW_Vec_Mode_Asm
000ad3cc   Csm_Mcu_Vim_Read_HW_Vec_Mode_Asm
000a0560   Csm_Mcu_WaitClocksLocked
000a7ce0   Csm_Nhet_AppendPrg
000cb060   Csm_Nhet_Config
000a9e30   Csm_Nhet_EnableHTU
000a7b90   Csm_Nhet_GetInstrPos
000a7bb0   Csm_Nhet_HTUSetup
000a7370   Csm_Nhet_Init
000acca0   Csm_Nhet_ReadBackCfgHTU
000aca70   Csm_Nhet_ReadBackCfgNHET
000ae960   Csm_Nhet_ReadOffsetIndexLevel1
000aeb90   Csm_Nhet_ReadOffsetIndexLevel2
000ae9a0   Csm_Nhet_ReturnLRP
000a7ae0   Csm_Nhet_SetPinDirection
000a8660   Csm_Nhet_SetPinLevel
000a9e70   Csm_Nhet_Start
000a76a0   Csm_Nhet_TestRamParityHTU
000a7560   Csm_Nhet_TestRamParityNHET
000ca51c   Csm_Pwm_ChannelConfig
000ca6fc   Csm_Pwm_Config
000a8690   Csm_Pwm_DisableChannel
000aefb0   Csm_Pwm_EnableChannel
000aeaf0   Csm_Pwm_GetDutyCycle
000a85b0   Csm_Pwm_Init
000aef30   Csm_Pwm_SetDutyCycle
000aef60   Csm_Pwm_SetPeriodAndDuty
000ca83c   Csm_Spi_EscTransmitConfig
000a9f00   Csm_Spi_GetBufferAddresses
000aa390   Csm_Spi_GetRxRamEx_u16
000af0c0   Csm_Spi_GetRxRamEx_u8
000aa530   Csm_Spi_GetRxRam_u16
000af260   Csm_Spi_GetRxRam_u8
000a1370   Csm_Spi_GroupTransferIsComplete
000a53f0   Csm_Spi_Init
000adde0   Csm_Spi_ReadBackCfg
000a1610   Csm_Spi_SetTxRamEx_u16
000a1460   Csm_Spi_SetTxRamEx_u8
000a9ee0   Csm_Spi_SetTxRam_u16
000a17f0   Csm_Spi_StartGroupTransfer
000a5740   Csm_Spi_TestMibSpiRamParity
0803d0b8   Csm_Vim_Config
000ab990   Csm_Vim_DisableInterrupt
000a1e40   Csm_Vim_EnableInterrupt
000af3c0   Csm_Vim_GetParityError
000a18a0   Csm_Vim_Init
000ae1f0   Csm_Vim_PhantomInterrupt_ISR
000ad400   Csm_Vim_ReadBackCfg
000a2450   Csm_Vim_TestRamParity
000af350   Csm_Vim_WriteInterruptVectorTable
0803dc20   Csm_bit_cfg_CAN
000cae10   Csm_ch_cfg_CAN
000ba350   DIAG_ADC_1V2_Check
000c41c0   DIAG_ADC_2ModeConfTestCheck
000bdfe0   DIAG_ADC_2ModeConfTestPerform
000ba310   DIAG_ADC_2V5Ref_Check
000b9bb0   DIAG_ADC_3ModeSwitchPeriodicCheck
000c41e0   DIAG_ADC_3ModeSwitchTestCheck
000be220   DIAG_ADC_3ModeSwitchTestPerform
000ba390   DIAG_ADC_Battery_Check
000ba3d0   DIAG_ADC_BoardTemp_Check
000b1ff0   DIAG_ADC_ModuleInit
000ba190   DIAG_ADC_RangeCheck
000ba410   DIAG_ADC_SSup5V_Check
000b9dc0   DIAG_ADC_ShiftRegisterConfigurationCheck
000c4370   DIAG_DIO_LoadCheck
000b2030   DIAG_DIO_ModuleInit
000ba4a0   DIAG_DIO_OutputCheck
000c4220   DIAG_DIO_ShortCircuitTestCheck
000bded0   DIAG_DIO_ShortCircuitTestPerform
000b2080   DIAG_ENTR_ModuleInit
000c41a0   DIAG_ENTR_TestCheck
000bbfc0   DIAG_ENTR_TestPerform
000b1e70   DIAG_ERR_Notify
000b48a0   DIAG_INT_AdcParityTest
000b35b0   DIAG_INT_CoreInit
000bac30   DIAG_INT_CoreTaskA
000b9380   DIAG_INT_CoreTaskB
000b3fd0   DIAG_INT_DCC_Init
000b3c60   DIAG_INT_DmaBasicTest
0803dbd0   DIAG_INT_DmaDestData
000b3bc0   DIAG_INT_DmaMpuTest
000b3c10   DIAG_INT_DmaParityTest
0803dbc8   DIAG_INT_DmaSrcData
000b2840   DIAG_INT_GetCfgFlashStatus
000b26b0   DIAG_INT_GetFlashStatus
000b26d0   DIAG_INT_GetRamB0Status
000b26f0   DIAG_INT_GetRamB1Status
000b7960   DIAG_INT_MonitoringTaskTPSHandler
000b47d0   DIAG_INT_NhetParityTest
000b3b40   DIAG_INT_SpiParityTest
000c2ac0   DIAG_INT_TPS_CheckTriggering
000b6e30   DIAG_INT_TPS_Triggering
000b34c0   DIAG_INT_VimParityTest
000b20b0   DIAG_Init
000bab10   DIAG_PWD_CurrentCheck
000ba930   DIAG_PWD_RangeCheck
000babf0   DIAG_PWD_ThresholdCheck
000ba7f0   DIAG_PWM_CurrentCheck
000c4260   DIAG_PWM_LoadCheck_OL
000c44a0   DIAG_PWM_LoadCheck_SC
000b2010   DIAG_PWM_ModuleInit
000ba610   DIAG_PWM_OutputCheck
000c4200   DIAG_PWM_ShortCircuitTestCheck
000bb830   DIAG_PWM_ShortCircuitTestPerform
000b1dd0   DIAG_RequestSafeState
000b9430   DIAG_SSW_Drop_Check
000b9a30   DIAG_SSW_ExtShutOff_Check
000b1fd0   DIAG_SSW_ModuleInit
000c4240   DIAG_SSW_TestCheck
000be950   DIAG_SSW_TestPerform
000b97e0   DIAG_SSW_VPGate_Check
000baf40   DIAG_Task_Appl
000c4960   DIAG_Task_Int
000b9b60   DIAG_VMON_Check
000b2060   DIAG_VMON_ModuleInit
000c4180   DIAG_VMON_TestCheck
000bba70   DIAG_VMON_TestPerform
000b6da0   DIAG_WDInit
000cb098   EmifConfig
000cb0a8   FlashTiming_HW3
000cb0b2   FlashTiming_HW5
000cb08e   FpgaRuntimeTiming
000afa30   ICU_QE_2pins_highres_prg
000af950   ICU_QE_3pins_highres_prg
000af6e0   ICU_QE_3pins_special_highres_prg
000afd78   ICU_dutycycle_prg
000afe28   ICU_simple_prg
000afdb8   ICU_timestamp_edgecounter_prg
000bf430   IO_ADC_Calc2V5RefSum
000bf4e0   IO_ADC_CalcBatteryVoltage
000c1120   IO_ADC_Get
000c0bd0   IO_ADC_Get2ModeType
000c0d00   IO_ADC_Get3ModeType
000c0330   IO_ADC_GetDOType
000c0120   IO_ADC_GetPVGType
000c00c0   IO_ADC_GetSSupMode
000bed70   IO_ADC_N2HET2_ISR
000c50b0   IO_ADC_ProtectionTask
000b9630   IO_ADC_Read2V5RefSum
000b9530   IO_ADC_ReadValue
000b5450   IO_ADC_StatusInit
000c1490   IO_ADC_SystemTask
000b3430   IO_ADC_VariantInit
000b3dd0   IO_CAN_CPU_InitDefault
000b8930   IO_CAN_ConfigMsg
000b8550   IO_CAN_ConfigMsgInt
000b43e0   IO_CAN_FPGA_InitDefault
000b7ea0   IO_CAN_Init
000b8d00   IO_CAN_MsgStatus
000c8770   IO_CAN_WaitCanTransfer
000c87b0   IO_CAN_WaitInitNormalMode
000c87f0   IO_CAN_WaitLocalPowerDown
000b9020   IO_CAN_WriteMsg
000c4a40   IO_DO_CheckCurProtLimit
000bef50   IO_DO_CheckCurrent
000b95a0   IO_DO_CheckOutputState
000b9660   IO_DO_GetVoltage_Int
000c4b10   IO_DO_ProtectionTask
000b0ef0   IO_DO_WriteOutput
000b0870   IO_Driver_Enter_Critical_All
000b0a70   IO_Driver_Enter_Critical_IRQ
000b4570   IO_Driver_FPGA_Init
000c7e90   IO_Driver_FPU_InterruptHandler
000b7b60   IO_Driver_Init
000b0d00   IO_Driver_Leave_Critical_All
000b0ad0   IO_Driver_Leave_Critical_IRQ
000b7de0   IO_Driver_SetFPUHandler
000b8bf0   IO_Driver_TaskBegin
000baf60   IO_Driver_TaskEnd
000c73f0   IO_EEPROM_Task
000c6680   IO_FLASH_Task
000c2bb0   IO_INT_ADC_DequeueSingle
000bede0   IO_INT_ADC_Enqueue
000b54a0   IO_INT_ADC_Init
000b6420   IO_INT_ADC_MuxEnable
000b2220   IO_INT_CRYPT_md5hash
000b3530   IO_INT_DEBUG_MaskDAbort
000b350c   IO_INT_DEBUG_ReadDbgBaseAddr
000bf3c0   IO_INT_DMA_BTCA_int
000c7e20   IO_INT_DMA_HBCA_int
0803add3   IO_INT_DOWNLOAD_AutoRead
000c1cd0   IO_INT_DOWNLOAD_Crypt
000c1c50   IO_INT_DOWNLOAD_FrameAllowed
0803ae04   IO_INT_DOWNLOAD_MyIp
000c2780   IO_INT_DOWNLOAD_SavePCData
000c25e0   IO_INT_DOWNLOAD_Send_UDP
0803add2   IO_INT_DOWNLOAD_State
000c27f0   IO_INT_DOWNLOAD_Task
0803add4   IO_INT_DOWNLOAD_rx_frame
0803adec   IO_INT_DOWNLOAD_tx_frame
000b89a0   IO_INT_Driver_TaskBegin
000c19a0   IO_INT_EMAC_CoreIntAck
000c1810   IO_INT_EMAC_DuplexSet
000c17d0   IO_INT_EMAC_RMIISpeedSet
000c1980   IO_INT_EMAC_RxCPWrite
000c1990   IO_INT_EMAC_RxHdrDescPtrWrite
000c2240   IO_INT_EMAC_TxCPWrite
000c2310   IO_INT_EMAC_TxHdrDescPtrWrite
000b0170   IO_INT_EMIF_Init
000affa0   IO_INT_EMIF_UpdateTimings
000b29a0   IO_INT_ESM_CheckEsmInitStatus
000b7a40   IO_INT_ESM_CheckEsmStatus
000c8100   IO_INT_ESM_ErrorCallbackHigh
000c8030   IO_INT_ESM_ErrorCallbackLow
000b7a20   IO_INT_ESM_GetCallbackHighCnt
000b7a30   IO_INT_ESM_GetCallbackLowCnt
000c7fd0   IO_INT_ESM_GetDeviceNumber
000bb15c   IO_INT_ESM_HL_ISR
000bb1e0   IO_INT_ESM_LL_ISR
000c1850   IO_INT_ETH_CheckLink
000c21f0   IO_INT_ETH_GetWriteStatus
000c1bb0   IO_INT_ETH_Read
000c2520   IO_INT_ETH_Write
000c8850   IO_INT_FPU_ISR
0803dc12   IO_INT_LIN_Error
0803dc10   IO_INT_LIN_Ready
0803dc0c   IO_INT_LIN_RxBuffer
000c68e0   IO_INT_LIN_Task
0803dc11   IO_INT_LIN_TimeoutCheck
0803dc14   IO_INT_LIN_tBit
0803dc18   IO_INT_LIN_tFrameMax
0803dc1c   IO_INT_LIN_tFrameStart
000c1610   IO_INT_MDIO_GetPhyLinkStatus
000c1680   IO_INT_MDIO_ReadPhyReg
000aff40   IO_INT_MPU_Init
000bb0a0   IO_INT_MPU_InternalCodeBegin
000bb140   IO_INT_MPU_InternalCodeEnd
000ca9f0   IO_INT_MPU_MirroredFlash
000ca9dc   IO_INT_MPU_RamECC
000afea0   IO_INT_MPU_SetupRegion
000bf690   IO_INT_PVG_VOUT_ControlTask
000c5300   IO_INT_PVG_VOUT_ProtectionTask
000bf630   IO_INT_PVG_VOUT_SetVoltage
000bf5c0   IO_INT_PVG_VOUT_WriteOutput
000bb770   IO_INT_PWD_GetFPGAHrPWM
000bb730   IO_INT_PWD_GetFPGALrPWM
000b6250   IO_INT_PWD_Init
000c36c0   IO_INT_PWM_GPIO_ChEnable
000bb250   IO_INT_PWM_GPIO_GetDuty
000c34b0   IO_INT_PWM_GPIO_SetDuty
000c33a0   IO_INT_PWM_GPIO_SetPeriodAndDuty
000b60b0   IO_INT_PWM_Init
000b10b0   IO_INT_PWM_SSW_Disable
000b1130   IO_INT_PWM_SSW_Enable
000c4010   IO_INT_PWM_Timer_Disable
000c4580   IO_INT_PWM_Timer_Setup
0803d9b2   IO_INT_RTC_ClockIntegrityCheckFailed
000c79a0   IO_INT_RTC_Comp0_int
000c7ef0   IO_INT_RTC_Comp1_int
0803d9b4   IO_INT_RTC_Config
000c7460   IO_INT_RTC_DateAndTimeTask
0803d991   IO_INT_RTC_DateAndTime_Read_InProgress
0803d990   IO_INT_RTC_DateAndTime_Write_InProgress
0803d9a0   IO_INT_RTC_GetDateAndTime_days
0803d99c   IO_INT_RTC_GetDateAndTime_hours
0803d998   IO_INT_RTC_GetDateAndTime_minutes
0803d9a4   IO_INT_RTC_GetDateAndTime_months
0803d994   IO_INT_RTC_GetDateAndTime_seconds
0803d9a8   IO_INT_RTC_GetDateAndTime_years
000b0830   IO_INT_RTC_Init
000b9220   IO_INT_RTC_ReadBackCfg
0803d9af   IO_INT_RTC_SetDateAndTime_days_bcd
0803d9ae   IO_INT_RTC_SetDateAndTime_hours_bcd
0803d9ad   IO_INT_RTC_SetDateAndTime_minutes_bcd
0803d9b0   IO_INT_RTC_SetDateAndTime_months_bcd
0803d9ac   IO_INT_RTC_SetDateAndTime_seconds_bcd
0803d9b1   IO_INT_RTC_SetDateAndTime_years_bcd
000b72c0   IO_INT_RTC_SetupCompInt
000b3ef0   IO_INT_SHIFT_Init
000b9d70   IO_INT_SHIFT_Read
000b1ab0   IO_INT_SHIFT_Sync
000b0e10   IO_INT_SHIFT_Write
000b2650   IO_INT_SHM_Init
000b2920   IO_INT_SHM_Read
000b25c0   IO_INT_SHM_VerifyIntegrity
000b2ae0   IO_INT_SHM_Write
000c6c30   IO_INT_SPI_Async_ReceptionCompleted
000c6b90   IO_INT_SPI_Async_Rx_Task
000c6c80   IO_INT_SPI_Async_TransferCompleted
000b0dd0   IO_INT_SPI_Async_TriggerTransmission
000c77c0   IO_INT_SPI_Async_Tx_Task
000b1910   IO_INT_SPI_Async_Write
000ca870   IO_INT_SPI_ChannelConfigs
000c6cd0   IO_INT_SPI_Clear_Buffers
0803dc54   IO_INT_SPI_First_Transfer
000b6550   IO_INT_SPI_GetInitStatus
000b3ac0   IO_INT_SPI_Init
000c6e60   IO_INT_SPI_SetBufferSize
000b3e20   IO_INT_SPI_SetBuffers
000ca840   IO_INT_SPI_TransferConfigs
000bf050   IO_INT_UART_CircularBufferRead
000c7b10   IO_INT_UART_CircularBufferWrite
000c7c10   IO_INT_UART_RxDMAHandler
0803c850   IO_INT_UART_RxDmaBuffer
000beff0   IO_INT_UART_StopTxDMA
000bf220   IO_INT_UART_TxDMAHandler
0803c80c   IO_INT_UART_TxDmaBuffer
0803c84c   IO_INT_UART_TxDmaRunning
000c7aa0   IO_INT_UART_int
000c1e50   IO_INT_UDP_CalcIpChecksum
000c1f30   IO_INT_UDP_CalcUdpChecksum
000b2cb0   IO_INT_Variant_CheckProdData
000b4370   IO_INT_Variant_GetPinAvail_Full
000b33c0   IO_INT_Variant_GetPinAvail_IO
000b3340   IO_INT_Variant_GetPinAvail_Option
000b2de0   IO_INT_Variant_GetProdCode
000b31f0   IO_INT_Variant_Init
000b6d90   IO_INT_WD_DWWD_IsInitialized
000b8a90   IO_INT_WD_DWWD_Task
000b0ba0   IO_INT_WD_GetStatus
000bf710   IO_INT_WD_HardReset
000b6d10   IO_INT_WD_Init
000b6590   IO_INT_WD_TPS_CommInit
000b7890   IO_INT_WD_TPS_EnableDriver
000b0b40   IO_INT_WD_TPS_GetStatusAsync
000b6970   IO_INT_WD_TPS_GetStatusSync
000b7580   IO_INT_WD_TPS_IsActive
000b7910   IO_INT_WD_TPS_StopTriggering
000c14c0   IO_INT_WD_TPS_TaskCyclic
000b7220   IO_INT_WD_TPS_TaskStart
000c49f0   IO_INT_WD_TPS_TaskStatusRequest
000c3f70   IO_INT_WD_TPS_TaskStatusSave
0803dc50   IO_MPU_policySetting
000c1700   IO_PHY_DP83848x_GetSpeed
000b3f50   IO_POWER_Init
000c40f0   IO_POWER_Restore
000bf7a0   IO_POWER_ShutDown_Task
000b1250   IO_POWER_WriteMode
000c4e60   IO_PWD_ProtectionTask
000b61d0   IO_PWD_StatusInit
000bee10   IO_PWM_CurrentCalc
000bbf70   IO_PWM_N2HETx_ISR
000bbd70   IO_PWM_N2HETx_interrupt
000c37b0   IO_PWM_ProtectionTask
000bb7b0   IO_PWM_ReadPinLevel
000b6010   IO_PWM_StatusInit
000baf90   IO_RTC_GetTimeUS
000b8960   IO_RTC_StartTime
000ca734   IO_SPI_CH1_Config
000ca7b8   IO_SPI_CH3_Config
000b2c20   IO_Tools_CalcCRC
000c8950   IO_VariantCfg_HW
000c8cf8   IO_VariantCfg_SW
000afc98   Interrupt_prg
000afaf0   PWM_GPIO_prg
000afe08   PWM_SSW_prg
000afce8   PWM_output_prg
000afe40   RAM_Fail
UNDEFED    SHT$$INIT_ARRAY$$Base
UNDEFED    SHT$$INIT_ARRAY$$Limit
08038000   _ProtectedRAM_
08000a00   _StackABORT_
08000800   _StackABORT_END_
08000400   _StackFIQ_
08000100   _StackFIQ_END_
08000800   _StackIRQ_
08000400   _StackIRQ_END_
08003000   _StackSUPER_
08000c00   _StackSUPER_END_
08000c00   _StackUND_
08000a00   _StackUND_END_
08000100   _StackUSER_
08000020   _StackUSER_END_
00000008   __SYSMEM_SIZE
000cc488   __TI_CINIT_Base
000cc4a8   __TI_CINIT_Limit
000cc45c   __TI_Handler_Table_Base
000cc468   __TI_Handler_Table_Limit
000cb321   __TI_auto_init
000cb72b   __TI_decompress_none
000cb739   __TI_decompress_rle24
000cb990   __TI_static_base__
000cb719   __TI_zero_init
000cb46f   __aeabi_llsl
000cb23b   __aeabi_memcpy
000cb23b   __aeabi_memcpy4
000cb23b   __aeabi_memcpy8
ffffffff   __binit__
ffffffff   __c_args__
000bafc0   _c_int00
000c8358   _io_data_handler_runtime
000c8218   _io_data_handler_startup
000c83f0   _io_prefetch_handler
000b0504   _io_swi_handler
000c8450   _io_undef_handler
000afe64   _mpuDisableBackgroundRegion_
000afe44   _mpuDisable_
000aff04   _mpuEnableBackgroundRegion_
000aff1c   _mpuEnable_
000b0164   _mpuGetRegionSizeAndEnable_
000bb034   _mpuReadState_
000afe84   _mpuSetRegionBaseAddress_
000afe94   _mpuSetRegionSizeAndEnable_
000afe8c   _mpuSetRegionTypeAndPermission_
000afe7c   _mpuSetRegion_
000bb104   _mpuWriteStateDescend_
000bb060   _mpuWriteState_
08003000   _sys_memory
ffffffff   binit
000cb2d9   copy_in
000bb100   crossover_interrupt
08038318   csm_mcu_bcr1_backup
0803831c   csm_mcu_bcr2_backup
08038320   csm_mcu_bcr3_backup
08038324   csm_mcu_bcr4_backup
08038328   csm_mcu_bcr5_backup
0803832c   csm_mcu_bcr6_backup
08038330   csm_mcu_bcr7_backup
08038334   csm_mcu_bcr8_backup
080382f8   csm_mcu_bvr1_backup
080382fc   csm_mcu_bvr2_backup
08038300   csm_mcu_bvr3_backup
08038304   csm_mcu_bvr4_backup
08038308   csm_mcu_bvr5_backup
0803830c   csm_mcu_bvr6_backup
08038310   csm_mcu_bvr7_backup
08038314   csm_mcu_bvr8_backup
0803826c   csm_mcu_cp13_fpexc_backup
08038270   csm_mcu_cp13_fpscr_backup
0803813c   csm_mcu_cp15_c0_2_c0_0_bkup
08038230   csm_mcu_cp15_c11_0_c0_0_bkup
08038234   csm_mcu_cp15_c13_0_c0_1_bkup
08038238   csm_mcu_cp15_c13_0_c0_2_bkup
0803823c   csm_mcu_cp15_c13_0_c0_3_bkup
08038240   csm_mcu_cp15_c13_0_c0_4_bkup
08038244   csm_mcu_cp15_c15_0_c0_0_bkup
08038248   csm_mcu_cp15_c15_0_c1_0_bkup
0803824c   csm_mcu_cp15_c15_0_c1_1_bkup
08038250   csm_mcu_cp15_c15_0_c1_2_bkup
08038254   csm_mcu_cp15_c15_0_c1_3_bkup
08038258   csm_mcu_cp15_c15_0_c1_4_bkup
0803825c   csm_mcu_cp15_c15_0_c1_5_bkup
08038260   csm_mcu_cp15_c15_0_c1_6_bkup
08038264   csm_mcu_cp15_c15_0_c1_7_bkup
08038268   csm_mcu_cp15_c15_0_c3_0_bkup
08038140   csm_mcu_cp15_c1_0_c0_0_bkup
08038144   csm_mcu_cp15_c1_0_c0_1_bkup
08038148   csm_mcu_cp15_c1_0_c0_2_bkup
0803814c   csm_mcu_cp15_c5_0_c0_0_bkup
08038150   csm_mcu_cp15_c5_0_c0_1_bkup
08038154   csm_mcu_cp15_c5_0_c1_0_bkup
08038158   csm_mcu_cp15_c5_0_c1_1_bkup
0803815c   csm_mcu_cp15_c6_0_c0_0_bkup
08038160   csm_mcu_cp15_c6_0_c0_2_bkup
08038164   csm_mcu_cp15_c6_0_c1_0_bkup
08038194   csm_mcu_cp15_c6_0_c1_2_bkup
080381c4   csm_mcu_cp15_c6_0_c1_4_bkup
080381f4   csm_mcu_cp15_c6_0_c2_0_bkup
08038204   csm_mcu_cp15_c9_0_c12_0_bkup
08038208   csm_mcu_cp15_c9_0_c12_1_bkup
0803820c   csm_mcu_cp15_c9_0_c12_2_bkup
08038210   csm_mcu_cp15_c9_0_c12_3_bkup
08038214   csm_mcu_cp15_c9_0_c12_5_bkup
08038218   csm_mcu_cp15_c9_0_c13_0_bkup
0803821c   csm_mcu_cp15_c9_0_c13_1_bkup
08038220   csm_mcu_cp15_c9_0_c13_2_bkup
08038224   csm_mcu_cp15_c9_0_c14_0_bkup
08038228   csm_mcu_cp15_c9_0_c14_1_bkup
0803822c   csm_mcu_cp15_c9_0_c14_2_bkup
080381f8   csm_mcu_cp15_c9_0_c1_0_bkup
080381fc   csm_mcu_cp15_c9_0_c1_1_bkup
08038200   csm_mcu_cp15_c9_0_c2_0_bkup
080380dc   csm_mcu_cpsr_svc_backup
08038384   csm_mcu_dsccr_backup
08038388   csm_mcu_dscr_backup
08038380   csm_mcu_ecr_backup
08038278   csm_mcu_fpu_d0_high
08038274   csm_mcu_fpu_d0_low
080382c8   csm_mcu_fpu_d10_high
080382c4   csm_mcu_fpu_d10_low
080382d0   csm_mcu_fpu_d11_high
080382cc   csm_mcu_fpu_d11_low
080382d8   csm_mcu_fpu_d12_high
080382d4   csm_mcu_fpu_d12_low
080382e0   csm_mcu_fpu_d13_high
080382dc   csm_mcu_fpu_d13_low
080382e8   csm_mcu_fpu_d14_high
080382e4   csm_mcu_fpu_d14_low
080382f0   csm_mcu_fpu_d15_high
080382ec   csm_mcu_fpu_d15_low
08038280   csm_mcu_fpu_d1_high
0803827c   csm_mcu_fpu_d1_low
08038288   csm_mcu_fpu_d2_high
08038284   csm_mcu_fpu_d2_low
08038290   csm_mcu_fpu_d3_high
0803828c   csm_mcu_fpu_d3_low
08038298   csm_mcu_fpu_d4_high
08038294   csm_mcu_fpu_d4_low
080382a0   csm_mcu_fpu_d5_high
0803829c   csm_mcu_fpu_d5_low
080382a8   csm_mcu_fpu_d6_high
080382a4   csm_mcu_fpu_d6_low
080382b0   csm_mcu_fpu_d7_high
080382ac   csm_mcu_fpu_d7_low
080382b8   csm_mcu_fpu_d8_high
080382b4   csm_mcu_fpu_d8_low
080382c0   csm_mcu_fpu_d9_high
080382bc   csm_mcu_fpu_d9_low
080380d4   csm_mcu_linkregister_abort_bkup
080380cc   csm_mcu_linkregister_fiq_bkup
080380d0   csm_mcu_linkregister_irq_bkup
080380d8   csm_mcu_linkregister_undef_bkup
080380c8   csm_mcu_linkregister_user_bkup
080382f4   csm_mcu_lock_status_backup
0803838c   csm_mcu_prcr_backup
080380f4   csm_mcu_r0_bkup
0803811c   csm_mcu_r10_bkup
08038130   csm_mcu_r10_fiq_bkup
08038120   csm_mcu_r11_bkup
08038134   csm_mcu_r11_fiq_bkup
08038124   csm_mcu_r12_bkup
08038138   csm_mcu_r12_fiq_bkup
080380f8   csm_mcu_r1_bkup
080380fc   csm_mcu_r2_bkup
08038100   csm_mcu_r3_bkup
08038104   csm_mcu_r4_bkup
08038108   csm_mcu_r5_bkup
0803810c   csm_mcu_r6_bkup
08038110   csm_mcu_r7_bkup
08038114   csm_mcu_r8_bkup
08038128   csm_mcu_r8_fiq_bkup
08038118   csm_mcu_r9_bkup
0803812c   csm_mcu_r9_fiq_bkup
080380ec   csm_mcu_spsr_abort_backup
080380e4   csm_mcu_spsr_fiq_backup
080380e8   csm_mcu_spsr_irq_backup
080380e0   csm_mcu_spsr_svc_backup
080380f0   csm_mcu_spsr_undef_backup
080380c0   csm_mcu_stackpointer_abort_bkup
080380b8   csm_mcu_stackpointer_fiq_bkup
080380bc   csm_mcu_stackpointer_irq_bkup
080380b4   csm_mcu_stackpointer_svc_bkup
080380c4   csm_mcu_stackpointer_undef_bkup
080380b0   csm_mcu_stackpointer_user_bkup
0803837c   csm_mcu_vcr_backup
08038358   csm_mcu_wcr1_backup
0803835c   csm_mcu_wcr2_backup
08038360   csm_mcu_wcr3_backup
08038364   csm_mcu_wcr4_backup
08038368   csm_mcu_wcr5_backup
0803836c   csm_mcu_wcr6_backup
08038370   csm_mcu_wcr7_backup
08038374   csm_mcu_wcr8_backup
08038378   csm_mcu_wfar_backup
08038338   csm_mcu_wvr1_backup
0803833c   csm_mcu_wvr2_backup
08038340   csm_mcu_wvr3_backup
08038344   csm_mcu_wvr4_backup
08038348   csm_mcu_wvr5_backup
0803834c   csm_mcu_wvr6_backup
08038350   csm_mcu_wvr7_backup
08038354   csm_mcu_wvr8_backup
000c8360   custom_dabort
000c8170   custom_pabort
000c8860   custom_undef
0803d0b7   diag_request_safestate
000b34b0   get_mcu_configuration
000b05a0   get_shared_memory
08039b8c   io_adc_dio_cur_tb
0803990c   io_adc_pwm_cur_tb
0803d2c4   io_adc_stat_tb
0803b640   io_diag_state
0803d5f4   io_do_stat_tb
0803db54   io_driver_comp_threshold
0803db50   io_driver_nhet_start
0803db4d   io_driver_task_cycle
0803db4c   io_driver_use_safety
0803cd14   io_int_adc_results
0803dbf4   io_int_adc_stat_tb
0803ae10   io_int_data
0803cb90   io_int_pwd_SavedPulseSamples
0803c890   io_int_pwd_dc_buf0_0
0803c8d0   io_int_pwd_dc_buf0_1
0803c910   io_int_pwd_dc_buf1_0
0803c950   io_int_pwd_dc_buf1_1
0803c990   io_int_pwd_dc_buf2_0
0803c9d0   io_int_pwd_dc_buf2_1
0803ca10   io_int_pwd_dc_buf3_0
0803ca50   io_int_pwd_dc_buf3_1
0803ca90   io_int_pwd_dc_buf4_0
0803cad0   io_int_pwd_dc_buf4_1
0803cb10   io_int_pwd_dc_buf5_0
0803cb50   io_int_pwd_dc_buf5_1
0803c5fc   io_int_uart_buffer_rx
0803c3f0   io_int_uart_buffer_tx
0803c808   io_int_uart_int_rx_error
000c9ab8   io_nhet1_int_tb
000c9ad9   io_nhet2_int_tb
08039bbc   io_pin_tb
0803db9c   io_power_stage_enable
0803db84   io_power_stat_tb
0803d8f0   io_pvg_stat_tb
0803d4a4   io_pwd_stat_tb
0803b644   io_pwm_stat_tb
000cb490   main
000cb44d   memcmp
000cb23b   memcpy
000cb181   no_stm_memcpy
000cb3b5   no_stm_memset
0803dc09   variant_option_KL30VP_ADC
000c85e0   vim_parity_error


GLOBAL SYMBOLS: SORTED BY Symbol Address 

address    name
--------   ----
00000008   __SYSMEM_SIZE
000a0000   Apdb_t
000a0100   Csm_Mcu_EnableFpu
000a0130   Csm_Mcu_InitStackPointers
000a01b4   Csm_Mcu_CalculateSharedMemorySize
000a01e0   Csm_Mcu_CheckSharedMemory
000a02a0   Csm_Mcu_EnableEventBusExport
000a02b0   Csm_Mcu_DisableEventBusExport
000a02c0   Csm_Mcu_EnableEccFlash
000a02d4   Csm_Mcu_DisableEccFlash
000a02f0   Csm_Mcu_SetupFlash
000a0380   Csm_Mcu_SetupPLL
000a03e0   Csm_Mcu_PeriphInit1
000a0420   Csm_Mcu_PeriphInit2
000a0470   Csm_Mcu_PeriphInit3
000a04b0   Csm_Mcu_TrimLPO
000a0504   Csm_Mcu_CountClocks_Asm
000a0560   Csm_Mcu_WaitClocksLocked
000a0580   Csm_Mcu_SystemInitFinalStep
000a05b0   Csm_Mcu_SystemInitFinalStep2
000a05cc   Csm_Mcu_SystemInit
000a0644   Csm_Mcu_PBIST_Asm
000a0890   Csm_Mcu_TestPBIST
000a0890   Csm_Mcu_TestPBIST_Asm
000a08c0   Csm_Mcu_TestRamSection
000a08c0   Csm_Mcu_TestRamSection_Boot
000a08c8   Csm_Mcu_InitSharedMemorySize
000a08ec   Csm_Mcu_CopyMemory
000a0924   Csm_Mcu_TestRam_TwoSteps
000a09c0   Csm_Mcu_EnableEccRam
000a09d4   Csm_Mcu_DisableEccRam
000a09e8   Csm_Mcu_Errata_CORTEXR4_66
000a09fc   Csm_Mcu_InitRamSectionSW_Asm
000a0a60   Csm_Mcu_InitRamSaveSharedMemory
000a0aec   Csm_Mcu_InitRamSection
000a0aec   Csm_Mcu_InitRamSection_Asm
000a0c90   Csm_Mcu_Init
000a0e68   Csm_Mcu_InitCore
000a11c0   Csm_Dio_WriteChannel
000a1230   Csm_Access_NHETram
000a1370   Csm_Spi_GroupTransferIsComplete
000a1460   Csm_Spi_SetTxRamEx_u8
000a1610   Csm_Spi_SetTxRamEx_u16
000a17f0   Csm_Spi_StartGroupTransfer
000a185c   Csm_Mcu_Vim_Enable_HW_Vec_Mode_Asm
000a1874   Csm_Mcu_Vim_Disable_HW_Vec_Mode_Asm
000a18a0   Csm_Vim_Init
000a1a50   Csm_Esm_ErrorFlags
000a1b10   Csm_Mcu_ClearFlashErrorCount
000a1b30   Csm_Mcu_GetFlashErrorAddress
000a1b70   Csm_Mcu_ClearRamErrorCount
000a1bb0   Csm_Mcu_GetRamErrorAddress
000a1c10   Csm_Mcu_ClearEepromErrorCount
000a1c30   Csm_Mcu_GetEepromErrorAddress
000a1c70   Csm_Esm_GetErrorPin
000a1c90   Csm_Esm_GetErrorKey
000a1d00   Csm_Esm_RequestClearErrorPin
000a1d40   Csm_Esm_Init
000a1e40   Csm_Vim_EnableInterrupt
000a1e80   Csm_Mcu_EnterCriticalSection
000a1ea0   Csm_Esm_IntEnable
000a1f40   Csm_Esm_IntPriority
000a2140   Csm_Mcu_LeaveCriticalSection
000a2160   Csm_Esm_StartTest
000a2220   Csm_Esm_ClearErrorFlags
000a2380   Csm_Esm_GetTestResults
000a2400   Csm_Esm_StopTest
000a2450   Csm_Vim_TestRamParity
000a2530   Csm_Mcu_GetCosmoSharedMemory
000a2540   Csm_Mcu_TestL2L3interconnect
000a2690   Csm_Mcu_GetResetReason
000a2930   Csm_Mcu_TesteFuseECC
000a29c0   Csm_Mcu_TestFlashWrapperAddressECC
000a2ae0   Csm_Mcu_CheckStackPointerSave
000a2b08   Csm_Mcu_StackPointerSave
000a3220   Csm_Mcu_StackPointerRestore
000a3c40   Csm_Mcu_TestSTC
000a3cd4   Csm_Mcu_TestSTCContinue
000a3d70   Csm_Mcu_CpuSelfTest
000a3e18   Csm_Mcu_CpuSelfTestContinue
000a3f20   Csm_Mcu_PSCONSelfTest
000a4060   Csm_Mcu_GlobalInterruptEnable
000a4110   Csm_Mcu_CCMSelfTest
000a4290   Csm_Mcu_TestClockMonitor
000a4430   Csm2_Mcu_TestPll1Slip
000a45a0   Csm2_Mcu_TestPll2Slip
000a47e0   Csm_Mcu_TestRamECC
000a4980   Csm_Mcu_TestRamAddressBusParity
000a4c70   Csm_Mcu_TestRamAddressDecode
000a4cc0   Csm_Mcu_TestFlashDataECC
000a4e90   Csm_Mcu_TestFlashAddressBus1Parity
000a4fb0   Csm_Mcu_TestEepromECC
000a5080   Csm_Dcc_SelfTest
000a51e0   Csm_Mcu_TestIommLock
000a5210   Csm_Mcu_IommClearErrorAndFaultStatus
000a5250   Csm_Mcu_TestIommAddrProtError
000a53f0   Csm_Spi_Init
000a5740   Csm_Spi_TestMibSpiRamParity
000a5a20   Csm_Dio_InitChannel
000a5a90   Csm_Dio_Init
000a5c60   Csm_Dma_ConfigInterrupts
000a5e40   Csm_Dma_configMPU
000a5fd0   Csm_Dma_Init
000a61b0   Csm_Dma_ClearIrqFlag
000a62c0   Csm_Dma_ClearMpcFaultBit
000a6380   Csm_Dma_TriggerDMA
000a63b0   Csm_Dma_GetIrqFlag
000a64d0   Csm_Dma_GetMpcFaultBits
000a6ab0   Csm_Dma_TestMPU
000a6b30   Csm_Dma_TestRamParity
000a6c00   Csm_Dma_SetupTransfer
000a6db0   Csm_Dma_BasicFunctionalityTest
000a6ec0   Csm_Dma_TestImpreciseRead
000a7000   Csm_Can_EnterInitMode
000a7100   Csm_Dcc_Init
000a7220   Csm_Dio_ReadChannel
000a72a0   Csm_Dma_EnableHardwareTrigger
000a7370   Csm_Nhet_Init
000a7560   Csm_Nhet_TestRamParityNHET
000a76a0   Csm_Nhet_TestRamParityHTU
000a7920   Csm_Adc_Init
000a79f0   Csm_Adc_TestRamParity
000a7ae0   Csm_Nhet_SetPinDirection
000a7b90   Csm_Nhet_GetInstrPos
000a7bb0   Csm_Nhet_HTUSetup
000a7ce0   Csm_Nhet_AppendPrg
000a7e80   Csm_Mcu_I_Bit_Count
000a8060   Csm_Adc_ConfigureGroup
000a81d0   Csm_Adc_EnableHardwareTrigger
000a85b0   Csm_Pwm_Init
000a8660   Csm_Nhet_SetPinLevel
000a8690   Csm_Pwm_DisableChannel
000a9c80   Csm_Icu_Init
000a9e30   Csm_Nhet_EnableHTU
000a9e70   Csm_Nhet_Start
000a9ee0   Csm_Spi_SetTxRam_u16
000a9f00   Csm_Spi_GetBufferAddresses
000aa270   Csm_Esc_Init
000aa390   Csm_Spi_GetRxRamEx_u16
000aa530   Csm_Spi_GetRxRam_u16
000aa560   Csm_Esc_UpdateStatus
000aa900   Csm_Esc_Configure
000aacc0   Csm_Esm_GetResetCause
000aad50   Csm_Esc_ClearErrors
000aadf0   Csm_Esc_DisableDiagnosticModeTimeout
000ab060   Csm_Esc_TriggerWatchdog
000ab1e0   Csm_Esc_DecrementWdtFailureCounter
000ab740   Csm_Esc_ActivateWriteAccessLockProtection
000ab770   Csm_Esc_Activate
000ab870   Csm_Esm_ForceErrorPinState
000ab920   Csm_Esc_DriverEnable
000ab990   Csm_Vim_DisableInterrupt
000abd60   Csm_Can_Init
000ac0b0   Csm_Can_InitMsg
000ac250   Csm_Can_MsgStatus
000ac570   Csm_Can_WriteMsg
000ac610   Csm_Can_WriteTransmitMsg
000ac8a0   Csm_Dio_ReadBackCfg
000aca70   Csm_Nhet_ReadBackCfgNHET
000acca0   Csm_Nhet_ReadBackCfgHTU
000ad070   Csm_Mcu_ReadBackCfg_Base
000ad260   Csm_Mcu_ReadBackCfg_Flash
000ad2e0   Csm_Mcu_ReadBackCfg
000ad300   Csm_Esm_ReadBackCfg
000ad3cc   Csm_Mcu_Vim_Read_HW_Vec_Mode_Asm
000ad400   Csm_Vim_ReadBackCfg
000ad9c0   Csm_Dma_ReadBackCfg
000add50   Csm_Adc_ReadBackCfg
000adde0   Csm_Spi_ReadBackCfg
000ae120   Csm_Esm_StoreResetCause
000ae190   Csm_Esm_ForceErrorEndlessLoop
000ae1f0   Csm_Vim_PhantomInterrupt_ISR
000ae3b0   Csm_Esm_GetErrorPinAction
000ae420   Csm_Esm_HighLevel
000ae760   Csm_Esm_LowLevel
000ae960   Csm_Nhet_ReadOffsetIndexLevel1
000ae9a0   Csm_Nhet_ReturnLRP
000aeaf0   Csm_Pwm_GetDutyCycle
000aeb00   Csm_Dio_ChangeDirection
000aeb90   Csm_Nhet_ReadOffsetIndexLevel2
000aebd0   Csm_Dma_DisableHardwareTrigger
000aec00   Csm_Esc_PowerDown_ClrCANWUL
000aec30   Csm_Esc_ForceTpsReset
000aef30   Csm_Pwm_SetDutyCycle
000aef60   Csm_Pwm_SetPeriodAndDuty
000aefb0   Csm_Pwm_EnableChannel
000af0c0   Csm_Spi_GetRxRamEx_u8
000af260   Csm_Spi_GetRxRam_u8
000af290   Csm_Dma_GetDmaStatAndChanPend
000af2c0   Csm_Dma_PortBActiveChannelInfo
000af308   Csm_Mcu_GetFpuExceptionFlags
000af350   Csm_Vim_WriteInterruptVectorTable
000af3c0   Csm_Vim_GetParityError
000af530   ADC_MUX_nhet_prg
000af6e0   ICU_QE_3pins_special_highres_prg
000af950   ICU_QE_3pins_highres_prg
000afa30   ICU_QE_2pins_highres_prg
000afaf0   PWM_GPIO_prg
000afc98   Interrupt_prg
000afce8   PWM_output_prg
000afd78   ICU_dutycycle_prg
000afdb8   ICU_timestamp_edgecounter_prg
000afe08   PWM_SSW_prg
000afe28   ICU_simple_prg
000afe40   RAM_Fail
000afe44   _mpuDisable_
000afe64   _mpuDisableBackgroundRegion_
000afe7c   _mpuSetRegion_
000afe84   _mpuSetRegionBaseAddress_
000afe8c   _mpuSetRegionTypeAndPermission_
000afe94   _mpuSetRegionSizeAndEnable_
000afea0   IO_INT_MPU_SetupRegion
000aff04   _mpuEnableBackgroundRegion_
000aff1c   _mpuEnable_
000aff40   IO_INT_MPU_Init
000affa0   IO_INT_EMIF_UpdateTimings
000b0164   _mpuGetRegionSizeAndEnable_
000b0170   IO_INT_EMIF_Init
000b0504   _io_swi_handler
000b05a0   get_shared_memory
000b0830   IO_INT_RTC_Init
000b0870   IO_Driver_Enter_Critical_All
000b0a70   IO_Driver_Enter_Critical_IRQ
000b0ad0   IO_Driver_Leave_Critical_IRQ
000b0b40   IO_INT_WD_TPS_GetStatusAsync
000b0ba0   IO_INT_WD_GetStatus
000b0d00   IO_Driver_Leave_Critical_All
000b0dd0   IO_INT_SPI_Async_TriggerTransmission
000b0e10   IO_INT_SHIFT_Write
000b0ef0   IO_DO_WriteOutput
000b10b0   IO_INT_PWM_SSW_Disable
000b1130   IO_INT_PWM_SSW_Enable
000b1250   IO_POWER_WriteMode
000b1910   IO_INT_SPI_Async_Write
000b1ab0   IO_INT_SHIFT_Sync
000b1dd0   DIAG_RequestSafeState
000b1e70   DIAG_ERR_Notify
000b1fd0   DIAG_SSW_ModuleInit
000b1ff0   DIAG_ADC_ModuleInit
000b2010   DIAG_PWM_ModuleInit
000b2030   DIAG_DIO_ModuleInit
000b2060   DIAG_VMON_ModuleInit
000b2080   DIAG_ENTR_ModuleInit
000b20b0   DIAG_Init
000b2220   IO_INT_CRYPT_md5hash
000b25c0   IO_INT_SHM_VerifyIntegrity
000b2650   IO_INT_SHM_Init
000b26b0   DIAG_INT_GetFlashStatus
000b26d0   DIAG_INT_GetRamB0Status
000b26f0   DIAG_INT_GetRamB1Status
000b2840   DIAG_INT_GetCfgFlashStatus
000b2920   IO_INT_SHM_Read
000b29a0   IO_INT_ESM_CheckEsmInitStatus
000b2ae0   IO_INT_SHM_Write
000b2c20   IO_Tools_CalcCRC
000b2cb0   IO_INT_Variant_CheckProdData
000b2de0   IO_INT_Variant_GetProdCode
000b31f0   IO_INT_Variant_Init
000b3340   IO_INT_Variant_GetPinAvail_Option
000b33c0   IO_INT_Variant_GetPinAvail_IO
000b3430   IO_ADC_VariantInit
000b34b0   get_mcu_configuration
000b34c0   DIAG_INT_VimParityTest
000b350c   IO_INT_DEBUG_ReadDbgBaseAddr
000b3530   IO_INT_DEBUG_MaskDAbort
000b35b0   DIAG_INT_CoreInit
000b3ac0   IO_INT_SPI_Init
000b3b40   DIAG_INT_SpiParityTest
000b3bc0   DIAG_INT_DmaMpuTest
000b3c10   DIAG_INT_DmaParityTest
000b3c60   DIAG_INT_DmaBasicTest
000b3dd0   IO_CAN_CPU_InitDefault
000b3e20   IO_INT_SPI_SetBuffers
000b3ef0   IO_INT_SHIFT_Init
000b3f50   IO_POWER_Init
000b3fd0   DIAG_INT_DCC_Init
000b4370   IO_INT_Variant_GetPinAvail_Full
000b43e0   IO_CAN_FPGA_InitDefault
000b4570   IO_Driver_FPGA_Init
000b47d0   DIAG_INT_NhetParityTest
000b48a0   DIAG_INT_AdcParityTest
000b5450   IO_ADC_StatusInit
000b54a0   IO_INT_ADC_Init
000b6010   IO_PWM_StatusInit
000b60b0   IO_INT_PWM_Init
000b61d0   IO_PWD_StatusInit
000b6250   IO_INT_PWD_Init
000b6420   IO_INT_ADC_MuxEnable
000b6550   IO_INT_SPI_GetInitStatus
000b6590   IO_INT_WD_TPS_CommInit
000b6970   IO_INT_WD_TPS_GetStatusSync
000b6d10   IO_INT_WD_Init
000b6d90   IO_INT_WD_DWWD_IsInitialized
000b6da0   DIAG_WDInit
000b6e30   DIAG_INT_TPS_Triggering
000b7220   IO_INT_WD_TPS_TaskStart
000b72c0   IO_INT_RTC_SetupCompInt
000b7580   IO_INT_WD_TPS_IsActive
000b7890   IO_INT_WD_TPS_EnableDriver
000b7910   IO_INT_WD_TPS_StopTriggering
000b7960   DIAG_INT_MonitoringTaskTPSHandler
000b7a20   IO_INT_ESM_GetCallbackHighCnt
000b7a30   IO_INT_ESM_GetCallbackLowCnt
000b7a40   IO_INT_ESM_CheckEsmStatus
000b7b60   IO_Driver_Init
000b7de0   IO_Driver_SetFPUHandler
000b7ea0   IO_CAN_Init
000b8550   IO_CAN_ConfigMsgInt
000b8930   IO_CAN_ConfigMsg
000b8960   IO_RTC_StartTime
000b89a0   IO_INT_Driver_TaskBegin
000b8a90   IO_INT_WD_DWWD_Task
000b8bf0   IO_Driver_TaskBegin
000b8d00   IO_CAN_MsgStatus
000b9020   IO_CAN_WriteMsg
000b9220   IO_INT_RTC_ReadBackCfg
000b9380   DIAG_INT_CoreTaskB
000b9430   DIAG_SSW_Drop_Check
000b9530   IO_ADC_ReadValue
000b95a0   IO_DO_CheckOutputState
000b9630   IO_ADC_Read2V5RefSum
000b9660   IO_DO_GetVoltage_Int
000b97e0   DIAG_SSW_VPGate_Check
000b9a30   DIAG_SSW_ExtShutOff_Check
000b9b60   DIAG_VMON_Check
000b9bb0   DIAG_ADC_3ModeSwitchPeriodicCheck
000b9d70   IO_INT_SHIFT_Read
000b9dc0   DIAG_ADC_ShiftRegisterConfigurationCheck
000ba190   DIAG_ADC_RangeCheck
000ba310   DIAG_ADC_2V5Ref_Check
000ba350   DIAG_ADC_1V2_Check
000ba390   DIAG_ADC_Battery_Check
000ba3d0   DIAG_ADC_BoardTemp_Check
000ba410   DIAG_ADC_SSup5V_Check
000ba4a0   DIAG_DIO_OutputCheck
000ba610   DIAG_PWM_OutputCheck
000ba7f0   DIAG_PWM_CurrentCheck
000ba930   DIAG_PWD_RangeCheck
000bab10   DIAG_PWD_CurrentCheck
000babf0   DIAG_PWD_ThresholdCheck
000bac30   DIAG_INT_CoreTaskA
000baf40   DIAG_Task_Appl
000baf60   IO_Driver_TaskEnd
000baf90   IO_RTC_GetTimeUS
000bafc0   _c_int00
000bb034   _mpuReadState_
000bb060   _mpuWriteState_
000bb0a0   IO_INT_MPU_InternalCodeBegin
000bb100   crossover_interrupt
000bb104   _mpuWriteStateDescend_
000bb140   IO_INT_MPU_InternalCodeEnd
000bb15c   IO_INT_ESM_HL_ISR
000bb1e0   IO_INT_ESM_LL_ISR
000bb250   IO_INT_PWM_GPIO_GetDuty
000bb730   IO_INT_PWD_GetFPGALrPWM
000bb770   IO_INT_PWD_GetFPGAHrPWM
000bb7b0   IO_PWM_ReadPinLevel
000bb830   DIAG_PWM_ShortCircuitTestPerform
000bba70   DIAG_VMON_TestPerform
000bbd70   IO_PWM_N2HETx_interrupt
000bbf70   IO_PWM_N2HETx_ISR
000bbfc0   DIAG_ENTR_TestPerform
000bded0   DIAG_DIO_ShortCircuitTestPerform
000bdfe0   DIAG_ADC_2ModeConfTestPerform
000be220   DIAG_ADC_3ModeSwitchTestPerform
000be950   DIAG_SSW_TestPerform
000bed70   IO_ADC_N2HET2_ISR
000bede0   IO_INT_ADC_Enqueue
000bee10   IO_PWM_CurrentCalc
000bef50   IO_DO_CheckCurrent
000beff0   IO_INT_UART_StopTxDMA
000bf050   IO_INT_UART_CircularBufferRead
000bf220   IO_INT_UART_TxDMAHandler
000bf3c0   IO_INT_DMA_BTCA_int
000bf430   IO_ADC_Calc2V5RefSum
000bf4e0   IO_ADC_CalcBatteryVoltage
000bf5c0   IO_INT_PVG_VOUT_WriteOutput
000bf630   IO_INT_PVG_VOUT_SetVoltage
000bf690   IO_INT_PVG_VOUT_ControlTask
000bf710   IO_INT_WD_HardReset
000bf7a0   IO_POWER_ShutDown_Task
000c00c0   IO_ADC_GetSSupMode
000c0120   IO_ADC_GetPVGType
000c0330   IO_ADC_GetDOType
000c0bd0   IO_ADC_Get2ModeType
000c0d00   IO_ADC_Get3ModeType
000c1120   IO_ADC_Get
000c1490   IO_ADC_SystemTask
000c14c0   IO_INT_WD_TPS_TaskCyclic
000c1610   IO_INT_MDIO_GetPhyLinkStatus
000c1680   IO_INT_MDIO_ReadPhyReg
000c1700   IO_PHY_DP83848x_GetSpeed
000c17d0   IO_INT_EMAC_RMIISpeedSet
000c1810   IO_INT_EMAC_DuplexSet
000c1850   IO_INT_ETH_CheckLink
000c1980   IO_INT_EMAC_RxCPWrite
000c1990   IO_INT_EMAC_RxHdrDescPtrWrite
000c19a0   IO_INT_EMAC_CoreIntAck
000c1bb0   IO_INT_ETH_Read
000c1c50   IO_INT_DOWNLOAD_FrameAllowed
000c1cd0   IO_INT_DOWNLOAD_Crypt
000c1e50   IO_INT_UDP_CalcIpChecksum
000c1f30   IO_INT_UDP_CalcUdpChecksum
000c21f0   IO_INT_ETH_GetWriteStatus
000c2240   IO_INT_EMAC_TxCPWrite
000c2310   IO_INT_EMAC_TxHdrDescPtrWrite
000c2520   IO_INT_ETH_Write
000c25e0   IO_INT_DOWNLOAD_Send_UDP
000c2780   IO_INT_DOWNLOAD_SavePCData
000c27f0   IO_INT_DOWNLOAD_Task
000c2ac0   DIAG_INT_TPS_CheckTriggering
000c2bb0   IO_INT_ADC_DequeueSingle
000c33a0   IO_INT_PWM_GPIO_SetPeriodAndDuty
000c34b0   IO_INT_PWM_GPIO_SetDuty
000c36c0   IO_INT_PWM_GPIO_ChEnable
000c37b0   IO_PWM_ProtectionTask
000c3f70   IO_INT_WD_TPS_TaskStatusSave
000c4010   IO_INT_PWM_Timer_Disable
000c40f0   IO_POWER_Restore
000c4180   DIAG_VMON_TestCheck
000c41a0   DIAG_ENTR_TestCheck
000c41c0   DIAG_ADC_2ModeConfTestCheck
000c41e0   DIAG_ADC_3ModeSwitchTestCheck
000c4200   DIAG_PWM_ShortCircuitTestCheck
000c4220   DIAG_DIO_ShortCircuitTestCheck
000c4240   DIAG_SSW_TestCheck
000c4260   DIAG_PWM_LoadCheck_OL
000c4370   DIAG_DIO_LoadCheck
000c44a0   DIAG_PWM_LoadCheck_SC
000c4580   IO_INT_PWM_Timer_Setup
000c4960   DIAG_Task_Int
000c49f0   IO_INT_WD_TPS_TaskStatusRequest
000c4a40   IO_DO_CheckCurProtLimit
000c4b10   IO_DO_ProtectionTask
000c4e60   IO_PWD_ProtectionTask
000c50b0   IO_ADC_ProtectionTask
000c5300   IO_INT_PVG_VOUT_ProtectionTask
000c6680   IO_FLASH_Task
000c68e0   IO_INT_LIN_Task
000c6b90   IO_INT_SPI_Async_Rx_Task
000c6c30   IO_INT_SPI_Async_ReceptionCompleted
000c6c80   IO_INT_SPI_Async_TransferCompleted
000c6cd0   IO_INT_SPI_Clear_Buffers
000c6e60   IO_INT_SPI_SetBufferSize
000c73f0   IO_EEPROM_Task
000c7460   IO_INT_RTC_DateAndTimeTask
000c77c0   IO_INT_SPI_Async_Tx_Task
000c79a0   IO_INT_RTC_Comp0_int
000c7aa0   IO_INT_UART_int
000c7b10   IO_INT_UART_CircularBufferWrite
000c7c10   IO_INT_UART_RxDMAHandler
000c7e20   IO_INT_DMA_HBCA_int
000c7e90   IO_Driver_FPU_InterruptHandler
000c7ef0   IO_INT_RTC_Comp1_int
000c7fd0   IO_INT_ESM_GetDeviceNumber
000c8030   IO_INT_ESM_ErrorCallbackLow
000c8100   IO_INT_ESM_ErrorCallbackHigh
000c8170   custom_pabort
000c8218   _io_data_handler_startup
000c8358   _io_data_handler_runtime
000c8360   custom_dabort
000c83f0   _io_prefetch_handler
000c8450   _io_undef_handler
000c85e0   vim_parity_error
000c8630   Csm_Dma_Wait
000c8770   IO_CAN_WaitCanTransfer
000c87b0   IO_CAN_WaitInitNormalMode
000c87f0   IO_CAN_WaitLocalPowerDown
000c8850   IO_INT_FPU_ISR
000c8860   custom_undef
000c8950   IO_VariantCfg_HW
000c8cf8   IO_VariantCfg_SW
000c9508   CrcPolynome_u32a
000c9ab8   io_nhet1_int_tb
000c9ad9   io_nhet2_int_tb
000ca098   Csm_Dio_PortConfig
000ca110   Csm_Dio_Config
000ca3ac   Csm_Mcu_Config
000ca464   Csm_Mcu_ConfigBtld
000ca51c   Csm_Pwm_ChannelConfig
000ca6fc   Csm_Pwm_Config
000ca734   IO_SPI_CH1_Config
000ca7b8   IO_SPI_CH3_Config
000ca83c   Csm_Spi_EscTransmitConfig
000ca840   IO_INT_SPI_TransferConfigs
000ca870   IO_INT_SPI_ChannelConfigs
000ca878   Csm_Icu_ChannelDutyCycleConfig
000ca8f0   Csm_Icu_ChannelTimeStampConfig
000ca980   Csm_Icu_ChannelQuadraturConfig
000ca9b8   Csm_Icu_Config
000ca9dc   IO_INT_MPU_RamECC
000ca9f0   IO_INT_MPU_MirroredFlash
000cabd4   Csm_Dma_MPConfig
000cac14   Csm_Dma_TestMPConfig
000cac54   Csm_Dma_TempMPConfig
000cac94   Csm_Dma_Config
000cae10   Csm_ch_cfg_CAN
000caf80   Csm_Adc_Config
000cb060   Csm_Nhet_Config
000cb08e   FpgaRuntimeTiming
000cb098   EmifConfig
000cb0a8   FlashTiming_HW3
000cb0b2   FlashTiming_HW5
000cb0bc   Csm_Esm_SafeConfig
000cb0e0   Csm_Esm_NonSafeConfig
000cb134   Csm_Dcc0_Config
000cb148   Csm_Dcc1_Config
000cb181   no_stm_memcpy
000cb23b   __aeabi_memcpy
000cb23b   __aeabi_memcpy4
000cb23b   __aeabi_memcpy8
000cb23b   memcpy
000cb2d9   copy_in
000cb321   __TI_auto_init
000cb3b5   no_stm_memset
000cb44d   memcmp
000cb46f   __aeabi_llsl
000cb490   main
000cb719   __TI_zero_init
000cb72b   __TI_decompress_none
000cb739   __TI_decompress_rle24
000cb990   __TI_static_base__
000cc45c   __TI_Handler_Table_Base
000cc468   __TI_Handler_Table_Limit
000cc488   __TI_CINIT_Base
000cc4a8   __TI_CINIT_Limit
08000020   _StackUSER_END_
08000100   _StackFIQ_END_
08000100   _StackUSER_
08000400   _StackFIQ_
08000400   _StackIRQ_END_
08000800   _StackABORT_END_
08000800   _StackIRQ_
08000a00   _StackABORT_
08000a00   _StackUND_END_
08000c00   _StackSUPER_END_
08000c00   _StackUND_
08003000   _StackSUPER_
08003000   _sys_memory
08038000   _ProtectedRAM_
080380b0   csm_mcu_stackpointer_user_bkup
080380b4   csm_mcu_stackpointer_svc_bkup
080380b8   csm_mcu_stackpointer_fiq_bkup
080380bc   csm_mcu_stackpointer_irq_bkup
080380c0   csm_mcu_stackpointer_abort_bkup
080380c4   csm_mcu_stackpointer_undef_bkup
080380c8   csm_mcu_linkregister_user_bkup
080380cc   csm_mcu_linkregister_fiq_bkup
080380d0   csm_mcu_linkregister_irq_bkup
080380d4   csm_mcu_linkregister_abort_bkup
080380d8   csm_mcu_linkregister_undef_bkup
080380dc   csm_mcu_cpsr_svc_backup
080380e0   csm_mcu_spsr_svc_backup
080380e4   csm_mcu_spsr_fiq_backup
080380e8   csm_mcu_spsr_irq_backup
080380ec   csm_mcu_spsr_abort_backup
080380f0   csm_mcu_spsr_undef_backup
080380f4   csm_mcu_r0_bkup
080380f8   csm_mcu_r1_bkup
080380fc   csm_mcu_r2_bkup
08038100   csm_mcu_r3_bkup
08038104   csm_mcu_r4_bkup
08038108   csm_mcu_r5_bkup
0803810c   csm_mcu_r6_bkup
08038110   csm_mcu_r7_bkup
08038114   csm_mcu_r8_bkup
08038118   csm_mcu_r9_bkup
0803811c   csm_mcu_r10_bkup
08038120   csm_mcu_r11_bkup
08038124   csm_mcu_r12_bkup
08038128   csm_mcu_r8_fiq_bkup
0803812c   csm_mcu_r9_fiq_bkup
08038130   csm_mcu_r10_fiq_bkup
08038134   csm_mcu_r11_fiq_bkup
08038138   csm_mcu_r12_fiq_bkup
0803813c   csm_mcu_cp15_c0_2_c0_0_bkup
08038140   csm_mcu_cp15_c1_0_c0_0_bkup
08038144   csm_mcu_cp15_c1_0_c0_1_bkup
08038148   csm_mcu_cp15_c1_0_c0_2_bkup
0803814c   csm_mcu_cp15_c5_0_c0_0_bkup
08038150   csm_mcu_cp15_c5_0_c0_1_bkup
08038154   csm_mcu_cp15_c5_0_c1_0_bkup
08038158   csm_mcu_cp15_c5_0_c1_1_bkup
0803815c   csm_mcu_cp15_c6_0_c0_0_bkup
08038160   csm_mcu_cp15_c6_0_c0_2_bkup
08038164   csm_mcu_cp15_c6_0_c1_0_bkup
08038194   csm_mcu_cp15_c6_0_c1_2_bkup
080381c4   csm_mcu_cp15_c6_0_c1_4_bkup
080381f4   csm_mcu_cp15_c6_0_c2_0_bkup
080381f8   csm_mcu_cp15_c9_0_c1_0_bkup
080381fc   csm_mcu_cp15_c9_0_c1_1_bkup
08038200   csm_mcu_cp15_c9_0_c2_0_bkup
08038204   csm_mcu_cp15_c9_0_c12_0_bkup
08038208   csm_mcu_cp15_c9_0_c12_1_bkup
0803820c   csm_mcu_cp15_c9_0_c12_2_bkup
08038210   csm_mcu_cp15_c9_0_c12_3_bkup
08038214   csm_mcu_cp15_c9_0_c12_5_bkup
08038218   csm_mcu_cp15_c9_0_c13_0_bkup
0803821c   csm_mcu_cp15_c9_0_c13_1_bkup
08038220   csm_mcu_cp15_c9_0_c13_2_bkup
08038224   csm_mcu_cp15_c9_0_c14_0_bkup
08038228   csm_mcu_cp15_c9_0_c14_1_bkup
0803822c   csm_mcu_cp15_c9_0_c14_2_bkup
08038230   csm_mcu_cp15_c11_0_c0_0_bkup
08038234   csm_mcu_cp15_c13_0_c0_1_bkup
08038238   csm_mcu_cp15_c13_0_c0_2_bkup
0803823c   csm_mcu_cp15_c13_0_c0_3_bkup
08038240   csm_mcu_cp15_c13_0_c0_4_bkup
08038244   csm_mcu_cp15_c15_0_c0_0_bkup
08038248   csm_mcu_cp15_c15_0_c1_0_bkup
0803824c   csm_mcu_cp15_c15_0_c1_1_bkup
08038250   csm_mcu_cp15_c15_0_c1_2_bkup
08038254   csm_mcu_cp15_c15_0_c1_3_bkup
08038258   csm_mcu_cp15_c15_0_c1_4_bkup
0803825c   csm_mcu_cp15_c15_0_c1_5_bkup
08038260   csm_mcu_cp15_c15_0_c1_6_bkup
08038264   csm_mcu_cp15_c15_0_c1_7_bkup
08038268   csm_mcu_cp15_c15_0_c3_0_bkup
0803826c   csm_mcu_cp13_fpexc_backup
08038270   csm_mcu_cp13_fpscr_backup
08038274   csm_mcu_fpu_d0_low
08038278   csm_mcu_fpu_d0_high
0803827c   csm_mcu_fpu_d1_low
08038280   csm_mcu_fpu_d1_high
08038284   csm_mcu_fpu_d2_low
08038288   csm_mcu_fpu_d2_high
0803828c   csm_mcu_fpu_d3_low
08038290   csm_mcu_fpu_d3_high
08038294   csm_mcu_fpu_d4_low
08038298   csm_mcu_fpu_d4_high
0803829c   csm_mcu_fpu_d5_low
080382a0   csm_mcu_fpu_d5_high
080382a4   csm_mcu_fpu_d6_low
080382a8   csm_mcu_fpu_d6_high
080382ac   csm_mcu_fpu_d7_low
080382b0   csm_mcu_fpu_d7_high
080382b4   csm_mcu_fpu_d8_low
080382b8   csm_mcu_fpu_d8_high
080382bc   csm_mcu_fpu_d9_low
080382c0   csm_mcu_fpu_d9_high
080382c4   csm_mcu_fpu_d10_low
080382c8   csm_mcu_fpu_d10_high
080382cc   csm_mcu_fpu_d11_low
080382d0   csm_mcu_fpu_d11_high
080382d4   csm_mcu_fpu_d12_low
080382d8   csm_mcu_fpu_d12_high
080382dc   csm_mcu_fpu_d13_low
080382e0   csm_mcu_fpu_d13_high
080382e4   csm_mcu_fpu_d14_low
080382e8   csm_mcu_fpu_d14_high
080382ec   csm_mcu_fpu_d15_low
080382f0   csm_mcu_fpu_d15_high
080382f4   csm_mcu_lock_status_backup
080382f8   csm_mcu_bvr1_backup
080382fc   csm_mcu_bvr2_backup
08038300   csm_mcu_bvr3_backup
08038304   csm_mcu_bvr4_backup
08038308   csm_mcu_bvr5_backup
0803830c   csm_mcu_bvr6_backup
08038310   csm_mcu_bvr7_backup
08038314   csm_mcu_bvr8_backup
08038318   csm_mcu_bcr1_backup
0803831c   csm_mcu_bcr2_backup
08038320   csm_mcu_bcr3_backup
08038324   csm_mcu_bcr4_backup
08038328   csm_mcu_bcr5_backup
0803832c   csm_mcu_bcr6_backup
08038330   csm_mcu_bcr7_backup
08038334   csm_mcu_bcr8_backup
08038338   csm_mcu_wvr1_backup
0803833c   csm_mcu_wvr2_backup
08038340   csm_mcu_wvr3_backup
08038344   csm_mcu_wvr4_backup
08038348   csm_mcu_wvr5_backup
0803834c   csm_mcu_wvr6_backup
08038350   csm_mcu_wvr7_backup
08038354   csm_mcu_wvr8_backup
08038358   csm_mcu_wcr1_backup
0803835c   csm_mcu_wcr2_backup
08038360   csm_mcu_wcr3_backup
08038364   csm_mcu_wcr4_backup
08038368   csm_mcu_wcr5_backup
0803836c   csm_mcu_wcr6_backup
08038370   csm_mcu_wcr7_backup
08038374   csm_mcu_wcr8_backup
08038378   csm_mcu_wfar_backup
0803837c   csm_mcu_vcr_backup
08038380   csm_mcu_ecr_backup
08038384   csm_mcu_dsccr_backup
08038388   csm_mcu_dscr_backup
0803838c   csm_mcu_prcr_backup
0803990c   io_adc_pwm_cur_tb
08039b8c   io_adc_dio_cur_tb
08039bbc   io_pin_tb
0803add2   IO_INT_DOWNLOAD_State
0803add3   IO_INT_DOWNLOAD_AutoRead
0803add4   IO_INT_DOWNLOAD_rx_frame
0803adec   IO_INT_DOWNLOAD_tx_frame
0803ae04   IO_INT_DOWNLOAD_MyIp
0803ae10   io_int_data
0803b640   io_diag_state
0803b644   io_pwm_stat_tb
0803c3f0   io_int_uart_buffer_tx
0803c5fc   io_int_uart_buffer_rx
0803c808   io_int_uart_int_rx_error
0803c80c   IO_INT_UART_TxDmaBuffer
0803c84c   IO_INT_UART_TxDmaRunning
0803c850   IO_INT_UART_RxDmaBuffer
0803c890   io_int_pwd_dc_buf0_0
0803c8d0   io_int_pwd_dc_buf0_1
0803c910   io_int_pwd_dc_buf1_0
0803c950   io_int_pwd_dc_buf1_1
0803c990   io_int_pwd_dc_buf2_0
0803c9d0   io_int_pwd_dc_buf2_1
0803ca10   io_int_pwd_dc_buf3_0
0803ca50   io_int_pwd_dc_buf3_1
0803ca90   io_int_pwd_dc_buf4_0
0803cad0   io_int_pwd_dc_buf4_1
0803cb10   io_int_pwd_dc_buf5_0
0803cb50   io_int_pwd_dc_buf5_1
0803cb90   io_int_pwd_SavedPulseSamples
0803cd14   io_int_adc_results
0803d0b7   diag_request_safestate
0803d0b8   Csm_Vim_Config
0803d2c4   io_adc_stat_tb
0803d4a4   io_pwd_stat_tb
0803d5f4   io_do_stat_tb
0803d734   Csm_Dma_ChannelConfig
0803d8f0   io_pvg_stat_tb
0803d990   IO_INT_RTC_DateAndTime_Write_InProgress
0803d991   IO_INT_RTC_DateAndTime_Read_InProgress
0803d994   IO_INT_RTC_GetDateAndTime_seconds
0803d998   IO_INT_RTC_GetDateAndTime_minutes
0803d99c   IO_INT_RTC_GetDateAndTime_hours
0803d9a0   IO_INT_RTC_GetDateAndTime_days
0803d9a4   IO_INT_RTC_GetDateAndTime_months
0803d9a8   IO_INT_RTC_GetDateAndTime_years
0803d9ac   IO_INT_RTC_SetDateAndTime_seconds_bcd
0803d9ad   IO_INT_RTC_SetDateAndTime_minutes_bcd
0803d9ae   IO_INT_RTC_SetDateAndTime_hours_bcd
0803d9af   IO_INT_RTC_SetDateAndTime_days_bcd
0803d9b0   IO_INT_RTC_SetDateAndTime_months_bcd
0803d9b1   IO_INT_RTC_SetDateAndTime_years_bcd
0803d9b2   IO_INT_RTC_ClockIntegrityCheckFailed
0803d9b4   IO_INT_RTC_Config
0803dacc   Csm_Esc_Config
0803db4c   io_driver_use_safety
0803db4d   io_driver_task_cycle
0803db50   io_driver_nhet_start
0803db54   io_driver_comp_threshold
0803db84   io_power_stat_tb
0803db9c   io_power_stage_enable
0803dbc8   DIAG_INT_DmaSrcData
0803dbd0   DIAG_INT_DmaDestData
0803dbf4   io_int_adc_stat_tb
0803dc09   variant_option_KL30VP_ADC
0803dc0c   IO_INT_LIN_RxBuffer
0803dc10   IO_INT_LIN_Ready
0803dc11   IO_INT_LIN_TimeoutCheck
0803dc12   IO_INT_LIN_Error
0803dc14   IO_INT_LIN_tBit
0803dc18   IO_INT_LIN_tFrameMax
0803dc1c   IO_INT_LIN_tFrameStart
0803dc20   Csm_bit_cfg_CAN
0803dc50   IO_MPU_policySetting
0803dc54   IO_INT_SPI_First_Transfer
0803fee0   Csm_Mcu_SharedMem
ffffffff   __binit__
ffffffff   __c_args__
ffffffff   binit
UNDEFED    SHT$$INIT_ARRAY$$Base
UNDEFED    SHT$$INIT_ARRAY$$Limit

[772 symbols]


SYMBOL DEFINITIONS BY INPUT FILE 

================================================================================

main.obj

Run/Load            
Value     Binding   Name (Section)
--------  --------  ---------------
000cb590  local     $C$L1 (.text:main)
000cb660  local     $C$L2 (.text:main)
000cb690  local     $C$L3 (.text:main)
000cb6a4  local     $C$L4 (.text:main)
000cb974  local     $P$T0$1 (.const)
000cb490  local     $a (.text:main)
000cb740  local     $a (.text:APPL_ErrorCb)
000cb760  local     $a (.text:APPL_NotifyCb)
000cb750  local     $a (.text:APPL_FPUhandler)
000a0000  local     $d (.APDB_SEC)
000cb974  local     $d (.const)
000a0000  local     .APDB_SEC (.APDB_SEC)
000cb974  local     .const (.const)
00000000  local     .text (.text)
000cb740  local     .text:APPL_ErrorCb (.text:APPL_ErrorCb)
000cb750  local     .text:APPL_FPUhandler (.text:APPL_FPUhandler)
000cb760  local     .text:APPL_NotifyCb (.text:APPL_NotifyCb)
000cb490  local     .text:main (.text:main)
000cb740  local     APPL_ErrorCb (.text:APPL_ErrorCb)
000cb750  local     APPL_FPUhandler (.text:APPL_FPUhandler)
000cb760  local     APPL_NotifyCb (.text:APPL_NotifyCb)
000a0000  global    Apdb_t (.APDB_SEC)
000cb490  global    main (.text:main)


================================================================================

ttc500.lib : drv_IO_RTC.obj

Run/Load            
Value     Binding   Name (Section)
--------  --------  ---------------
000b8998  local     $C$L1 (.IO_DRIVER_CODE:IO_RTC_StartTime)
0000009c  local     $C$L10 (.IO_DRIVER_CODE:IO_RTC_PeriodicInit)
00000048  local     $C$L11 (.IO_DRIVER_CODE:IO_RTC_PeriodicDeInit)
0000005c  local     $C$L12 (.IO_DRIVER_CODE:IO_RTC_InitDateAndTime)
000000f0  local     $C$L13 (.IO_DRIVER_CODE:IO_RTC_GetDateAndTime)
000000f8  local     $C$L14 (.IO_DRIVER_CODE:IO_RTC_GetDateAndTime)
000000fc  local     $C$L15 (.IO_DRIVER_CODE:IO_RTC_GetDateAndTime)
00000034  local     $C$L16 (.IO_DRIVER_CODE:IO_RTC_DeInitDateAndTime)
00000098  local     $C$L2 (.IO_DRIVER_CODE:IO_RTC_GetDateAndTimeStatus)
000000a0  local     $C$L3 (.IO_DRIVER_CODE:IO_RTC_GetDateAndTimeStatus)
00000040  local     $C$L4 (.IO_DRIVER_CODE:IO_RTC_CheckDateAndTimeParm)
00000048  local     $C$L5 (.IO_DRIVER_CODE:IO_RTC_CheckDateAndTimeParm)
0000013c  local     $C$L6 (.IO_DRIVER_CODE:IO_RTC_SetDateAndTime)
00000140  local     $C$L7 (.IO_DRIVER_CODE:IO_RTC_SetDateAndTime)
0000014c  local     $C$L8 (.IO_DRIVER_CODE:IO_RTC_SetDateAndTime)
00000098  local     $C$L9 (.IO_DRIVER_CODE:IO_RTC_PeriodicInit)
000b8960  local     $a (.IO_DRIVER_CODE:IO_RTC_StartTime)
00000000  local     $a (.IO_DRIVER_CODE:IO_RTC_GetDateAndTimeStatus)
00000000  local     $a (.IO_DRIVER_CODE:IO_RTC_CheckDateAndTimeParm)
00000000  local     $a (.IO_DRIVER_CODE:IO_RTC_SetDateAndTime)
00000000  local     $a (.IO_DRIVER_CODE:IO_RTC_PeriodicInit)
00000000  local     $a (.IO_DRIVER_CODE:IO_RTC_PeriodicDeInit)
00000000  local     $a (.IO_DRIVER_CODE:IO_RTC_InitDateAndTime)
000baf90  local     $a (.IO_DRIVER_CODE:IO_RTC_GetTimeUS)
00000000  local     $a (.IO_DRIVER_CODE:IO_RTC_GetDateAndTime)
00000000  local     $a (.IO_DRIVER_CODE:IO_RTC_DeInitDateAndTime)
00000000  local     .IO_DRIVER_CODE:IO_RTC_CheckDateAndTimeParm (.IO_DRIVER_CODE:IO_RTC_CheckDateAndTimeParm)
00000000  local     .IO_DRIVER_CODE:IO_RTC_DeInitDateAndTime (.IO_DRIVER_CODE:IO_RTC_DeInitDateAndTime)
00000000  local     .IO_DRIVER_CODE:IO_RTC_GetDateAndTime (.IO_DRIVER_CODE:IO_RTC_GetDateAndTime)
00000000  local     .IO_DRIVER_CODE:IO_RTC_GetDateAndTimeStatus (.IO_DRIVER_CODE:IO_RTC_GetDateAndTimeStatus)
000baf90  local     .IO_DRIVER_CODE:IO_RTC_GetTimeUS (.IO_DRIVER_CODE:IO_RTC_GetTimeUS)
00000000  local     .IO_DRIVER_CODE:IO_RTC_InitDateAndTime (.IO_DRIVER_CODE:IO_RTC_InitDateAndTime)
00000000  local     .IO_DRIVER_CODE:IO_RTC_PeriodicDeInit (.IO_DRIVER_CODE:IO_RTC_PeriodicDeInit)
00000000  local     .IO_DRIVER_CODE:IO_RTC_PeriodicInit (.IO_DRIVER_CODE:IO_RTC_PeriodicInit)
00000000  local     .IO_DRIVER_CODE:IO_RTC_SetDateAndTime (.IO_DRIVER_CODE:IO_RTC_SetDateAndTime)
000b8960  local     .IO_DRIVER_CODE:IO_RTC_StartTime (.IO_DRIVER_CODE:IO_RTC_StartTime)
00000000  local     .text (.text)
00000000  local     IO_RTC_CheckDateAndTimeParm (.IO_DRIVER_CODE:IO_RTC_CheckDateAndTimeParm)
00000000  global    IO_RTC_DeInitDateAndTime (.IO_DRIVER_CODE:IO_RTC_DeInitDateAndTime)
00000000  global    IO_RTC_GetDateAndTime (.IO_DRIVER_CODE:IO_RTC_GetDateAndTime)
00000000  global    IO_RTC_GetDateAndTimeStatus (.IO_DRIVER_CODE:IO_RTC_GetDateAndTimeStatus)
000baf90  global    IO_RTC_GetTimeUS (.IO_DRIVER_CODE:IO_RTC_GetTimeUS)
00000000  global    IO_RTC_InitDateAndTime (.IO_DRIVER_CODE:IO_RTC_InitDateAndTime)
00000000  global    IO_RTC_PeriodicDeInit (.IO_DRIVER_CODE:IO_RTC_PeriodicDeInit)
00000000  global    IO_RTC_PeriodicInit (.IO_DRIVER_CODE:IO_RTC_PeriodicInit)
00000000  global    IO_RTC_SetDateAndTime (.IO_DRIVER_CODE:IO_RTC_SetDateAndTime)
000b8960  global    IO_RTC_StartTime (.IO_DRIVER_CODE:IO_RTC_StartTime)


================================================================================

ttc500.lib : drv_IO_INT_SPI.obj

Run/Load            
Value     Binding   Name (Section)
--------  --------  ---------------
000b1870  local     $C$L1 (.IO_DRIVER_CODE:IO_INT_SPI_GetConfigItems)
00000254  local     $C$L10 (.IO_DRIVER_CODE:IO_INT_SPI_Sync_Transfer)
00000258  local     $C$L11 (.IO_DRIVER_CODE:IO_INT_SPI_Sync_Transfer)
00000260  local     $C$L12 (.IO_DRIVER_CODE:IO_INT_SPI_Sync_Transfer)
00000268  local     $C$L13 (.IO_DRIVER_CODE:IO_INT_SPI_Sync_Transfer)
0000026c  local     $C$L14 (.IO_DRIVER_CODE:IO_INT_SPI_Sync_Transfer)
000b3eb4  local     $C$L15 (.IO_DRIVER_CODE:IO_INT_SPI_SetBuffers)
000c6ec8  local     $C$L16 (.IO_DRIVER_CODE:IO_INT_SPI_SetBufferSize)
000b3b28  local     $C$L17 (.IO_DRIVER_CODE:IO_INT_SPI_Init)
000b657c  local     $C$L18 (.IO_DRIVER_CODE:IO_INT_SPI_GetInitStatus)
000c6d94  local     $C$L19 (.IO_DRIVER_CODE:IO_INT_SPI_Clear_Buffers)
000b1878  local     $C$L2 (.IO_DRIVER_CODE:IO_INT_SPI_GetConfigItems)
000c6da0  local     $C$L20 (.IO_DRIVER_CODE:IO_INT_SPI_Clear_Buffers)
000c6dc4  local     $C$L21 (.IO_DRIVER_CODE:IO_INT_SPI_Clear_Buffers)
000b19d4  local     $C$L22 (.IO_DRIVER_CODE:IO_INT_SPI_Async_Write)
000b1a40  local     $C$L23 (.IO_DRIVER_CODE:IO_INT_SPI_Async_Write)
000b1a7c  local     $C$L24 (.IO_DRIVER_CODE:IO_INT_SPI_Async_Write)
000b1a98  local     $C$L25 (.IO_DRIVER_CODE:IO_INT_SPI_Async_Write)
000b1aa0  local     $C$L26 (.IO_DRIVER_CODE:IO_INT_SPI_Async_Write)
000b1aa8  local     $C$L27 (.IO_DRIVER_CODE:IO_INT_SPI_Async_Write)
000c7800  local     $C$L28 (.IO_DRIVER_CODE:IO_INT_SPI_Async_Tx_Task)
000c7824  local     $C$L29 (.IO_DRIVER_CODE:IO_INT_SPI_Async_Tx_Task)
000b1884  local     $C$L3 (.IO_DRIVER_CODE:IO_INT_SPI_GetConfigItems)
000c6b40  local     $C$L30 (.IO_DRIVER_CODE:IO_INT_SPI_Async_Read)
000c6b7c  local     $C$L31 (.IO_DRIVER_CODE:IO_INT_SPI_Async_Read)
000c6b84  local     $C$L32 (.IO_DRIVER_CODE:IO_INT_SPI_Async_Read)
000c6be0  local     $C$L33 (.IO_DRIVER_CODE:IO_INT_SPI_Async_Rx_Task)
000c6c08  local     $C$L34 (.IO_DRIVER_CODE:IO_INT_SPI_Async_Rx_Task)
00000140  local     $C$L4 (.IO_DRIVER_CODE:IO_INT_SPI_Sync_Transfer)
00000168  local     $C$L5 (.IO_DRIVER_CODE:IO_INT_SPI_Sync_Transfer)
00000190  local     $C$L6 (.IO_DRIVER_CODE:IO_INT_SPI_Sync_Transfer)
000001c4  local     $C$L7 (.IO_DRIVER_CODE:IO_INT_SPI_Sync_Transfer)
000001d0  local     $C$L8 (.IO_DRIVER_CODE:IO_INT_SPI_Sync_Transfer)
00000220  local     $C$L9 (.IO_DRIVER_CODE:IO_INT_SPI_Sync_Transfer)
000cb92c  local     $P$T0$1 (.const)
000cb944  local     $P$T1$2 (.const)
000cb95c  local     $P$T2$3 (.const)
000b17e0  local     $a (.IO_DRIVER_CODE:IO_INT_SPI_GetConfigItems)
00000000  local     $a (.IO_DRIVER_CODE:IO_INT_SPI_Sync_Transfer)
000b3e20  local     $a (.IO_DRIVER_CODE:IO_INT_SPI_SetBuffers)
000c6e60  local     $a (.IO_DRIVER_CODE:IO_INT_SPI_SetBufferSize)
000b3ac0  local     $a (.IO_DRIVER_CODE:IO_INT_SPI_Init)
000b6550  local     $a (.IO_DRIVER_CODE:IO_INT_SPI_GetInitStatus)
000b1890  local     $a (.IO_DRIVER_CODE:IO_INT_SPI_GetFormat)
000c6cd0  local     $a (.IO_DRIVER_CODE:IO_INT_SPI_Clear_Buffers)
000b1910  local     $a (.IO_DRIVER_CODE:IO_INT_SPI_Async_Write)
000c77c0  local     $a (.IO_DRIVER_CODE:IO_INT_SPI_Async_Tx_Task)
000b0dd0  local     $a (.IO_DRIVER_CODE:IO_INT_SPI_Async_TriggerTransmission)
000c6c80  local     $a (.IO_DRIVER_CODE:IO_INT_SPI_Async_TransferCompleted)
000c6a20  local     $a (.IO_DRIVER_CODE:IO_INT_SPI_Async_Read)
000c6b90  local     $a (.IO_DRIVER_CODE:IO_INT_SPI_Async_Rx_Task)
000c6c30  local     $a (.IO_DRIVER_CODE:IO_INT_SPI_Async_ReceptionCompleted)
0803da00  local     $d (.IO_DRIVER_DATA_NORMAL)
0803da04  local     $d (.IO_DRIVER_DATA_NORMAL)
000cb92c  local     $d (.const)
000cb944  local     $d (.const)
000cb95c  local     $d (.const)
000c6a20  local     .IO_DRIVER_CODE:IO_INT_SPI_Async_Read (.IO_DRIVER_CODE:IO_INT_SPI_Async_Read)
000c6c30  local     .IO_DRIVER_CODE:IO_INT_SPI_Async_ReceptionCompleted (.IO_DRIVER_CODE:IO_INT_SPI_Async_ReceptionCompleted)
000c6b90  local     .IO_DRIVER_CODE:IO_INT_SPI_Async_Rx_Task (.IO_DRIVER_CODE:IO_INT_SPI_Async_Rx_Task)
000c6c80  local     .IO_DRIVER_CODE:IO_INT_SPI_Async_TransferCompleted (.IO_DRIVER_CODE:IO_INT_SPI_Async_TransferCompleted)
000b0dd0  local     .IO_DRIVER_CODE:IO_INT_SPI_Async_TriggerTransmission (.IO_DRIVER_CODE:IO_INT_SPI_Async_TriggerTransmission)
000c77c0  local     .IO_DRIVER_CODE:IO_INT_SPI_Async_Tx_Task (.IO_DRIVER_CODE:IO_INT_SPI_Async_Tx_Task)
000b1910  local     .IO_DRIVER_CODE:IO_INT_SPI_Async_Write (.IO_DRIVER_CODE:IO_INT_SPI_Async_Write)
000c6cd0  local     .IO_DRIVER_CODE:IO_INT_SPI_Clear_Buffers (.IO_DRIVER_CODE:IO_INT_SPI_Clear_Buffers)
000b17e0  local     .IO_DRIVER_CODE:IO_INT_SPI_GetConfigItems (.IO_DRIVER_CODE:IO_INT_SPI_GetConfigItems)
000b1890  local     .IO_DRIVER_CODE:IO_INT_SPI_GetFormat (.IO_DRIVER_CODE:IO_INT_SPI_GetFormat)
000b6550  local     .IO_DRIVER_CODE:IO_INT_SPI_GetInitStatus (.IO_DRIVER_CODE:IO_INT_SPI_GetInitStatus)
000b3ac0  local     .IO_DRIVER_CODE:IO_INT_SPI_Init (.IO_DRIVER_CODE:IO_INT_SPI_Init)
000c6e60  local     .IO_DRIVER_CODE:IO_INT_SPI_SetBufferSize (.IO_DRIVER_CODE:IO_INT_SPI_SetBufferSize)
000b3e20  local     .IO_DRIVER_CODE:IO_INT_SPI_SetBuffers (.IO_DRIVER_CODE:IO_INT_SPI_SetBuffers)
00000000  local     .IO_DRIVER_CODE:IO_INT_SPI_Sync_Transfer (.IO_DRIVER_CODE:IO_INT_SPI_Sync_Transfer)
0803da00  local     .IO_DRIVER_DATA_NORMAL (.IO_DRIVER_DATA_NORMAL)
000cb92c  local     .const (.const)
00000000  local     .text (.text)
000c6a20  local     IO_INT_SPI_Async_Read (.IO_DRIVER_CODE:IO_INT_SPI_Async_Read)
000c6c30  global    IO_INT_SPI_Async_ReceptionCompleted (.IO_DRIVER_CODE:IO_INT_SPI_Async_ReceptionCompleted)
000c6b90  global    IO_INT_SPI_Async_Rx_Task (.IO_DRIVER_CODE:IO_INT_SPI_Async_Rx_Task)
000c6c80  global    IO_INT_SPI_Async_TransferCompleted (.IO_DRIVER_CODE:IO_INT_SPI_Async_TransferCompleted)
000b0dd0  global    IO_INT_SPI_Async_TriggerTransmission (.IO_DRIVER_CODE:IO_INT_SPI_Async_TriggerTransmission)
000c77c0  global    IO_INT_SPI_Async_Tx_Task (.IO_DRIVER_CODE:IO_INT_SPI_Async_Tx_Task)
000b1910  global    IO_INT_SPI_Async_Write (.IO_DRIVER_CODE:IO_INT_SPI_Async_Write)
0803da04  local     IO_INT_SPI_Buffers (.IO_DRIVER_DATA_NORMAL)
000c6cd0  global    IO_INT_SPI_Clear_Buffers (.IO_DRIVER_CODE:IO_INT_SPI_Clear_Buffers)
000b17e0  local     IO_INT_SPI_GetConfigItems (.IO_DRIVER_CODE:IO_INT_SPI_GetConfigItems)
000b1890  local     IO_INT_SPI_GetFormat (.IO_DRIVER_CODE:IO_INT_SPI_GetFormat)
000b6550  global    IO_INT_SPI_GetInitStatus (.IO_DRIVER_CODE:IO_INT_SPI_GetInitStatus)
000b3ac0  global    IO_INT_SPI_Init (.IO_DRIVER_CODE:IO_INT_SPI_Init)
0803da00  local     IO_INT_SPI_Initialized (.IO_DRIVER_DATA_NORMAL)
000c6e60  global    IO_INT_SPI_SetBufferSize (.IO_DRIVER_CODE:IO_INT_SPI_SetBufferSize)
000b3e20  global    IO_INT_SPI_SetBuffers (.IO_DRIVER_CODE:IO_INT_SPI_SetBuffers)
00000000  global    IO_INT_SPI_Sync_Transfer (.IO_DRIVER_CODE:IO_INT_SPI_Sync_Transfer)


================================================================================

ttc500.lib : drv_IO_INT_Variant.obj

Run/Load            
Value     Binding   Name (Section)
--------  --------  ---------------
0000005c  local     $C$L1 (.IO_DRIVER_CODE:IO_INT_Variant_TestMode)
000b3054  local     $C$L10 (.IO_DRIVER_CODE:IO_INT_Variant_Decode)
000b306c  local     $C$L11 (.IO_DRIVER_CODE:IO_INT_Variant_Decode)
000b3070  local     $C$L12 (.IO_DRIVER_CODE:IO_INT_Variant_Decode)
000b311c  local     $C$L13 (.IO_DRIVER_CODE:IO_INT_Variant_Read)
000b31a0  local     $C$L14 (.IO_DRIVER_CODE:IO_INT_Variant_GetVariantCfg)
000b31b4  local     $C$L15 (.IO_DRIVER_CODE:IO_INT_Variant_GetVariantCfg)
000b31bc  local     $C$L16 (.IO_DRIVER_CODE:IO_INT_Variant_GetVariantCfg)
000b31d4  local     $C$L17 (.IO_DRIVER_CODE:IO_INT_Variant_GetVariantCfg)
000b31dc  local     $C$L18 (.IO_DRIVER_CODE:IO_INT_Variant_GetVariantCfg)
000b3250  local     $C$L19 (.IO_DRIVER_CODE:IO_INT_Variant_Init)
000b2d60  local     $C$L2 (.IO_DRIVER_CODE:IO_INT_Variant_CheckSerial)
000b327c  local     $C$L20 (.IO_DRIVER_CODE:IO_INT_Variant_Init)
000b32a0  local     $C$L21 (.IO_DRIVER_CODE:IO_INT_Variant_Init)
000b32cc  local     $C$L22 (.IO_DRIVER_CODE:IO_INT_Variant_Init)
000b32fc  local     $C$L23 (.IO_DRIVER_CODE:IO_INT_Variant_Init)
000b3334  local     $C$L24 (.IO_DRIVER_CODE:IO_INT_Variant_Init)
000b33a8  local     $C$L25 (.IO_DRIVER_CODE:IO_INT_Variant_GetPinAvail_Option)
000b33ac  local     $C$L26 (.IO_DRIVER_CODE:IO_INT_Variant_GetPinAvail_Option)
000b33b0  local     $C$L27 (.IO_DRIVER_CODE:IO_INT_Variant_GetPinAvail_Option)
000b3424  local     $C$L28 (.IO_DRIVER_CODE:IO_INT_Variant_GetPinAvail_IO)
000b3428  local     $C$L29 (.IO_DRIVER_CODE:IO_INT_Variant_GetPinAvail_IO)
000b2ee4  local     $C$L3 (.IO_DRIVER_CODE:IO_INT_Variant_GetProdCode)
000b43d0  local     $C$L30 (.IO_DRIVER_CODE:IO_INT_Variant_GetPinAvail_Full)
000b43d8  local     $C$L31 (.IO_DRIVER_CODE:IO_INT_Variant_GetPinAvail_Full)
00000074  local     $C$L32 (.IO_DRIVER_CODE:IO_INT_Variant_GetMacAddress)
00000068  local     $C$L33 (.IO_DRIVER_CODE:IO_INT_Variant_GetDownloadId)
00000070  local     $C$L34 (.IO_DRIVER_CODE:IO_INT_Variant_GetDownloadId)
00000074  local     $C$L35 (.IO_DRIVER_CODE:IO_INT_Variant_GetDownloadId)
000b2f10  local     $C$L4 (.IO_DRIVER_CODE:IO_INT_Variant_ProdCodeComp_HW)
000b2f28  local     $C$L5 (.IO_DRIVER_CODE:IO_INT_Variant_ProdCodeComp_HW)
000b2f40  local     $C$L6 (.IO_DRIVER_CODE:IO_INT_Variant_ProdCodeComp_HW)
000b2f70  local     $C$L7 (.IO_DRIVER_CODE:IO_INT_Variant_ProdCodeComp_SW)
000b3010  local     $C$L8 (.IO_DRIVER_CODE:IO_INT_Variant_Decode)
000b3048  local     $C$L9 (.IO_DRIVER_CODE:IO_INT_Variant_Decode)
00000000  local     $a (.IO_DRIVER_CODE:IO_INT_Variant_TestMode)
000b2cb0  local     $a (.IO_DRIVER_CODE:IO_INT_Variant_CheckProdData)
000b2d30  local     $a (.IO_DRIVER_CODE:IO_INT_Variant_CheckSerial)
000b2da0  local     $a (.IO_DRIVER_CODE:IO_INT_Variant_CheckCRC)
000b2de0  local     $a (.IO_DRIVER_CODE:IO_INT_Variant_GetProdCode)
000b2ef0  local     $a (.IO_DRIVER_CODE:IO_INT_Variant_ProdCodeComp_HW)
000b2f50  local     $a (.IO_DRIVER_CODE:IO_INT_Variant_ProdCodeComp_SW)
000b2fa0  local     $a (.IO_DRIVER_CODE:IO_INT_Variant_Decode)
000b3080  local     $a (.IO_DRIVER_CODE:IO_INT_Variant_Write)
000b30c0  local     $a (.IO_DRIVER_CODE:IO_INT_Variant_Read)
000b3130  local     $a (.IO_DRIVER_CODE:IO_INT_Variant_GetVariantCfg)
000b31f0  local     $a (.IO_DRIVER_CODE:IO_INT_Variant_Init)
00000000  local     $a (.IO_DRIVER_CODE:IO_INT_Variant_CheckZCCData)
00000000  local     $a (.IO_DRIVER_CODE:IO_INT_Variant_GetZCCData)
00000000  local     $a (.IO_DRIVER_CODE:IO_INT_Variant_GetSerial)
000b3340  local     $a (.IO_DRIVER_CODE:IO_INT_Variant_GetPinAvail_Option)
000b33c0  local     $a (.IO_DRIVER_CODE:IO_INT_Variant_GetPinAvail_IO)
000b4370  local     $a (.IO_DRIVER_CODE:IO_INT_Variant_GetPinAvail_Full)
00000000  local     $a (.IO_DRIVER_CODE:IO_INT_Variant_GetMacAddress)
00000000  local     $a (.IO_DRIVER_CODE:IO_INT_Variant_GetDownloadId)
0803dc34  local     $d (.IO_DRIVER_DATA_NORMAL)
0803dc40  local     $d (.IO_DRIVER_DATA_NORMAL)
000b2da0  local     .IO_DRIVER_CODE:IO_INT_Variant_CheckCRC (.IO_DRIVER_CODE:IO_INT_Variant_CheckCRC)
000b2cb0  local     .IO_DRIVER_CODE:IO_INT_Variant_CheckProdData (.IO_DRIVER_CODE:IO_INT_Variant_CheckProdData)
000b2d30  local     .IO_DRIVER_CODE:IO_INT_Variant_CheckSerial (.IO_DRIVER_CODE:IO_INT_Variant_CheckSerial)
00000000  local     .IO_DRIVER_CODE:IO_INT_Variant_CheckZCCData (.IO_DRIVER_CODE:IO_INT_Variant_CheckZCCData)
000b2fa0  local     .IO_DRIVER_CODE:IO_INT_Variant_Decode (.IO_DRIVER_CODE:IO_INT_Variant_Decode)
00000000  local     .IO_DRIVER_CODE:IO_INT_Variant_GetDownloadId (.IO_DRIVER_CODE:IO_INT_Variant_GetDownloadId)
00000000  local     .IO_DRIVER_CODE:IO_INT_Variant_GetMacAddress (.IO_DRIVER_CODE:IO_INT_Variant_GetMacAddress)
000b4370  local     .IO_DRIVER_CODE:IO_INT_Variant_GetPinAvail_Full (.IO_DRIVER_CODE:IO_INT_Variant_GetPinAvail_Full)
000b33c0  local     .IO_DRIVER_CODE:IO_INT_Variant_GetPinAvail_IO (.IO_DRIVER_CODE:IO_INT_Variant_GetPinAvail_IO)
000b3340  local     .IO_DRIVER_CODE:IO_INT_Variant_GetPinAvail_Option (.IO_DRIVER_CODE:IO_INT_Variant_GetPinAvail_Option)
000b2de0  local     .IO_DRIVER_CODE:IO_INT_Variant_GetProdCode (.IO_DRIVER_CODE:IO_INT_Variant_GetProdCode)
00000000  local     .IO_DRIVER_CODE:IO_INT_Variant_GetSerial (.IO_DRIVER_CODE:IO_INT_Variant_GetSerial)
000b3130  local     .IO_DRIVER_CODE:IO_INT_Variant_GetVariantCfg (.IO_DRIVER_CODE:IO_INT_Variant_GetVariantCfg)
00000000  local     .IO_DRIVER_CODE:IO_INT_Variant_GetZCCData (.IO_DRIVER_CODE:IO_INT_Variant_GetZCCData)
000b31f0  local     .IO_DRIVER_CODE:IO_INT_Variant_Init (.IO_DRIVER_CODE:IO_INT_Variant_Init)
000b2ef0  local     .IO_DRIVER_CODE:IO_INT_Variant_ProdCodeComp_HW (.IO_DRIVER_CODE:IO_INT_Variant_ProdCodeComp_HW)
000b2f50  local     .IO_DRIVER_CODE:IO_INT_Variant_ProdCodeComp_SW (.IO_DRIVER_CODE:IO_INT_Variant_ProdCodeComp_SW)
000b30c0  local     .IO_DRIVER_CODE:IO_INT_Variant_Read (.IO_DRIVER_CODE:IO_INT_Variant_Read)
00000000  local     .IO_DRIVER_CODE:IO_INT_Variant_TestMode (.IO_DRIVER_CODE:IO_INT_Variant_TestMode)
000b3080  local     .IO_DRIVER_CODE:IO_INT_Variant_Write (.IO_DRIVER_CODE:IO_INT_Variant_Write)
0803dc34  local     .IO_DRIVER_DATA_NORMAL (.IO_DRIVER_DATA_NORMAL)
00000000  local     .text (.text)
000b2da0  local     IO_INT_Variant_CheckCRC (.IO_DRIVER_CODE:IO_INT_Variant_CheckCRC)
000b2cb0  global    IO_INT_Variant_CheckProdData (.IO_DRIVER_CODE:IO_INT_Variant_CheckProdData)
000b2d30  local     IO_INT_Variant_CheckSerial (.IO_DRIVER_CODE:IO_INT_Variant_CheckSerial)
00000000  local     IO_INT_Variant_CheckZCCData (.IO_DRIVER_CODE:IO_INT_Variant_CheckZCCData)
000b2fa0  local     IO_INT_Variant_Decode (.IO_DRIVER_CODE:IO_INT_Variant_Decode)
00000000  global    IO_INT_Variant_GetDownloadId (.IO_DRIVER_CODE:IO_INT_Variant_GetDownloadId)
00000000  global    IO_INT_Variant_GetMacAddress (.IO_DRIVER_CODE:IO_INT_Variant_GetMacAddress)
000b4370  global    IO_INT_Variant_GetPinAvail_Full (.IO_DRIVER_CODE:IO_INT_Variant_GetPinAvail_Full)
000b33c0  global    IO_INT_Variant_GetPinAvail_IO (.IO_DRIVER_CODE:IO_INT_Variant_GetPinAvail_IO)
000b3340  global    IO_INT_Variant_GetPinAvail_Option (.IO_DRIVER_CODE:IO_INT_Variant_GetPinAvail_Option)
000b2de0  global    IO_INT_Variant_GetProdCode (.IO_DRIVER_CODE:IO_INT_Variant_GetProdCode)
00000000  global    IO_INT_Variant_GetSerial (.IO_DRIVER_CODE:IO_INT_Variant_GetSerial)
000b3130  local     IO_INT_Variant_GetVariantCfg (.IO_DRIVER_CODE:IO_INT_Variant_GetVariantCfg)
00000000  global    IO_INT_Variant_GetZCCData (.IO_DRIVER_CODE:IO_INT_Variant_GetZCCData)
000b31f0  global    IO_INT_Variant_Init (.IO_DRIVER_CODE:IO_INT_Variant_Init)
000b2ef0  local     IO_INT_Variant_ProdCodeComp_HW (.IO_DRIVER_CODE:IO_INT_Variant_ProdCodeComp_HW)
000b2f50  local     IO_INT_Variant_ProdCodeComp_SW (.IO_DRIVER_CODE:IO_INT_Variant_ProdCodeComp_SW)
000b30c0  local     IO_INT_Variant_Read (.IO_DRIVER_CODE:IO_INT_Variant_Read)
00000000  global    IO_INT_Variant_TestMode (.IO_DRIVER_CODE:IO_INT_Variant_TestMode)
000b3080  local     IO_INT_Variant_Write (.IO_DRIVER_CODE:IO_INT_Variant_Write)
0803dc34  local     IO_VariantStorage (.IO_DRIVER_DATA_NORMAL)
0803dc40  local     IO_VariantStorage_CRC (.IO_DRIVER_DATA_NORMAL)


================================================================================

ttc500.lib : drv_IO_INT_RTC.obj

Run/Load            
Value     Binding   Name (Section)
--------  --------  ---------------
00000090  local     $C$L1 (.IO_DRIVER_CODE:IO_INT_RTC_StopCompInt)
000b9368  local     $C$L10 (.IO_DRIVER_CODE:IO_INT_RTC_ReadBackCfg)
000b9370  local     $C$L11 (.IO_DRIVER_CODE:IO_INT_RTC_ReadBackCfg)
0000003c  local     $C$L12 (.IO_DRIVER_CODE:IO_INT_RTC_InitDateAndTime)
00000050  local     $C$L13 (.IO_DRIVER_CODE:IO_INT_RTC_InitDateAndTime)
00000088  local     $C$L14 (.IO_DRIVER_CODE:IO_INT_RTC_InitDateAndTime)
000b07f0  local     $C$L15 (.IO_DRIVER_CODE:IO_INT_RTC_SetupFrc)
000c857c  local     $C$L16 (.IO_DRIVER_CODE:IO_INT_RTC_BCDtoHEX)
000c75d0  local     $C$L17 (.IO_DRIVER_CODE:IO_INT_RTC_DateAndTimeTask)
000c7638  local     $C$L18 (.IO_DRIVER_CODE:IO_INT_RTC_DateAndTimeTask)
000c763c  local     $C$L19 (.IO_DRIVER_CODE:IO_INT_RTC_DateAndTimeTask)
000000c0  local     $C$L2 (.IO_DRIVER_CODE:IO_INT_RTC_StopCompInt)
000c766c  local     $C$L20 (.IO_DRIVER_CODE:IO_INT_RTC_DateAndTimeTask)
000c76a4  local     $C$L21 (.IO_DRIVER_CODE:IO_INT_RTC_DateAndTimeTask)
000c76b0  local     $C$L22 (.IO_DRIVER_CODE:IO_INT_RTC_DateAndTimeTask)
000c76e8  local     $C$L23 (.IO_DRIVER_CODE:IO_INT_RTC_DateAndTimeTask)
000c77a8  local     $C$L24 (.IO_DRIVER_CODE:IO_INT_RTC_DateAndTimeTask)
000c77b0  local     $C$L25 (.IO_DRIVER_CODE:IO_INT_RTC_DateAndTimeTask)
000c85b8  local     $C$L26 (.IO_DRIVER_CODE:IO_INT_RTC_Comp1_interrupt)
000c7894  local     $C$L27 (.IO_DRIVER_CODE:IO_INT_RTC_Comp0_interrupt)
000c78cc  local     $C$L28 (.IO_DRIVER_CODE:IO_INT_RTC_Comp0_interrupt)
000c78e0  local     $C$L29 (.IO_DRIVER_CODE:IO_INT_RTC_Comp0_interrupt)
000000f0  local     $C$L3 (.IO_DRIVER_CODE:IO_INT_RTC_StopCompInt)
000c78f0  local     $C$L30 (.IO_DRIVER_CODE:IO_INT_RTC_Comp0_interrupt)
000c7900  local     $C$L31 (.IO_DRIVER_CODE:IO_INT_RTC_Comp0_interrupt)
000c790c  local     $C$L32 (.IO_DRIVER_CODE:IO_INT_RTC_Comp0_interrupt)
000c7918  local     $C$L33 (.IO_DRIVER_CODE:IO_INT_RTC_Comp0_interrupt)
000c7924  local     $C$L34 (.IO_DRIVER_CODE:IO_INT_RTC_Comp0_interrupt)
000c7930  local     $C$L35 (.IO_DRIVER_CODE:IO_INT_RTC_Comp0_interrupt)
000c793c  local     $C$L36 (.IO_DRIVER_CODE:IO_INT_RTC_Comp0_interrupt)
000c7944  local     $C$L37 (.IO_DRIVER_CODE:IO_INT_RTC_Comp0_interrupt)
00000110  local     $C$L4 (.IO_DRIVER_CODE:IO_INT_RTC_StopCompInt)
00000118  local     $C$L5 (.IO_DRIVER_CODE:IO_INT_RTC_StopCompInt)
000b73a0  local     $C$L6 (.IO_DRIVER_CODE:IO_INT_RTC_SetupCompInt)
000b7400  local     $C$L7 (.IO_DRIVER_CODE:IO_INT_RTC_SetupCompInt)
000b7460  local     $C$L8 (.IO_DRIVER_CODE:IO_INT_RTC_SetupCompInt)
000b74b4  local     $C$L9 (.IO_DRIVER_CODE:IO_INT_RTC_SetupCompInt)
000c78a4  local     $C$SW1 (.IO_DRIVER_CODE:IO_INT_RTC_Comp0_interrupt)
00000000  local     $a (.IO_DRIVER_CODE:IO_INT_RTC_StopCompInt)
000b72c0  local     $a (.IO_DRIVER_CODE:IO_INT_RTC_SetupCompInt)
00000000  local     $a (.IO_DRIVER_CODE:IO_INT_RTC_SetCompEventHandle)
00000000  local     $a (.IO_DRIVER_CODE:IO_INT_RTC_ResetSpiVariables)
000b9220  local     $a (.IO_DRIVER_CODE:IO_INT_RTC_ReadBackCfg)
00000000  local     $a (.IO_DRIVER_CODE:IO_INT_RTC_InitDateAndTime)
000b0770  local     $a (.IO_DRIVER_CODE:IO_INT_RTC_SetupFrc)
000b0830  local     $a (.IO_DRIVER_CODE:IO_INT_RTC_Init)
00000000  local     $a (.IO_DRIVER_CODE:IO_INT_RTC_HEXtoBCD)
000c8540  local     $a (.IO_DRIVER_CODE:IO_INT_RTC_BCDtoHEX)
000c7460  local     $a (.IO_DRIVER_CODE:IO_INT_RTC_DateAndTimeTask)
000c8590  local     $a (.IO_DRIVER_CODE:IO_INT_RTC_Comp1_interrupt)
000c7ef0  local     $a (.IO_DRIVER_CODE:IO_INT_RTC_Comp1_int)
000c7850  local     $a (.IO_DRIVER_CODE:IO_INT_RTC_Comp0_interrupt)
000c78cc  local     $a (.IO_DRIVER_CODE:IO_INT_RTC_Comp0_interrupt)
000c79a0  local     $a (.IO_DRIVER_CODE:IO_INT_RTC_Comp0_int)
00000000  local     $a (.IO_DRIVER_CODE:IO_INT_RTC_ClearCompEventHandle)
0803d990  local     $d (.IO_DRIVER_DATA_NORMAL)
0803d991  local     $d (.IO_DRIVER_DATA_NORMAL)
0803d994  local     $d (.IO_DRIVER_DATA_NORMAL)
0803d998  local     $d (.IO_DRIVER_DATA_NORMAL)
0803d99c  local     $d (.IO_DRIVER_DATA_NORMAL)
0803d9a0  local     $d (.IO_DRIVER_DATA_NORMAL)
0803d9a4  local     $d (.IO_DRIVER_DATA_NORMAL)
0803d9a8  local     $d (.IO_DRIVER_DATA_NORMAL)
0803d9ac  local     $d (.IO_DRIVER_DATA_NORMAL)
0803d9ad  local     $d (.IO_DRIVER_DATA_NORMAL)
0803d9ae  local     $d (.IO_DRIVER_DATA_NORMAL)
0803d9af  local     $d (.IO_DRIVER_DATA_NORMAL)
0803d9b0  local     $d (.IO_DRIVER_DATA_NORMAL)
0803d9b1  local     $d (.IO_DRIVER_DATA_NORMAL)
0803d9b2  local     $d (.IO_DRIVER_DATA_NORMAL)
0803d9b4  local     $d (.IO_DRIVER_DATA_NORMAL)
0803d9e8  local     $d (.IO_DRIVER_DATA_NORMAL)
0803d9f0  local     $d (.IO_DRIVER_DATA_NORMAL)
0803d9f8  local     $d (.IO_DRIVER_DATA_NORMAL)
0803d9fc  local     $d (.IO_DRIVER_DATA_NORMAL)
000c78a4  local     $d (.IO_DRIVER_CODE:IO_INT_RTC_Comp0_interrupt)
000c8540  local     .IO_DRIVER_CODE:IO_INT_RTC_BCDtoHEX (.IO_DRIVER_CODE:IO_INT_RTC_BCDtoHEX)
00000000  local     .IO_DRIVER_CODE:IO_INT_RTC_ClearCompEventHandle (.IO_DRIVER_CODE:IO_INT_RTC_ClearCompEventHandle)
000c79a0  local     .IO_DRIVER_CODE:IO_INT_RTC_Comp0_int (.IO_DRIVER_CODE:IO_INT_RTC_Comp0_int)
000c7850  local     .IO_DRIVER_CODE:IO_INT_RTC_Comp0_interrupt (.IO_DRIVER_CODE:IO_INT_RTC_Comp0_interrupt)
000c7ef0  local     .IO_DRIVER_CODE:IO_INT_RTC_Comp1_int (.IO_DRIVER_CODE:IO_INT_RTC_Comp1_int)
000c8590  local     .IO_DRIVER_CODE:IO_INT_RTC_Comp1_interrupt (.IO_DRIVER_CODE:IO_INT_RTC_Comp1_interrupt)
000c7460  local     .IO_DRIVER_CODE:IO_INT_RTC_DateAndTimeTask (.IO_DRIVER_CODE:IO_INT_RTC_DateAndTimeTask)
00000000  local     .IO_DRIVER_CODE:IO_INT_RTC_HEXtoBCD (.IO_DRIVER_CODE:IO_INT_RTC_HEXtoBCD)
000b0830  local     .IO_DRIVER_CODE:IO_INT_RTC_Init (.IO_DRIVER_CODE:IO_INT_RTC_Init)
00000000  local     .IO_DRIVER_CODE:IO_INT_RTC_InitDateAndTime (.IO_DRIVER_CODE:IO_INT_RTC_InitDateAndTime)
000b9220  local     .IO_DRIVER_CODE:IO_INT_RTC_ReadBackCfg (.IO_DRIVER_CODE:IO_INT_RTC_ReadBackCfg)
00000000  local     .IO_DRIVER_CODE:IO_INT_RTC_ResetSpiVariables (.IO_DRIVER_CODE:IO_INT_RTC_ResetSpiVariables)
00000000  local     .IO_DRIVER_CODE:IO_INT_RTC_SetCompEventHandle (.IO_DRIVER_CODE:IO_INT_RTC_SetCompEventHandle)
000b72c0  local     .IO_DRIVER_CODE:IO_INT_RTC_SetupCompInt (.IO_DRIVER_CODE:IO_INT_RTC_SetupCompInt)
000b0770  local     .IO_DRIVER_CODE:IO_INT_RTC_SetupFrc (.IO_DRIVER_CODE:IO_INT_RTC_SetupFrc)
00000000  local     .IO_DRIVER_CODE:IO_INT_RTC_StopCompInt (.IO_DRIVER_CODE:IO_INT_RTC_StopCompInt)
0803d990  local     .IO_DRIVER_DATA_NORMAL (.IO_DRIVER_DATA_NORMAL)
00000000  local     .text (.text)
000c8540  local     IO_INT_RTC_BCDtoHEX (.IO_DRIVER_CODE:IO_INT_RTC_BCDtoHEX)
00000000  global    IO_INT_RTC_ClearCompEventHandle (.IO_DRIVER_CODE:IO_INT_RTC_ClearCompEventHandle)
0803d9b2  global    IO_INT_RTC_ClockIntegrityCheckFailed (.IO_DRIVER_DATA_NORMAL)
0803d9f8  local     IO_INT_RTC_Comp0_count (.IO_DRIVER_DATA_NORMAL)
000c79a0  global    IO_INT_RTC_Comp0_int (.IO_DRIVER_CODE:IO_INT_RTC_Comp0_int)
000c7850  local     IO_INT_RTC_Comp0_interrupt (.IO_DRIVER_CODE:IO_INT_RTC_Comp0_interrupt)
000c7ef0  global    IO_INT_RTC_Comp1_int (.IO_DRIVER_CODE:IO_INT_RTC_Comp1_int)
000c8590  local     IO_INT_RTC_Comp1_interrupt (.IO_DRIVER_CODE:IO_INT_RTC_Comp1_interrupt)
0803d9b4  global    IO_INT_RTC_Config (.IO_DRIVER_DATA_NORMAL)
000c7460  global    IO_INT_RTC_DateAndTimeTask (.IO_DRIVER_CODE:IO_INT_RTC_DateAndTimeTask)
0803d9e8  local     IO_INT_RTC_DateAndTime_RX_Buffer (.IO_DRIVER_DATA_NORMAL)
0803d991  global    IO_INT_RTC_DateAndTime_Read_InProgress (.IO_DRIVER_DATA_NORMAL)
0803d9f0  local     IO_INT_RTC_DateAndTime_TX_Buffer (.IO_DRIVER_DATA_NORMAL)
0803d990  global    IO_INT_RTC_DateAndTime_Write_InProgress (.IO_DRIVER_DATA_NORMAL)
0803d9a0  global    IO_INT_RTC_GetDateAndTime_days (.IO_DRIVER_DATA_NORMAL)
0803d99c  global    IO_INT_RTC_GetDateAndTime_hours (.IO_DRIVER_DATA_NORMAL)
0803d998  global    IO_INT_RTC_GetDateAndTime_minutes (.IO_DRIVER_DATA_NORMAL)
0803d9a4  global    IO_INT_RTC_GetDateAndTime_months (.IO_DRIVER_DATA_NORMAL)
0803d994  global    IO_INT_RTC_GetDateAndTime_seconds (.IO_DRIVER_DATA_NORMAL)
0803d9a8  global    IO_INT_RTC_GetDateAndTime_years (.IO_DRIVER_DATA_NORMAL)
00000000  global    IO_INT_RTC_HEXtoBCD (.IO_DRIVER_CODE:IO_INT_RTC_HEXtoBCD)
000b0830  global    IO_INT_RTC_Init (.IO_DRIVER_CODE:IO_INT_RTC_Init)
00000000  global    IO_INT_RTC_InitDateAndTime (.IO_DRIVER_CODE:IO_INT_RTC_InitDateAndTime)
0803d9fc  local     IO_INT_RTC_Periodic_handler (.IO_DRIVER_DATA_NORMAL)
000b9220  global    IO_INT_RTC_ReadBackCfg (.IO_DRIVER_CODE:IO_INT_RTC_ReadBackCfg)
00000000  global    IO_INT_RTC_ResetSpiVariables (.IO_DRIVER_CODE:IO_INT_RTC_ResetSpiVariables)
00000000  global    IO_INT_RTC_SetCompEventHandle (.IO_DRIVER_CODE:IO_INT_RTC_SetCompEventHandle)
0803d9af  global    IO_INT_RTC_SetDateAndTime_days_bcd (.IO_DRIVER_DATA_NORMAL)
0803d9ae  global    IO_INT_RTC_SetDateAndTime_hours_bcd (.IO_DRIVER_DATA_NORMAL)
0803d9ad  global    IO_INT_RTC_SetDateAndTime_minutes_bcd (.IO_DRIVER_DATA_NORMAL)
0803d9b0  global    IO_INT_RTC_SetDateAndTime_months_bcd (.IO_DRIVER_DATA_NORMAL)
0803d9ac  global    IO_INT_RTC_SetDateAndTime_seconds_bcd (.IO_DRIVER_DATA_NORMAL)
0803d9b1  global    IO_INT_RTC_SetDateAndTime_years_bcd (.IO_DRIVER_DATA_NORMAL)
000b72c0  global    IO_INT_RTC_SetupCompInt (.IO_DRIVER_CODE:IO_INT_RTC_SetupCompInt)
000b0770  local     IO_INT_RTC_SetupFrc (.IO_DRIVER_CODE:IO_INT_RTC_SetupFrc)
00000000  global    IO_INT_RTC_StopCompInt (.IO_DRIVER_CODE:IO_INT_RTC_StopCompInt)


================================================================================

ttc500.lib : drv_DIAG_INT_Core.obj

Run/Load            
Value     Binding   Name (Section)
--------  --------  ---------------
000c88e0  local     $C$L1 (.IO_DRIVER_CODE:wait_TestEFuseECC)
000b6f9c  local     $C$L10 (.IO_DRIVER_CODE:DIAG_INT_TPS_Triggering)
000b3900  local     $C$L100 (.IO_DRIVER_CODE:DIAG_INT_CoreInit)
000b3930  local     $C$L101 (.IO_DRIVER_CODE:DIAG_INT_CoreInit)
000b395c  local     $C$L102 (.IO_DRIVER_CODE:DIAG_INT_CoreInit)
000b39b0  local     $C$L103 (.IO_DRIVER_CODE:DIAG_INT_CoreInit)
000b39d4  local     $C$L104 (.IO_DRIVER_CODE:DIAG_INT_CoreInit)
000b3a08  local     $C$L105 (.IO_DRIVER_CODE:DIAG_INT_CoreInit)
000b3a34  local     $C$L106 (.IO_DRIVER_CODE:DIAG_INT_CoreInit)
000b3a58  local     $C$L107 (.IO_DRIVER_CODE:DIAG_INT_CoreInit)
000b3a80  local     $C$L108 (.IO_DRIVER_CODE:DIAG_INT_CoreInit)
000b3aa8  local     $C$L109 (.IO_DRIVER_CODE:DIAG_INT_CoreInit)
000b6fa0  local     $C$L11 (.IO_DRIVER_CODE:DIAG_INT_TPS_Triggering)
000b48e8  local     $C$L110 (.IO_DRIVER_CODE:DIAG_INT_AdcParityTest)
000b4910  local     $C$L111 (.IO_DRIVER_CODE:DIAG_INT_AdcParityTest)
000b6fa4  local     $C$L12 (.IO_DRIVER_CODE:DIAG_INT_TPS_Triggering)
000b6fc4  local     $C$L13 (.IO_DRIVER_CODE:DIAG_INT_TPS_Triggering)
000b6fd0  local     $C$L14 (.IO_DRIVER_CODE:DIAG_INT_TPS_Triggering)
000c2b28  local     $C$L15 (.IO_DRIVER_CODE:DIAG_INT_TPS_CheckTriggering)
000c2b3c  local     $C$L16 (.IO_DRIVER_CODE:DIAG_INT_TPS_CheckTriggering)
000c2b4c  local     $C$L17 (.IO_DRIVER_CODE:DIAG_INT_TPS_CheckTriggering)
000c2b50  local     $C$L18 (.IO_DRIVER_CODE:DIAG_INT_TPS_CheckTriggering)
000c2b58  local     $C$L19 (.IO_DRIVER_CODE:DIAG_INT_TPS_CheckTriggering)
000c8930  local     $C$L2 (.IO_DRIVER_CODE:wait_PSCONSelfTest)
000c2b6c  local     $C$L20 (.IO_DRIVER_CODE:DIAG_INT_TPS_CheckTriggering)
000b3b8c  local     $C$L21 (.IO_DRIVER_CODE:DIAG_INT_SpiParityTest)
000b3bb8  local     $C$L22 (.IO_DRIVER_CODE:DIAG_INT_SpiParityTest)
000b4818  local     $C$L23 (.IO_DRIVER_CODE:DIAG_INT_NhetParityTest)
000b4840  local     $C$L24 (.IO_DRIVER_CODE:DIAG_INT_NhetParityTest)
000b4868  local     $C$L25 (.IO_DRIVER_CODE:DIAG_INT_NhetParityTest)
000b4890  local     $C$L26 (.IO_DRIVER_CODE:DIAG_INT_NhetParityTest)
000b7500  local     $C$L27 (.IO_DRIVER_CODE:DIAG_INT_ActivateMonTaskTPS)
000b7530  local     $C$L28 (.IO_DRIVER_CODE:DIAG_INT_ActivateMonTaskTPS)
000b75f0  local     $C$L29 (.IO_DRIVER_CODE:DIAG_INT_DoErrorPinTest)
000c8910  local     $C$L3 (.IO_DRIVER_CODE:wait_DCCSelfTest)
000b7614  local     $C$L30 (.IO_DRIVER_CODE:DIAG_INT_DoErrorPinTest)
000b7664  local     $C$L31 (.IO_DRIVER_CODE:DIAG_INT_DoErrorPinTest)
000b7690  local     $C$L32 (.IO_DRIVER_CODE:DIAG_INT_DoErrorPinTest)
000b76bc  local     $C$L33 (.IO_DRIVER_CODE:DIAG_INT_DoErrorPinTest)
000b76c4  local     $C$L34 (.IO_DRIVER_CODE:DIAG_INT_DoErrorPinTest)
000b76f8  local     $C$L35 (.IO_DRIVER_CODE:DIAG_INT_DoErrorPinTest)
000b7700  local     $C$L36 (.IO_DRIVER_CODE:DIAG_INT_DoErrorPinTest)
000b7710  local     $C$L37 (.IO_DRIVER_CODE:DIAG_INT_DoErrorPinTest)
000b7724  local     $C$L38 (.IO_DRIVER_CODE:DIAG_INT_DoErrorPinTest)
000b7728  local     $C$L39 (.IO_DRIVER_CODE:DIAG_INT_DoErrorPinTest)
000c88b0  local     $C$L4 (.IO_DRIVER_CODE:wait_CCMSelfTest)
000b7770  local     $C$L40 (.IO_DRIVER_CODE:DIAG_INT_TPSErrorPinTest)
000b7794  local     $C$L41 (.IO_DRIVER_CODE:DIAG_INT_TPSErrorPinTest)
000b77a4  local     $C$L42 (.IO_DRIVER_CODE:DIAG_INT_TPSErrorPinTest)
000b77e0  local     $C$L43 (.IO_DRIVER_CODE:DIAG_INT_TPSErrorPinTest)
000b77fc  local     $C$L44 (.IO_DRIVER_CODE:DIAG_INT_TPSErrorPinTest)
000b7830  local     $C$L45 (.IO_DRIVER_CODE:DIAG_INT_TPSErrorPinTest)
000b7850  local     $C$L46 (.IO_DRIVER_CODE:DIAG_INT_TPSErrorPinTest)
000b7860  local     $C$L47 (.IO_DRIVER_CODE:DIAG_INT_TPSErrorPinTest)
000b7870  local     $C$L48 (.IO_DRIVER_CODE:DIAG_INT_TPSErrorPinTest)
000b7878  local     $C$L49 (.IO_DRIVER_CODE:DIAG_INT_TPSErrorPinTest)
000b3504  local     $C$L5 (.IO_DRIVER_CODE:DIAG_INT_VimParityTest)
000b787c  local     $C$L50 (.IO_DRIVER_CODE:DIAG_INT_TPSErrorPinTest)
000b7880  local     $C$L51 (.IO_DRIVER_CODE:DIAG_INT_TPSErrorPinTest)
000b7998  local     $C$L52 (.IO_DRIVER_CODE:DIAG_INT_MonitoringTaskTPSHandler)
000b79b4  local     $C$L53 (.IO_DRIVER_CODE:DIAG_INT_MonitoringTaskTPSHandler)
000b79dc  local     $C$L54 (.IO_DRIVER_CODE:DIAG_INT_MonitoringTaskTPSHandler)
000b7a08  local     $C$L55 (.IO_DRIVER_CODE:DIAG_INT_MonitoringTaskTPSHandler)
000b7a14  local     $C$L56 (.IO_DRIVER_CODE:DIAG_INT_MonitoringTaskTPSHandler)
000b7a18  local     $C$L57 (.IO_DRIVER_CODE:DIAG_INT_MonitoringTaskTPSHandler)
000b7a1c  local     $C$L58 (.IO_DRIVER_CODE:DIAG_INT_MonitoringTaskTPSHandler)
00000078  local     $C$L59 (.IO_DRIVER_CODE:DIAG_INT_GetRamB1Errors)
000b6eb4  local     $C$L6 (.IO_DRIVER_CODE:DIAG_INT_TPS_Triggering)
00000080  local     $C$L60 (.IO_DRIVER_CODE:DIAG_INT_GetRamB1Errors)
000000b4  local     $C$L61 (.IO_DRIVER_CODE:DIAG_INT_GetRamB1Errors)
00000078  local     $C$L62 (.IO_DRIVER_CODE:DIAG_INT_GetRamB0Errors)
00000080  local     $C$L63 (.IO_DRIVER_CODE:DIAG_INT_GetRamB0Errors)
000000b4  local     $C$L64 (.IO_DRIVER_CODE:DIAG_INT_GetRamB0Errors)
00000078  local     $C$L65 (.IO_DRIVER_CODE:DIAG_INT_GetFlashErrors)
000000ac  local     $C$L66 (.IO_DRIVER_CODE:DIAG_INT_GetFlashErrors)
00000078  local     $C$L67 (.IO_DRIVER_CODE:DIAG_INT_GetCfgFlashErrors)
000000a8  local     $C$L68 (.IO_DRIVER_CODE:DIAG_INT_GetCfgFlashErrors)
000b3c54  local     $C$L69 (.IO_DRIVER_CODE:DIAG_INT_DmaParityTest)
000b6ed4  local     $C$L7 (.IO_DRIVER_CODE:DIAG_INT_TPS_Triggering)
000b3c04  local     $C$L70 (.IO_DRIVER_CODE:DIAG_INT_DmaMpuTest)
000b3d1c  local     $C$L71 (.IO_DRIVER_CODE:DIAG_INT_DmaBasicTest)
000b3d34  local     $C$L72 (.IO_DRIVER_CODE:DIAG_INT_DmaBasicTest)
000b4018  local     $C$L73 (.IO_DRIVER_CODE:DIAG_INT_DCC_Init)
000b93ac  local     $C$L74 (.IO_DRIVER_CODE:DIAG_INT_CoreTaskB)
000b93f0  local     $C$L75 (.IO_DRIVER_CODE:DIAG_INT_CoreTaskB)
000b9404  local     $C$L76 (.IO_DRIVER_CODE:DIAG_INT_CoreTaskB)
000bac60  local     $C$L77 (.IO_DRIVER_CODE:DIAG_INT_CoreTaskA)
000bac88  local     $C$L78 (.IO_DRIVER_CODE:DIAG_INT_CoreTaskA)
000bacb4  local     $C$L79 (.IO_DRIVER_CODE:DIAG_INT_CoreTaskA)
000b6f10  local     $C$L8 (.IO_DRIVER_CODE:DIAG_INT_TPS_Triggering)
000bacdc  local     $C$L80 (.IO_DRIVER_CODE:DIAG_INT_CoreTaskA)
000bad08  local     $C$L81 (.IO_DRIVER_CODE:DIAG_INT_CoreTaskA)
000bad30  local     $C$L82 (.IO_DRIVER_CODE:DIAG_INT_CoreTaskA)
000b361c  local     $C$L83 (.IO_DRIVER_CODE:DIAG_INT_CoreInit)
000b3654  local     $C$L84 (.IO_DRIVER_CODE:DIAG_INT_CoreInit)
000b3678  local     $C$L85 (.IO_DRIVER_CODE:DIAG_INT_CoreInit)
000b36a0  local     $C$L86 (.IO_DRIVER_CODE:DIAG_INT_CoreInit)
000b36cc  local     $C$L87 (.IO_DRIVER_CODE:DIAG_INT_CoreInit)
000b36fc  local     $C$L88 (.IO_DRIVER_CODE:DIAG_INT_CoreInit)
000b3744  local     $C$L89 (.IO_DRIVER_CODE:DIAG_INT_CoreInit)
000b6f60  local     $C$L9 (.IO_DRIVER_CODE:DIAG_INT_TPS_Triggering)
000b3748  local     $C$L90 (.IO_DRIVER_CODE:DIAG_INT_CoreInit)
000b376c  local     $C$L91 (.IO_DRIVER_CODE:DIAG_INT_CoreInit)
000b379c  local     $C$L92 (.IO_DRIVER_CODE:DIAG_INT_CoreInit)
000b37c4  local     $C$L93 (.IO_DRIVER_CODE:DIAG_INT_CoreInit)
000b37ec  local     $C$L94 (.IO_DRIVER_CODE:DIAG_INT_CoreInit)
000b3824  local     $C$L95 (.IO_DRIVER_CODE:DIAG_INT_CoreInit)
000b384c  local     $C$L96 (.IO_DRIVER_CODE:DIAG_INT_CoreInit)
000b3888  local     $C$L97 (.IO_DRIVER_CODE:DIAG_INT_CoreInit)
000b38b0  local     $C$L98 (.IO_DRIVER_CODE:DIAG_INT_CoreInit)
000b38d8  local     $C$L99 (.IO_DRIVER_CODE:DIAG_INT_CoreInit)
000c88d0  local     $a (.IO_DRIVER_CODE:wait_TestEFuseECC)
000c8920  local     $a (.IO_DRIVER_CODE:wait_PSCONSelfTest)
000c8900  local     $a (.IO_DRIVER_CODE:wait_DCCSelfTest)
000c88a0  local     $a (.IO_DRIVER_CODE:wait_CCMSelfTest)
000b34c0  local     $a (.IO_DRIVER_CODE:DIAG_INT_VimParityTest)
000b6e30  local     $a (.IO_DRIVER_CODE:DIAG_INT_TPS_Triggering)
000c2ac0  local     $a (.IO_DRIVER_CODE:DIAG_INT_TPS_CheckTriggering)
000b3b40  local     $a (.IO_DRIVER_CODE:DIAG_INT_SpiParityTest)
000b47d0  local     $a (.IO_DRIVER_CODE:DIAG_INT_NhetParityTest)
000b74d0  local     $a (.IO_DRIVER_CODE:DIAG_INT_ActivateMonTaskTPS)
000b75b0  local     $a (.IO_DRIVER_CODE:DIAG_INT_DoErrorPinTest)
000b7730  local     $a (.IO_DRIVER_CODE:DIAG_INT_TPSErrorPinTest)
000b7960  local     $a (.IO_DRIVER_CODE:DIAG_INT_MonitoringTaskTPSHandler)
000b26f0  local     $a (.IO_DRIVER_CODE:DIAG_INT_GetRamB1Status)
00000000  local     $a (.IO_DRIVER_CODE:DIAG_INT_GetRamB1Errors)
000b26d0  local     $a (.IO_DRIVER_CODE:DIAG_INT_GetRamB0Status)
00000000  local     $a (.IO_DRIVER_CODE:DIAG_INT_GetRamB0Errors)
000b26b0  local     $a (.IO_DRIVER_CODE:DIAG_INT_GetFlashStatus)
00000000  local     $a (.IO_DRIVER_CODE:DIAG_INT_GetFlashErrors)
000b2840  local     $a (.IO_DRIVER_CODE:DIAG_INT_GetCfgFlashStatus)
00000000  local     $a (.IO_DRIVER_CODE:DIAG_INT_GetCfgFlashErrors)
000b3c10  local     $a (.IO_DRIVER_CODE:DIAG_INT_DmaParityTest)
000b3bc0  local     $a (.IO_DRIVER_CODE:DIAG_INT_DmaMpuTest)
000b3c60  local     $a (.IO_DRIVER_CODE:DIAG_INT_DmaBasicTest)
000b3fd0  local     $a (.IO_DRIVER_CODE:DIAG_INT_DCC_Init)
000b9380  local     $a (.IO_DRIVER_CODE:DIAG_INT_CoreTaskB)
000bac30  local     $a (.IO_DRIVER_CODE:DIAG_INT_CoreTaskA)
000b35b0  local     $a (.IO_DRIVER_CODE:DIAG_INT_CoreInit)
000b48a0  local     $a (.IO_DRIVER_CODE:DIAG_INT_AdcParityTest)
0803dbc0  local     $d (.IO_DRIVER_DATA_NORMAL)
0803dbc8  local     $d (.IO_DRIVER_DATA_NORMAL)
0803dbd0  local     $d (.IO_DRIVER_DATA_NORMAL)
0803dbd8  local     $d (.IO_DRIVER_DATA_NORMAL)
000b74d0  local     .IO_DRIVER_CODE:DIAG_INT_ActivateMonTaskTPS (.IO_DRIVER_CODE:DIAG_INT_ActivateMonTaskTPS)
000b48a0  local     .IO_DRIVER_CODE:DIAG_INT_AdcParityTest (.IO_DRIVER_CODE:DIAG_INT_AdcParityTest)
000b35b0  local     .IO_DRIVER_CODE:DIAG_INT_CoreInit (.IO_DRIVER_CODE:DIAG_INT_CoreInit)
000bac30  local     .IO_DRIVER_CODE:DIAG_INT_CoreTaskA (.IO_DRIVER_CODE:DIAG_INT_CoreTaskA)
000b9380  local     .IO_DRIVER_CODE:DIAG_INT_CoreTaskB (.IO_DRIVER_CODE:DIAG_INT_CoreTaskB)
000b3fd0  local     .IO_DRIVER_CODE:DIAG_INT_DCC_Init (.IO_DRIVER_CODE:DIAG_INT_DCC_Init)
000b3c60  local     .IO_DRIVER_CODE:DIAG_INT_DmaBasicTest (.IO_DRIVER_CODE:DIAG_INT_DmaBasicTest)
000b3bc0  local     .IO_DRIVER_CODE:DIAG_INT_DmaMpuTest (.IO_DRIVER_CODE:DIAG_INT_DmaMpuTest)
000b3c10  local     .IO_DRIVER_CODE:DIAG_INT_DmaParityTest (.IO_DRIVER_CODE:DIAG_INT_DmaParityTest)
000b75b0  local     .IO_DRIVER_CODE:DIAG_INT_DoErrorPinTest (.IO_DRIVER_CODE:DIAG_INT_DoErrorPinTest)
00000000  local     .IO_DRIVER_CODE:DIAG_INT_GetCfgFlashErrors (.IO_DRIVER_CODE:DIAG_INT_GetCfgFlashErrors)
000b2840  local     .IO_DRIVER_CODE:DIAG_INT_GetCfgFlashStatus (.IO_DRIVER_CODE:DIAG_INT_GetCfgFlashStatus)
00000000  local     .IO_DRIVER_CODE:DIAG_INT_GetFlashErrors (.IO_DRIVER_CODE:DIAG_INT_GetFlashErrors)
000b26b0  local     .IO_DRIVER_CODE:DIAG_INT_GetFlashStatus (.IO_DRIVER_CODE:DIAG_INT_GetFlashStatus)
00000000  local     .IO_DRIVER_CODE:DIAG_INT_GetRamB0Errors (.IO_DRIVER_CODE:DIAG_INT_GetRamB0Errors)
000b26d0  local     .IO_DRIVER_CODE:DIAG_INT_GetRamB0Status (.IO_DRIVER_CODE:DIAG_INT_GetRamB0Status)
00000000  local     .IO_DRIVER_CODE:DIAG_INT_GetRamB1Errors (.IO_DRIVER_CODE:DIAG_INT_GetRamB1Errors)
000b26f0  local     .IO_DRIVER_CODE:DIAG_INT_GetRamB1Status (.IO_DRIVER_CODE:DIAG_INT_GetRamB1Status)
000b7960  local     .IO_DRIVER_CODE:DIAG_INT_MonitoringTaskTPSHandler (.IO_DRIVER_CODE:DIAG_INT_MonitoringTaskTPSHandler)
000b47d0  local     .IO_DRIVER_CODE:DIAG_INT_NhetParityTest (.IO_DRIVER_CODE:DIAG_INT_NhetParityTest)
000b3b40  local     .IO_DRIVER_CODE:DIAG_INT_SpiParityTest (.IO_DRIVER_CODE:DIAG_INT_SpiParityTest)
000b7730  local     .IO_DRIVER_CODE:DIAG_INT_TPSErrorPinTest (.IO_DRIVER_CODE:DIAG_INT_TPSErrorPinTest)
000c2ac0  local     .IO_DRIVER_CODE:DIAG_INT_TPS_CheckTriggering (.IO_DRIVER_CODE:DIAG_INT_TPS_CheckTriggering)
000b6e30  local     .IO_DRIVER_CODE:DIAG_INT_TPS_Triggering (.IO_DRIVER_CODE:DIAG_INT_TPS_Triggering)
000b34c0  local     .IO_DRIVER_CODE:DIAG_INT_VimParityTest (.IO_DRIVER_CODE:DIAG_INT_VimParityTest)
000c88a0  local     .IO_DRIVER_CODE:wait_CCMSelfTest (.IO_DRIVER_CODE:wait_CCMSelfTest)
000c8900  local     .IO_DRIVER_CODE:wait_DCCSelfTest (.IO_DRIVER_CODE:wait_DCCSelfTest)
000c8920  local     .IO_DRIVER_CODE:wait_PSCONSelfTest (.IO_DRIVER_CODE:wait_PSCONSelfTest)
000c88d0  local     .IO_DRIVER_CODE:wait_TestEFuseECC (.IO_DRIVER_CODE:wait_TestEFuseECC)
0803dbc0  local     .IO_DRIVER_DATA_NORMAL (.IO_DRIVER_DATA_NORMAL)
00000000  local     .text (.text)
000b74d0  local     DIAG_INT_ActivateMonTaskTPS (.IO_DRIVER_CODE:DIAG_INT_ActivateMonTaskTPS)
000b48a0  global    DIAG_INT_AdcParityTest (.IO_DRIVER_CODE:DIAG_INT_AdcParityTest)
000b35b0  global    DIAG_INT_CoreInit (.IO_DRIVER_CODE:DIAG_INT_CoreInit)
000bac30  global    DIAG_INT_CoreTaskA (.IO_DRIVER_CODE:DIAG_INT_CoreTaskA)
000b9380  global    DIAG_INT_CoreTaskB (.IO_DRIVER_CODE:DIAG_INT_CoreTaskB)
000b3fd0  global    DIAG_INT_DCC_Init (.IO_DRIVER_CODE:DIAG_INT_DCC_Init)
000b3c60  global    DIAG_INT_DmaBasicTest (.IO_DRIVER_CODE:DIAG_INT_DmaBasicTest)
0803dbd0  global    DIAG_INT_DmaDestData (.IO_DRIVER_DATA_NORMAL)
000b3bc0  global    DIAG_INT_DmaMpuTest (.IO_DRIVER_CODE:DIAG_INT_DmaMpuTest)
000b3c10  global    DIAG_INT_DmaParityTest (.IO_DRIVER_CODE:DIAG_INT_DmaParityTest)
0803dbc8  global    DIAG_INT_DmaSrcData (.IO_DRIVER_DATA_NORMAL)
000b75b0  local     DIAG_INT_DoErrorPinTest (.IO_DRIVER_CODE:DIAG_INT_DoErrorPinTest)
00000000  global    DIAG_INT_GetCfgFlashErrors (.IO_DRIVER_CODE:DIAG_INT_GetCfgFlashErrors)
000b2840  global    DIAG_INT_GetCfgFlashStatus (.IO_DRIVER_CODE:DIAG_INT_GetCfgFlashStatus)
00000000  global    DIAG_INT_GetFlashErrors (.IO_DRIVER_CODE:DIAG_INT_GetFlashErrors)
000b26b0  global    DIAG_INT_GetFlashStatus (.IO_DRIVER_CODE:DIAG_INT_GetFlashStatus)
00000000  global    DIAG_INT_GetRamB0Errors (.IO_DRIVER_CODE:DIAG_INT_GetRamB0Errors)
000b26d0  global    DIAG_INT_GetRamB0Status (.IO_DRIVER_CODE:DIAG_INT_GetRamB0Status)
00000000  global    DIAG_INT_GetRamB1Errors (.IO_DRIVER_CODE:DIAG_INT_GetRamB1Errors)
000b26f0  global    DIAG_INT_GetRamB1Status (.IO_DRIVER_CODE:DIAG_INT_GetRamB1Status)
000b7960  global    DIAG_INT_MonitoringTaskTPSHandler (.IO_DRIVER_CODE:DIAG_INT_MonitoringTaskTPSHandler)
000b47d0  global    DIAG_INT_NhetParityTest (.IO_DRIVER_CODE:DIAG_INT_NhetParityTest)
000b3b40  global    DIAG_INT_SpiParityTest (.IO_DRIVER_CODE:DIAG_INT_SpiParityTest)
000b7730  local     DIAG_INT_TPSErrorPinTest (.IO_DRIVER_CODE:DIAG_INT_TPSErrorPinTest)
000c2ac0  global    DIAG_INT_TPS_CheckTriggering (.IO_DRIVER_CODE:DIAG_INT_TPS_CheckTriggering)
0803dbd8  local     DIAG_INT_TPS_OldWdtFailCounter$1 (.IO_DRIVER_DATA_NORMAL)
0803dbc0  local     DIAG_INT_TPS_TriggerLoopCnt (.IO_DRIVER_DATA_NORMAL)
000b6e30  global    DIAG_INT_TPS_Triggering (.IO_DRIVER_CODE:DIAG_INT_TPS_Triggering)
000b34c0  global    DIAG_INT_VimParityTest (.IO_DRIVER_CODE:DIAG_INT_VimParityTest)
000c88a0  local     wait_CCMSelfTest (.IO_DRIVER_CODE:wait_CCMSelfTest)
000c8900  local     wait_DCCSelfTest (.IO_DRIVER_CODE:wait_DCCSelfTest)
000c8920  local     wait_PSCONSelfTest (.IO_DRIVER_CODE:wait_PSCONSelfTest)
000c88d0  local     wait_TestEFuseECC (.IO_DRIVER_CODE:wait_TestEFuseECC)


================================================================================

ttc500.lib : drv_IO_INT_PVG_VOUT.obj

Run/Load            
Value     Binding   Name (Section)
--------  --------  ---------------
000bf610  local     $C$L1 (.IO_DRIVER_CODE:IO_INT_PVG_VOUT_WriteOutput)
000c53b0  local     $C$L10 (.IO_DRIVER_CODE:IO_INT_PVG_VOUT_ProtectionTask)
000c5400  local     $C$L11 (.IO_DRIVER_CODE:IO_INT_PVG_VOUT_ProtectionTask)
000c5470  local     $C$L12 (.IO_DRIVER_CODE:IO_INT_PVG_VOUT_ProtectionTask)
000c54c0  local     $C$L13 (.IO_DRIVER_CODE:IO_INT_PVG_VOUT_ProtectionTask)
000c54f0  local     $C$L14 (.IO_DRIVER_CODE:IO_INT_PVG_VOUT_ProtectionTask)
000c5520  local     $C$L15 (.IO_DRIVER_CODE:IO_INT_PVG_VOUT_ProtectionTask)
000c5550  local     $C$L16 (.IO_DRIVER_CODE:IO_INT_PVG_VOUT_ProtectionTask)
000c5564  local     $C$L17 (.IO_DRIVER_CODE:IO_INT_PVG_VOUT_ProtectionTask)
000c5568  local     $C$L18 (.IO_DRIVER_CODE:IO_INT_PVG_VOUT_ProtectionTask)
000c5598  local     $C$L19 (.IO_DRIVER_CODE:IO_INT_PVG_VOUT_ProtectionTask)
000bf624  local     $C$L2 (.IO_DRIVER_CODE:IO_INT_PVG_VOUT_WriteOutput)
000c55c4  local     $C$L20 (.IO_DRIVER_CODE:IO_INT_PVG_VOUT_ProtectionTask)
000c5634  local     $C$L21 (.IO_DRIVER_CODE:IO_INT_PVG_VOUT_ProtectionTask)
000c564c  local     $C$L22 (.IO_DRIVER_CODE:IO_INT_PVG_VOUT_ProtectionTask)
000c5670  local     $C$L23 (.IO_DRIVER_CODE:IO_INT_PVG_VOUT_ProtectionTask)
000c568c  local     $C$L24 (.IO_DRIVER_CODE:IO_INT_PVG_VOUT_ProtectionTask)
000c5690  local     $C$L25 (.IO_DRIVER_CODE:IO_INT_PVG_VOUT_ProtectionTask)
000c5694  local     $C$L26 (.IO_DRIVER_CODE:IO_INT_PVG_VOUT_ProtectionTask)
000c5698  local     $C$L27 (.IO_DRIVER_CODE:IO_INT_PVG_VOUT_ProtectionTask)
000c569c  local     $C$L28 (.IO_DRIVER_CODE:IO_INT_PVG_VOUT_ProtectionTask)
000000b8  local     $C$L29 (.IO_DRIVER_CODE:IO_INT_PVG_VOUT_GetVoltage)
000bf678  local     $C$L3 (.IO_DRIVER_CODE:IO_INT_PVG_VOUT_SetVoltage)
000000c4  local     $C$L30 (.IO_DRIVER_CODE:IO_INT_PVG_VOUT_GetVoltage)
000000c8  local     $C$L31 (.IO_DRIVER_CODE:IO_INT_PVG_VOUT_GetVoltage)
000000cc  local     $C$L32 (.IO_DRIVER_CODE:IO_INT_PVG_VOUT_GetVoltage)
000bf6b0  local     $C$L33 (.IO_DRIVER_CODE:IO_INT_PVG_VOUT_ControlTask)
000bf6d4  local     $C$L34 (.IO_DRIVER_CODE:IO_INT_PVG_VOUT_ControlTask)
000bf6ec  local     $C$L35 (.IO_DRIVER_CODE:IO_INT_PVG_VOUT_ControlTask)
000bf6f8  local     $C$L36 (.IO_DRIVER_CODE:IO_INT_PVG_VOUT_ControlTask)
000bf67c  local     $C$L4 (.IO_DRIVER_CODE:IO_INT_PVG_VOUT_SetVoltage)
000000b0  local     $C$L5 (.IO_DRIVER_CODE:IO_INT_PVG_VOUT_ResetProt)
000000b8  local     $C$L6 (.IO_DRIVER_CODE:IO_INT_PVG_VOUT_ResetProt)
000000c0  local     $C$L7 (.IO_DRIVER_CODE:IO_INT_PVG_VOUT_ResetProt)
000000d0  local     $C$L8 (.IO_DRIVER_CODE:IO_INT_PVG_VOUT_ResetProt)
000c5350  local     $C$L9 (.IO_DRIVER_CODE:IO_INT_PVG_VOUT_ProtectionTask)
000bf5c0  local     $a (.IO_DRIVER_CODE:IO_INT_PVG_VOUT_WriteOutput)
000bf630  local     $a (.IO_DRIVER_CODE:IO_INT_PVG_VOUT_SetVoltage)
000bf668  local     $a (.IO_DRIVER_CODE:IO_INT_PVG_VOUT_SetVoltage)
00000000  local     $a (.IO_DRIVER_CODE:IO_INT_PVG_VOUT_SetPVG)
00000000  local     $a (.IO_DRIVER_CODE:IO_INT_PVG_VOUT_ScalePVGSetpointtoAD)
00000000  local     $a (.IO_DRIVER_CODE:IO_INT_PVG_VOUT_ResetProt)
000c5290  local     $a (.IO_DRIVER_CODE:IO_INT_PVG_VOUT_CheckVoltProtLimit)
000c5300  local     $a (.IO_DRIVER_CODE:IO_INT_PVG_VOUT_ProtectionTask)
00000000  local     $a (.IO_DRIVER_CODE:IO_INT_PVG_VOUT_GetVoltage)
000000a0  local     $a (.IO_DRIVER_CODE:IO_INT_PVG_VOUT_GetVoltage)
000bf690  local     $a (.IO_DRIVER_CODE:IO_INT_PVG_VOUT_ControlTask)
000bf660  local     $t (.IO_DRIVER_CODE:IO_INT_PVG_VOUT_SetVoltage)
00000098  local     $t (.IO_DRIVER_CODE:IO_INT_PVG_VOUT_GetVoltage)
000c5290  local     .IO_DRIVER_CODE:IO_INT_PVG_VOUT_CheckVoltProtLimit (.IO_DRIVER_CODE:IO_INT_PVG_VOUT_CheckVoltProtLimit)
000bf690  local     .IO_DRIVER_CODE:IO_INT_PVG_VOUT_ControlTask (.IO_DRIVER_CODE:IO_INT_PVG_VOUT_ControlTask)
00000000  local     .IO_DRIVER_CODE:IO_INT_PVG_VOUT_GetVoltage (.IO_DRIVER_CODE:IO_INT_PVG_VOUT_GetVoltage)
000c5300  local     .IO_DRIVER_CODE:IO_INT_PVG_VOUT_ProtectionTask (.IO_DRIVER_CODE:IO_INT_PVG_VOUT_ProtectionTask)
00000000  local     .IO_DRIVER_CODE:IO_INT_PVG_VOUT_ResetProt (.IO_DRIVER_CODE:IO_INT_PVG_VOUT_ResetProt)
00000000  local     .IO_DRIVER_CODE:IO_INT_PVG_VOUT_ScalePVGSetpointtoAD (.IO_DRIVER_CODE:IO_INT_PVG_VOUT_ScalePVGSetpointtoAD)
00000000  local     .IO_DRIVER_CODE:IO_INT_PVG_VOUT_SetPVG (.IO_DRIVER_CODE:IO_INT_PVG_VOUT_SetPVG)
000bf630  local     .IO_DRIVER_CODE:IO_INT_PVG_VOUT_SetVoltage (.IO_DRIVER_CODE:IO_INT_PVG_VOUT_SetVoltage)
000bf5c0  local     .IO_DRIVER_CODE:IO_INT_PVG_VOUT_WriteOutput (.IO_DRIVER_CODE:IO_INT_PVG_VOUT_WriteOutput)
00000000  local     .text (.text)
000c5290  local     IO_INT_PVG_VOUT_CheckVoltProtLimit (.IO_DRIVER_CODE:IO_INT_PVG_VOUT_CheckVoltProtLimit)
000bf690  global    IO_INT_PVG_VOUT_ControlTask (.IO_DRIVER_CODE:IO_INT_PVG_VOUT_ControlTask)
00000000  global    IO_INT_PVG_VOUT_GetVoltage (.IO_DRIVER_CODE:IO_INT_PVG_VOUT_GetVoltage)
000c5300  global    IO_INT_PVG_VOUT_ProtectionTask (.IO_DRIVER_CODE:IO_INT_PVG_VOUT_ProtectionTask)
00000000  global    IO_INT_PVG_VOUT_ResetProt (.IO_DRIVER_CODE:IO_INT_PVG_VOUT_ResetProt)
00000000  global    IO_INT_PVG_VOUT_ScalePVGSetpointtoAD (.IO_DRIVER_CODE:IO_INT_PVG_VOUT_ScalePVGSetpointtoAD)
00000000  global    IO_INT_PVG_VOUT_SetPVG (.IO_DRIVER_CODE:IO_INT_PVG_VOUT_SetPVG)
000bf630  global    IO_INT_PVG_VOUT_SetVoltage (.IO_DRIVER_CODE:IO_INT_PVG_VOUT_SetVoltage)
000bf5c0  global    IO_INT_PVG_VOUT_WriteOutput (.IO_DRIVER_CODE:IO_INT_PVG_VOUT_WriteOutput)


================================================================================

ttc500.lib : drv_IO_INT_DOWNLOAD.obj

Run/Load            
Value     Binding   Name (Section)
--------  --------  ---------------
000c1cc4  local     $C$L1 (.IO_DRIVER_CODE:IO_INT_DOWNLOAD_FrameAllowed)
000c1df0  local     $C$L10 (.IO_DRIVER_CODE:IO_INT_DOWNLOAD_Crypt)
000c1df4  local     $C$L11 (.IO_DRIVER_CODE:IO_INT_DOWNLOAD_Crypt)
000c1e2c  local     $C$L12 (.IO_DRIVER_CODE:IO_INT_DOWNLOAD_Crypt)
000c1e3c  local     $C$L13 (.IO_DRIVER_CODE:IO_INT_DOWNLOAD_Crypt)
000c1e40  local     $C$L14 (.IO_DRIVER_CODE:IO_INT_DOWNLOAD_Crypt)
000c21e0  local     $C$L15 (.IO_DRIVER_CODE:IO_INT_DOWNLOAD_PrepareHeader)
000c2708  local     $C$L16 (.IO_DRIVER_CODE:IO_INT_DOWNLOAD_Handshake)
000c276c  local     $C$L17 (.IO_DRIVER_CODE:IO_INT_DOWNLOAD_Handshake)
000c2774  local     $C$L18 (.IO_DRIVER_CODE:IO_INT_DOWNLOAD_Handshake)
000c27e0  local     $C$L19 (.IO_DRIVER_CODE:IO_INT_DOWNLOAD_SavePCData)
000c1d20  local     $C$L2 (.IO_DRIVER_CODE:IO_INT_DOWNLOAD_Crypt)
000c2840  local     $C$L20 (.IO_DRIVER_CODE:IO_INT_DOWNLOAD_Task)
000c28c0  local     $C$L21 (.IO_DRIVER_CODE:IO_INT_DOWNLOAD_Task)
000c28d4  local     $C$L22 (.IO_DRIVER_CODE:IO_INT_DOWNLOAD_Task)
000c28e0  local     $C$L23 (.IO_DRIVER_CODE:IO_INT_DOWNLOAD_Task)
000c2940  local     $C$L24 (.IO_DRIVER_CODE:IO_INT_DOWNLOAD_Task)
000c2950  local     $C$L25 (.IO_DRIVER_CODE:IO_INT_DOWNLOAD_Task)
000c29ac  local     $C$L26 (.IO_DRIVER_CODE:IO_INT_DOWNLOAD_Task)
000c2a00  local     $C$L27 (.IO_DRIVER_CODE:IO_INT_DOWNLOAD_Task)
000c2a10  local     $C$L28 (.IO_DRIVER_CODE:IO_INT_DOWNLOAD_Task)
000c2a20  local     $C$L29 (.IO_DRIVER_CODE:IO_INT_DOWNLOAD_Task)
000c1d48  local     $C$L3 (.IO_DRIVER_CODE:IO_INT_DOWNLOAD_Crypt)
000c2a28  local     $C$L30 (.IO_DRIVER_CODE:IO_INT_DOWNLOAD_Task)
000c2a4c  local     $C$L31 (.IO_DRIVER_CODE:IO_INT_DOWNLOAD_Task)
000c2a60  local     $C$L32 (.IO_DRIVER_CODE:IO_INT_DOWNLOAD_Task)
000c2a88  local     $C$L33 (.IO_DRIVER_CODE:IO_INT_DOWNLOAD_Task)
000c2a90  local     $C$L34 (.IO_DRIVER_CODE:IO_INT_DOWNLOAD_Task)
000c2aa4  local     $C$L35 (.IO_DRIVER_CODE:IO_INT_DOWNLOAD_Task)
000c2aac  local     $C$L36 (.IO_DRIVER_CODE:IO_INT_DOWNLOAD_Task)
000c2ab0  local     $C$L37 (.IO_DRIVER_CODE:IO_INT_DOWNLOAD_Task)
000c1d58  local     $C$L4 (.IO_DRIVER_CODE:IO_INT_DOWNLOAD_Crypt)
000c1d5c  local     $C$L5 (.IO_DRIVER_CODE:IO_INT_DOWNLOAD_Crypt)
000c1d94  local     $C$L6 (.IO_DRIVER_CODE:IO_INT_DOWNLOAD_Crypt)
000c1da4  local     $C$L7 (.IO_DRIVER_CODE:IO_INT_DOWNLOAD_Crypt)
000c1da8  local     $C$L8 (.IO_DRIVER_CODE:IO_INT_DOWNLOAD_Crypt)
000c1de0  local     $C$L9 (.IO_DRIVER_CODE:IO_INT_DOWNLOAD_Crypt)
000c1c50  local     $a (.IO_DRIVER_CODE:IO_INT_DOWNLOAD_FrameAllowed)
000c1cd0  local     $a (.IO_DRIVER_CODE:IO_INT_DOWNLOAD_Crypt)
000c2060  local     $a (.IO_DRIVER_CODE:IO_INT_DOWNLOAD_PrepareHeader)
000c25e0  local     $a (.IO_DRIVER_CODE:IO_INT_DOWNLOAD_Send_UDP)
000c2610  local     $a (.IO_DRIVER_CODE:IO_INT_DOWNLOAD_Handshake)
000c2780  local     $a (.IO_DRIVER_CODE:IO_INT_DOWNLOAD_SavePCData)
000c27f0  local     $a (.IO_DRIVER_CODE:IO_INT_DOWNLOAD_Task)
00000000  local     $a (.IO_DRIVER_CODE:IO_INT_DOWNLOAD_Init)
0803a1f8  local     $d (.IO_DRIVER_DATA_NORMAL:init)
0803a7d4  local     $d (.IO_DRIVER_DATA_NORMAL:init)
0803adb0  local     $d (.IO_DRIVER_DATA_NORMAL:init)
0803adb6  local     $d (.IO_DRIVER_DATA_NORMAL:init)
0803adbc  local     $d (.IO_DRIVER_DATA_NORMAL:init)
0803adc4  local     $d (.IO_DRIVER_DATA_NORMAL:init)
0803adc8  local     $d (.IO_DRIVER_DATA_NORMAL:init)
0803adcc  local     $d (.IO_DRIVER_DATA_NORMAL:init)
0803add0  local     $d (.IO_DRIVER_DATA_NORMAL:init)
0803add2  local     $d (.IO_DRIVER_DATA_NORMAL:init)
0803add3  local     $d (.IO_DRIVER_DATA_NORMAL:init)
0803add4  local     $d (.IO_DRIVER_DATA_NORMAL:init)
0803adec  local     $d (.IO_DRIVER_DATA_NORMAL:init)
0803ae04  local     $d (.IO_DRIVER_DATA_NORMAL:init)
0803ae08  local     $d (.IO_DRIVER_DATA_NORMAL:init)
0803ae0c  local     $d (.IO_DRIVER_DATA_NORMAL:init)
0803dc58  local     $d (.IO_DRIVER_DATA_NORMAL:uninit)
000c1cd0  local     .IO_DRIVER_CODE:IO_INT_DOWNLOAD_Crypt (.IO_DRIVER_CODE:IO_INT_DOWNLOAD_Crypt)
000c1c50  local     .IO_DRIVER_CODE:IO_INT_DOWNLOAD_FrameAllowed (.IO_DRIVER_CODE:IO_INT_DOWNLOAD_FrameAllowed)
000c2610  local     .IO_DRIVER_CODE:IO_INT_DOWNLOAD_Handshake (.IO_DRIVER_CODE:IO_INT_DOWNLOAD_Handshake)
00000000  local     .IO_DRIVER_CODE:IO_INT_DOWNLOAD_Init (.IO_DRIVER_CODE:IO_INT_DOWNLOAD_Init)
000c2060  local     .IO_DRIVER_CODE:IO_INT_DOWNLOAD_PrepareHeader (.IO_DRIVER_CODE:IO_INT_DOWNLOAD_PrepareHeader)
000c2780  local     .IO_DRIVER_CODE:IO_INT_DOWNLOAD_SavePCData (.IO_DRIVER_CODE:IO_INT_DOWNLOAD_SavePCData)
000c25e0  local     .IO_DRIVER_CODE:IO_INT_DOWNLOAD_Send_UDP (.IO_DRIVER_CODE:IO_INT_DOWNLOAD_Send_UDP)
000c27f0  local     .IO_DRIVER_CODE:IO_INT_DOWNLOAD_Task (.IO_DRIVER_CODE:IO_INT_DOWNLOAD_Task)
0803a1f8  local     .IO_DRIVER_DATA_NORMAL:init (.IO_DRIVER_DATA_NORMAL:init)
0803dc58  local     .IO_DRIVER_DATA_NORMAL:uninit (.IO_DRIVER_DATA_NORMAL:uninit)
00000000  local     .text (.text)
0803add3  global    IO_INT_DOWNLOAD_AutoRead (.IO_DRIVER_DATA_NORMAL:init)
0803ae08  local     IO_INT_DOWNLOAD_ConnectTimestamp$1 (.IO_DRIVER_DATA_NORMAL:init)
000c1cd0  global    IO_INT_DOWNLOAD_Crypt (.IO_DRIVER_CODE:IO_INT_DOWNLOAD_Crypt)
000c1c50  global    IO_INT_DOWNLOAD_FrameAllowed (.IO_DRIVER_CODE:IO_INT_DOWNLOAD_FrameAllowed)
000c2610  local     IO_INT_DOWNLOAD_Handshake (.IO_DRIVER_CODE:IO_INT_DOWNLOAD_Handshake)
0803ae0c  local     IO_INT_DOWNLOAD_HandshakeTimestamp$2 (.IO_DRIVER_DATA_NORMAL:init)
00000000  global    IO_INT_DOWNLOAD_Init (.IO_DRIVER_CODE:IO_INT_DOWNLOAD_Init)
0803adc4  local     IO_INT_DOWNLOAD_McIp (.IO_DRIVER_DATA_NORMAL:init)
0803adb6  local     IO_INT_DOWNLOAD_McMac (.IO_DRIVER_DATA_NORMAL:init)
0803ae04  global    IO_INT_DOWNLOAD_MyIp (.IO_DRIVER_DATA_NORMAL:init)
0803adb0  local     IO_INT_DOWNLOAD_MyMac (.IO_DRIVER_DATA_NORMAL:init)
0803adc8  local     IO_INT_DOWNLOAD_PcIp (.IO_DRIVER_DATA_NORMAL:init)
0803adbc  local     IO_INT_DOWNLOAD_PcMac (.IO_DRIVER_DATA_NORMAL:init)
000c2060  local     IO_INT_DOWNLOAD_PrepareHeader (.IO_DRIVER_CODE:IO_INT_DOWNLOAD_PrepareHeader)
000c2780  global    IO_INT_DOWNLOAD_SavePCData (.IO_DRIVER_CODE:IO_INT_DOWNLOAD_SavePCData)
000c25e0  global    IO_INT_DOWNLOAD_Send_UDP (.IO_DRIVER_CODE:IO_INT_DOWNLOAD_Send_UDP)
0803add2  global    IO_INT_DOWNLOAD_State (.IO_DRIVER_DATA_NORMAL:init)
0803adcc  local     IO_INT_DOWNLOAD_Subnet (.IO_DRIVER_DATA_NORMAL:init)
000c27f0  global    IO_INT_DOWNLOAD_Task (.IO_DRIVER_CODE:IO_INT_DOWNLOAD_Task)
0803add0  local     IO_INT_DOWNLOAD_UdpPort (.IO_DRIVER_DATA_NORMAL:init)
0803add4  global    IO_INT_DOWNLOAD_rx_frame (.IO_DRIVER_DATA_NORMAL:init)
0803a1f8  local     IO_INT_DOWNLOAD_rx_frame_data (.IO_DRIVER_DATA_NORMAL:init)
0803adec  global    IO_INT_DOWNLOAD_tx_frame (.IO_DRIVER_DATA_NORMAL:init)
0803a7d4  local     IO_INT_DOWNLOAD_tx_frame_data (.IO_DRIVER_DATA_NORMAL:init)
0803dc58  local     rand_nr$3 (.IO_DRIVER_DATA_NORMAL:uninit)


================================================================================

ttc500.lib : drv_IO_INT_MPU.obj

Run/Load            
Value     Binding   Name (Section)
--------  --------  ---------------
000bb0c8  local     $C$L1 (.IO_DRIVER_CODE:IO_INT_MPU_InternalCodeBegin)
000bb0d0  local     $C$L2 (.IO_DRIVER_CODE:IO_INT_MPU_InternalCodeBegin)
000bb0e8  local     $C$L3 (.IO_DRIVER_CODE:IO_INT_MPU_InternalCodeBegin)
000aff70  local     $C$L4 (.IO_DRIVER_CODE:IO_INT_MPU_Init)
000afea0  local     $a (.IO_DRIVER_CODE:IO_INT_MPU_SetupRegion)
000bb140  local     $a (.IO_DRIVER_CODE:IO_INT_MPU_InternalCodeEnd)
000bb0a0  local     $a (.IO_DRIVER_CODE:IO_INT_MPU_InternalCodeBegin)
000aff40  local     $a (.IO_DRIVER_CODE:IO_INT_MPU_Init)
000ca9dc  local     $d (.IO_DRIVER_CONST)
000ca9f0  local     $d (.IO_DRIVER_CONST)
000caa04  local     $d (.IO_DRIVER_CONST)
0803dc50  local     $d (.IO_DRIVER_DATA_NORMAL)
000aff40  local     .IO_DRIVER_CODE:IO_INT_MPU_Init (.IO_DRIVER_CODE:IO_INT_MPU_Init)
000bb0a0  local     .IO_DRIVER_CODE:IO_INT_MPU_InternalCodeBegin (.IO_DRIVER_CODE:IO_INT_MPU_InternalCodeBegin)
000bb140  local     .IO_DRIVER_CODE:IO_INT_MPU_InternalCodeEnd (.IO_DRIVER_CODE:IO_INT_MPU_InternalCodeEnd)
000afea0  local     .IO_DRIVER_CODE:IO_INT_MPU_SetupRegion (.IO_DRIVER_CODE:IO_INT_MPU_SetupRegion)
000ca9dc  local     .IO_DRIVER_CONST (.IO_DRIVER_CONST)
0803dc50  local     .IO_DRIVER_DATA_NORMAL (.IO_DRIVER_DATA_NORMAL)
00000000  local     .text (.text)
000aff40  global    IO_INT_MPU_Init (.IO_DRIVER_CODE:IO_INT_MPU_Init)
000bb0a0  global    IO_INT_MPU_InternalCodeBegin (.IO_DRIVER_CODE:IO_INT_MPU_InternalCodeBegin)
000bb140  global    IO_INT_MPU_InternalCodeEnd (.IO_DRIVER_CODE:IO_INT_MPU_InternalCodeEnd)
000ca9f0  global    IO_INT_MPU_MirroredFlash (.IO_DRIVER_CONST)
000ca9dc  global    IO_INT_MPU_RamECC (.IO_DRIVER_CONST)
000afea0  global    IO_INT_MPU_SetupRegion (.IO_DRIVER_CODE:IO_INT_MPU_SetupRegion)
0803dc50  global    IO_MPU_policySetting (.IO_DRIVER_DATA_NORMAL)
000caa04  local     defaultRegions (.IO_DRIVER_CONST)


================================================================================

ttc500.lib : drv_IO_Tools.obj

Run/Load            
Value     Binding   Name (Section)
--------  --------  ---------------
00000050  local     $C$L1 (.IO_DRIVER_CODE:IO_Tools_Memswap)
00000074  local     $C$L2 (.IO_DRIVER_CODE:IO_Tools_Memswap)
0000008c  local     $C$L3 (.IO_DRIVER_CODE:IO_Tools_Memswap)
000b2c50  local     $C$L4 (.IO_DRIVER_CODE:IO_Tools_CalcCRC)
000b2c84  local     $C$L5 (.IO_DRIVER_CODE:IO_Tools_CalcCRC)
00000000  local     $a (.IO_DRIVER_CODE:IO_Tools_Memswap)
000b2c20  local     $a (.IO_DRIVER_CODE:IO_Tools_CalcCRC)
000c9448  local     $d (.IO_DRIVER_CONST)
000c9508  local     $d (.IO_DRIVER_CONST)
0803951c  local     $d (.IO_DRIVER_DATA_NORMAL)
0803990c  local     $d (.IO_DRIVER_DATA_NORMAL)
08039b8c  local     $d (.IO_DRIVER_DATA_NORMAL)
000c9908  local     $d (.IO_DRIVER_CONST)
000c9ab8  local     $d (.IO_DRIVER_CONST)
000c9ad9  local     $d (.IO_DRIVER_CONST)
000c9afc  local     $d (.IO_DRIVER_CONST)
000c9c1c  local     $d (.IO_DRIVER_CONST)
000c9c28  local     $d (.IO_DRIVER_CONST)
000c9d28  local     $d (.IO_DRIVER_CONST)
000c9d68  local     $d (.IO_DRIVER_CONST)
000c9d98  local     $d (.IO_DRIVER_CONST)
000c9da0  local     $d (.IO_DRIVER_CONST)
000c9db0  local     $d (.IO_DRIVER_CONST)
08039bbc  local     $d (.IO_DRIVER_DATA_NORMAL)
000b2c20  local     .IO_DRIVER_CODE:IO_Tools_CalcCRC (.IO_DRIVER_CODE:IO_Tools_CalcCRC)
00000000  local     .IO_DRIVER_CODE:IO_Tools_Memswap (.IO_DRIVER_CODE:IO_Tools_Memswap)
000c9448  local     .IO_DRIVER_CONST (.IO_DRIVER_CONST)
0803951c  local     .IO_DRIVER_DATA_NORMAL (.IO_DRIVER_DATA_NORMAL)
00000000  local     .text (.text)
000c9508  global    CrcPolynome_u32a (.IO_DRIVER_CONST)
000b2c20  global    IO_Tools_CalcCRC (.IO_DRIVER_CODE:IO_Tools_CalcCRC)
00000000  global    IO_Tools_Memswap (.IO_DRIVER_CODE:IO_Tools_Memswap)
0803951c  local     io_adc_cur_queue (.IO_DRIVER_DATA_NORMAL)
08039b8c  global    io_adc_dio_cur_tb (.IO_DRIVER_DATA_NORMAL)
0803990c  global    io_adc_pwm_cur_tb (.IO_DRIVER_DATA_NORMAL)
000c9afc  local     io_adc_tb (.IO_DRIVER_CONST)
000c9da0  local     io_can_tb (.IO_DRIVER_CONST)
000c9c28  local     io_do_tb (.IO_DRIVER_CONST)
000c9c1c  local     io_int_adc_tb (.IO_DRIVER_CONST)
000c9ab8  global    io_nhet1_int_tb (.IO_DRIVER_CONST)
000c9ad9  global    io_nhet2_int_tb (.IO_DRIVER_CONST)
08039bbc  global    io_pin_tb (.IO_DRIVER_DATA_NORMAL)
000c9d28  local     io_pvg_tb (.IO_DRIVER_CONST)
000c9db0  local     io_pwd_tb (.IO_DRIVER_CONST)
000c9908  local     io_pwm_tb (.IO_DRIVER_CONST)
000c9d98  local     io_safety_sw_tb (.IO_DRIVER_CONST)
000c9d68  local     io_sens_sup_tb (.IO_DRIVER_CONST)
000c9448  local     io_shift_tb (.IO_DRIVER_CONST)


================================================================================

ttc500.lib : drv_IO_PVG.obj

Run/Load            
Value     Binding   Name (Section)
--------  --------  ---------------
00000080  local     $C$L1 (.IO_DRIVER_CODE:IO_PVG_SetOutput)
000000b0  local     $C$L10 (.IO_DRIVER_CODE:IO_PVG_Init)
00000128  local     $C$L11 (.IO_DRIVER_CODE:IO_PVG_Init)
0000012c  local     $C$L12 (.IO_DRIVER_CODE:IO_PVG_Init)
00000078  local     $C$L13 (.IO_DRIVER_CODE:IO_PVG_GetVoltage)
0000009c  local     $C$L14 (.IO_DRIVER_CODE:IO_PVG_DeInit)
00000088  local     $C$L2 (.IO_DRIVER_CODE:IO_PVG_SetOutput)
000000c4  local     $C$L3 (.IO_DRIVER_CODE:IO_PVG_SetOutput)
000000cc  local     $C$L4 (.IO_DRIVER_CODE:IO_PVG_SetOutput)
000000d4  local     $C$L5 (.IO_DRIVER_CODE:IO_PVG_SetOutput)
000000dc  local     $C$L6 (.IO_DRIVER_CODE:IO_PVG_SetOutput)
000000e4  local     $C$L7 (.IO_DRIVER_CODE:IO_PVG_SetOutput)
00000100  local     $C$L8 (.IO_DRIVER_CODE:IO_PVG_SetOutput)
000000a8  local     $C$L9 (.IO_DRIVER_CODE:IO_PVG_Init)
00000000  local     $a (.IO_DRIVER_CODE:IO_PVG_SetOutput)
00000000  local     $a (.IO_DRIVER_CODE:IO_PVG_ResetProtection)
00000000  local     $a (.IO_DRIVER_CODE:IO_PVG_Init)
00000000  local     $a (.IO_DRIVER_CODE:IO_PVG_GetVoltage)
00000000  local     $a (.IO_DRIVER_CODE:IO_PVG_DeInit)
0803d8f0  local     $d (.IO_DRIVER_DATA_NORMAL)
00000000  local     .IO_DRIVER_CODE:IO_PVG_DeInit (.IO_DRIVER_CODE:IO_PVG_DeInit)
00000000  local     .IO_DRIVER_CODE:IO_PVG_GetVoltage (.IO_DRIVER_CODE:IO_PVG_GetVoltage)
00000000  local     .IO_DRIVER_CODE:IO_PVG_Init (.IO_DRIVER_CODE:IO_PVG_Init)
00000000  local     .IO_DRIVER_CODE:IO_PVG_ResetProtection (.IO_DRIVER_CODE:IO_PVG_ResetProtection)
00000000  local     .IO_DRIVER_CODE:IO_PVG_SetOutput (.IO_DRIVER_CODE:IO_PVG_SetOutput)
0803d8f0  local     .IO_DRIVER_DATA_NORMAL (.IO_DRIVER_DATA_NORMAL)
00000000  local     .text (.text)
00000000  global    IO_PVG_DeInit (.IO_DRIVER_CODE:IO_PVG_DeInit)
00000000  global    IO_PVG_GetVoltage (.IO_DRIVER_CODE:IO_PVG_GetVoltage)
00000000  global    IO_PVG_Init (.IO_DRIVER_CODE:IO_PVG_Init)
00000000  global    IO_PVG_ResetProtection (.IO_DRIVER_CODE:IO_PVG_ResetProtection)
00000000  global    IO_PVG_SetOutput (.IO_DRIVER_CODE:IO_PVG_SetOutput)
0803d8f0  global    io_pvg_stat_tb (.IO_DRIVER_DATA_NORMAL)


================================================================================

ttc500.lib : drv_DIAG_INT_ErrorHandler.obj

Run/Load            
Value     Binding   Name (Section)
--------  --------  ---------------
000b09a0  local     $C$L1 (.IO_DRIVER_CODE:DIAG_ERR_HandleTempErr)
000b16e0  local     $C$L10 (.IO_DRIVER_CODE:DIAG_ERR_DisableSafetySwitch)
000b1760  local     $C$L11 (.IO_DRIVER_CODE:DIAG_ERR_DisableSafeHS)
000b17c0  local     $C$L12 (.IO_DRIVER_CODE:DIAG_ERR_DisableSafeHS)
000b1b9c  local     $C$L13 (.IO_DRIVER_CODE:DIAG_ERR_HandleAppCallback)
000b1ba4  local     $C$L14 (.IO_DRIVER_CODE:DIAG_ERR_HandleAppCallback)
000b1bbc  local     $C$L15 (.IO_DRIVER_CODE:DIAG_ERR_HandleAppCallback)
000b1bd0  local     $C$L16 (.IO_DRIVER_CODE:DIAG_ERR_HandleAppCallback)
000b1bdc  local     $C$L17 (.IO_DRIVER_CODE:DIAG_ERR_HandleAppCallback)
000b1be0  local     $C$L18 (.IO_DRIVER_CODE:DIAG_ERR_HandleAppCallback)
000b1bf0  local     $C$L19 (.IO_DRIVER_CODE:DIAG_ERR_HandleAppCallback)
000b09b8  local     $C$L2 (.IO_DRIVER_CODE:DIAG_ERR_HandleTempErr)
000b1c04  local     $C$L20 (.IO_DRIVER_CODE:DIAG_ERR_HandleAppCallback)
000b1c18  local     $C$L21 (.IO_DRIVER_CODE:DIAG_ERR_HandleAppCallback)
000b1c2c  local     $C$L22 (.IO_DRIVER_CODE:DIAG_ERR_HandleAppCallback)
000b1c40  local     $C$L23 (.IO_DRIVER_CODE:DIAG_ERR_HandleAppCallback)
000b1c54  local     $C$L24 (.IO_DRIVER_CODE:DIAG_ERR_HandleAppCallback)
000b1c68  local     $C$L25 (.IO_DRIVER_CODE:DIAG_ERR_HandleAppCallback)
000b1c7c  local     $C$L26 (.IO_DRIVER_CODE:DIAG_ERR_HandleAppCallback)
000b1c90  local     $C$L27 (.IO_DRIVER_CODE:DIAG_ERR_HandleAppCallback)
000b1c98  local     $C$L28 (.IO_DRIVER_CODE:DIAG_ERR_HandleAppCallback)
000b1e5c  local     $C$L29 (.IO_DRIVER_CODE:DIAG_ERR_HandleAppNotify)
000b09bc  local     $C$L3 (.IO_DRIVER_CODE:DIAG_ERR_HandleTempErr)
000b1eec  local     $C$L30 (.IO_DRIVER_CODE:DIAG_ERR_Notify)
000b1f3c  local     $C$L31 (.IO_DRIVER_CODE:DIAG_ERR_Notify)
000b1f54  local     $C$L32 (.IO_DRIVER_CODE:DIAG_ERR_Notify)
000b1f88  local     $C$L33 (.IO_DRIVER_CODE:DIAG_ERR_Notify)
000b1fb8  local     $C$L34 (.IO_DRIVER_CODE:DIAG_ERR_Notify)
000b1fbc  local     $C$L35 (.IO_DRIVER_CODE:DIAG_ERR_Notify)
000b1fc0  local     $C$L36 (.IO_DRIVER_CODE:DIAG_ERR_Notify)
000b0a00  local     $C$L4 (.IO_DRIVER_CODE:DIAG_ERR_HandleTempErr)
000b0a44  local     $C$L5 (.IO_DRIVER_CODE:DIAG_ERR_HandleTempErr)
000b0a48  local     $C$L6 (.IO_DRIVER_CODE:DIAG_ERR_HandleTempErr)
000b0a54  local     $C$L7 (.IO_DRIVER_CODE:DIAG_ERR_HandleTempErr)
000b0a60  local     $C$L8 (.IO_DRIVER_CODE:DIAG_ERR_HandleTempErr)
000b1690  local     $C$L9 (.IO_DRIVER_CODE:DIAG_ERR_DisableSafetySwitch)
000b0910  local     $a (.IO_DRIVER_CODE:DIAG_ERR_GetType)
000b0930  local     $a (.IO_DRIVER_CODE:DIAG_ERR_HandleTempErr)
000b1630  local     $a (.IO_DRIVER_CODE:DIAG_ERR_DisableSafetySwitch)
000b16f0  local     $a (.IO_DRIVER_CODE:DIAG_ERR_DisableSafeHS)
000b1b10  local     $a (.IO_DRIVER_CODE:DIAG_ERR_HandleAppCallback)
000b1df0  local     $a (.IO_DRIVER_CODE:DIAG_ERR_HandleAppNotify)
000b1e70  local     $a (.IO_DRIVER_CODE:DIAG_ERR_Notify)
00000000  local     $a (.IO_DRIVER_CODE:DIAG_ERR_GetGlitchData)
00000000  local     $a (.IO_DRIVER_CODE:DIAG_ERR_Get)
000cad78  local     $d (.IO_DRIVER_CONST)
0803bd9c  local     $d (.IO_DRIVER_DATA_NORMAL)
0803c3e4  local     $d (.IO_DRIVER_DATA_NORMAL)
0803c3ec  local     $d (.IO_DRIVER_DATA_NORMAL)
000b16f0  local     .IO_DRIVER_CODE:DIAG_ERR_DisableSafeHS (.IO_DRIVER_CODE:DIAG_ERR_DisableSafeHS)
000b1630  local     .IO_DRIVER_CODE:DIAG_ERR_DisableSafetySwitch (.IO_DRIVER_CODE:DIAG_ERR_DisableSafetySwitch)
00000000  local     .IO_DRIVER_CODE:DIAG_ERR_Get (.IO_DRIVER_CODE:DIAG_ERR_Get)
00000000  local     .IO_DRIVER_CODE:DIAG_ERR_GetGlitchData (.IO_DRIVER_CODE:DIAG_ERR_GetGlitchData)
000b0910  local     .IO_DRIVER_CODE:DIAG_ERR_GetType (.IO_DRIVER_CODE:DIAG_ERR_GetType)
000b1b10  local     .IO_DRIVER_CODE:DIAG_ERR_HandleAppCallback (.IO_DRIVER_CODE:DIAG_ERR_HandleAppCallback)
000b1df0  local     .IO_DRIVER_CODE:DIAG_ERR_HandleAppNotify (.IO_DRIVER_CODE:DIAG_ERR_HandleAppNotify)
000b0930  local     .IO_DRIVER_CODE:DIAG_ERR_HandleTempErr (.IO_DRIVER_CODE:DIAG_ERR_HandleTempErr)
000b1e70  local     .IO_DRIVER_CODE:DIAG_ERR_Notify (.IO_DRIVER_CODE:DIAG_ERR_Notify)
000cad78  local     .IO_DRIVER_CONST (.IO_DRIVER_CONST)
0803bd9c  local     .IO_DRIVER_DATA_NORMAL (.IO_DRIVER_DATA_NORMAL)
00000000  local     .text (.text)
000b16f0  local     DIAG_ERR_DisableSafeHS (.IO_DRIVER_CODE:DIAG_ERR_DisableSafeHS)
000b1630  local     DIAG_ERR_DisableSafetySwitch (.IO_DRIVER_CODE:DIAG_ERR_DisableSafetySwitch)
00000000  global    DIAG_ERR_Get (.IO_DRIVER_CODE:DIAG_ERR_Get)
00000000  global    DIAG_ERR_GetGlitchData (.IO_DRIVER_CODE:DIAG_ERR_GetGlitchData)
000b0910  local     DIAG_ERR_GetType (.IO_DRIVER_CODE:DIAG_ERR_GetType)
000b1b10  local     DIAG_ERR_HandleAppCallback (.IO_DRIVER_CODE:DIAG_ERR_HandleAppCallback)
000b1df0  local     DIAG_ERR_HandleAppNotify (.IO_DRIVER_CODE:DIAG_ERR_HandleAppNotify)
000b0930  local     DIAG_ERR_HandleTempErr (.IO_DRIVER_CODE:DIAG_ERR_HandleTempErr)
000b1e70  global    DIAG_ERR_Notify (.IO_DRIVER_CODE:DIAG_ERR_Notify)
0803bd9c  local     diag_err_glitch_data (.IO_DRIVER_DATA_NORMAL)
000cad78  local     diag_err_type_table (.IO_DRIVER_CONST)
0803c3e4  local     diag_error (.IO_DRIVER_DATA_NORMAL)
0803c3ec  local     diag_error_callback_active (.IO_DRIVER_DATA_NORMAL)


================================================================================

ttc500.lib : drv_IO_INT_SHIFT.obj

Run/Load            
Value     Binding   Name (Section)
--------  --------  ---------------
000b0edc  local     $C$L1 (.IO_DRIVER_CODE:IO_INT_SHIFT_Write)
000b1ae0  local     $C$L2 (.IO_DRIVER_CODE:IO_INT_SHIFT_Sync)
000b1afc  local     $C$L3 (.IO_DRIVER_CODE:IO_INT_SHIFT_Sync)
000b9db4  local     $C$L4 (.IO_DRIVER_CODE:IO_INT_SHIFT_Read)
000b0e10  local     $a (.IO_DRIVER_CODE:IO_INT_SHIFT_Write)
000b1ab0  local     $a (.IO_DRIVER_CODE:IO_INT_SHIFT_Sync)
000b9d70  local     $a (.IO_DRIVER_CODE:IO_INT_SHIFT_Read)
000b3ec0  local     $a (.IO_DRIVER_CODE:IO_INT_SHIFT_SafetyInit)
000b3ef0  local     $a (.IO_DRIVER_CODE:IO_INT_SHIFT_Init)
0803dbda  local     $d (.IO_DRIVER_DATA_NORMAL)
0803dbe6  local     $d (.IO_DRIVER_DATA_NORMAL)
0803dbf2  local     $d (.IO_DRIVER_DATA_NORMAL)
000b3ef0  local     .IO_DRIVER_CODE:IO_INT_SHIFT_Init (.IO_DRIVER_CODE:IO_INT_SHIFT_Init)
000b9d70  local     .IO_DRIVER_CODE:IO_INT_SHIFT_Read (.IO_DRIVER_CODE:IO_INT_SHIFT_Read)
000b3ec0  local     .IO_DRIVER_CODE:IO_INT_SHIFT_SafetyInit (.IO_DRIVER_CODE:IO_INT_SHIFT_SafetyInit)
000b1ab0  local     .IO_DRIVER_CODE:IO_INT_SHIFT_Sync (.IO_DRIVER_CODE:IO_INT_SHIFT_Sync)
000b0e10  local     .IO_DRIVER_CODE:IO_INT_SHIFT_Write (.IO_DRIVER_CODE:IO_INT_SHIFT_Write)
0803dbda  local     .IO_DRIVER_DATA_NORMAL (.IO_DRIVER_DATA_NORMAL)
00000000  local     .text (.text)
000b3ef0  global    IO_INT_SHIFT_Init (.IO_DRIVER_CODE:IO_INT_SHIFT_Init)
000b9d70  global    IO_INT_SHIFT_Read (.IO_DRIVER_CODE:IO_INT_SHIFT_Read)
000b3ec0  local     IO_INT_SHIFT_SafetyInit (.IO_DRIVER_CODE:IO_INT_SHIFT_SafetyInit)
000b1ab0  global    IO_INT_SHIFT_Sync (.IO_DRIVER_CODE:IO_INT_SHIFT_Sync)
000b0e10  global    IO_INT_SHIFT_Write (.IO_DRIVER_CODE:IO_INT_SHIFT_Write)
0803dbf2  local     IO_SHIFT_InitFlag (.IO_DRIVER_DATA_NORMAL)
0803dbe6  local     IO_SHIFT_rx_buffer (.IO_DRIVER_DATA_NORMAL)
0803dbda  local     IO_SHIFT_tx_buffer (.IO_DRIVER_DATA_NORMAL)


================================================================================

ttc500.lib : drv_IO_CAN.obj

Run/Load            
Value     Binding   Name (Section)
--------  --------  ---------------
000b8d78  local     $C$L1 (.IO_DRIVER_CODE:IO_CAN_MsgStatus)
000b8ed8  local     $C$L10 (.IO_DRIVER_CODE:IO_CAN_MsgStatus)
000b8270  local     $C$L100 (.IO_DRIVER_CODE:IO_CAN_Init)
000b8278  local     $C$L101 (.IO_DRIVER_CODE:IO_CAN_Init)
000b827c  local     $C$L102 (.IO_DRIVER_CODE:IO_CAN_Init)
000b4430  local     $C$L103 (.IO_DRIVER_CODE:IO_CAN_FPGA_InitDefault)
000b4484  local     $C$L104 (.IO_DRIVER_CODE:IO_CAN_FPGA_InitDefault)
000b4488  local     $C$L105 (.IO_DRIVER_CODE:IO_CAN_FPGA_InitDefault)
00000088  local     $C$L106 (.IO_DRIVER_CODE:IO_CAN_FIFOStatus)
00000090  local     $C$L107 (.IO_DRIVER_CODE:IO_CAN_FIFOStatus)
000000cc  local     $C$L108 (.IO_DRIVER_CODE:IO_CAN_FIFOStatus)
000000e0  local     $C$L109 (.IO_DRIVER_CODE:IO_CAN_FIFOStatus)
000b8edc  local     $C$L11 (.IO_DRIVER_CODE:IO_CAN_MsgStatus)
00000100  local     $C$L110 (.IO_DRIVER_CODE:IO_CAN_FIFOStatus)
00000154  local     $C$L111 (.IO_DRIVER_CODE:IO_CAN_FIFOStatus)
00000168  local     $C$L112 (.IO_DRIVER_CODE:IO_CAN_FIFOStatus)
00000180  local     $C$L113 (.IO_DRIVER_CODE:IO_CAN_FIFOStatus)
000001d0  local     $C$L114 (.IO_DRIVER_CODE:IO_CAN_FIFOStatus)
000001d8  local     $C$L115 (.IO_DRIVER_CODE:IO_CAN_FIFOStatus)
000001e0  local     $C$L116 (.IO_DRIVER_CODE:IO_CAN_FIFOStatus)
000001f0  local     $C$L117 (.IO_DRIVER_CODE:IO_CAN_FIFOStatus)
0000021c  local     $C$L118 (.IO_DRIVER_CODE:IO_CAN_FIFOStatus)
00000224  local     $C$L119 (.IO_DRIVER_CODE:IO_CAN_FIFOStatus)
000b8ee4  local     $C$L12 (.IO_DRIVER_CODE:IO_CAN_MsgStatus)
00000228  local     $C$L120 (.IO_DRIVER_CODE:IO_CAN_FIFOStatus)
00000064  local     $C$L121 (.IO_DRIVER_CODE:IO_CAN_FGPA_DisableMailbox)
000000a8  local     $C$L122 (.IO_DRIVER_CODE:IO_CAN_FGPA_DisableMailbox)
00000060  local     $C$L123 (.IO_DRIVER_CODE:IO_CAN_FPGA_ResetRxHandle)
000000d0  local     $C$L124 (.IO_DRIVER_CODE:IO_CAN_FPGA_ResetRxHandle)
00000114  local     $C$L125 (.IO_DRIVER_CODE:IO_CAN_FPGA_ResetRxHandle)
00000060  local     $C$L126 (.IO_DRIVER_CODE:IO_CAN_CPU_ResetHandle)
0000007c  local     $C$L127 (.IO_DRIVER_CODE:IO_CAN_CPU_ResetHandle)
0000008c  local     $C$L128 (.IO_DRIVER_CODE:IO_CAN_CPU_ResetHandle)
000000c0  local     $C$L129 (.IO_DRIVER_CODE:IO_CAN_DeInitHandle)
000b8eec  local     $C$L13 (.IO_DRIVER_CODE:IO_CAN_MsgStatus)
000000d0  local     $C$L130 (.IO_DRIVER_CODE:IO_CAN_DeInitHandle)
000000d8  local     $C$L131 (.IO_DRIVER_CODE:IO_CAN_DeInitHandle)
00000110  local     $C$L132 (.IO_DRIVER_CODE:IO_CAN_DeInitHandle)
00000134  local     $C$L133 (.IO_DRIVER_CODE:IO_CAN_DeInitHandle)
00000158  local     $C$L134 (.IO_DRIVER_CODE:IO_CAN_DeInitHandle)
00000060  local     $C$L135 (.IO_DRIVER_CODE:IO_CAN_FPGA_DeInitChannel)
0000009c  local     $C$L136 (.IO_DRIVER_CODE:IO_CAN_FPGA_DeInitChannel)
000000a8  local     $C$L137 (.IO_DRIVER_CODE:IO_CAN_FPGA_DeInitChannel)
000000a0  local     $C$L138 (.IO_DRIVER_CODE:IO_CAN_CPU_DeInitChannel)
000000cc  local     $C$L139 (.IO_DRIVER_CODE:IO_CAN_CPU_DeInitChannel)
000b8f4c  local     $C$L14 (.IO_DRIVER_CODE:IO_CAN_ConvertIO2FPGADataFrame)
00000104  local     $C$L140 (.IO_DRIVER_CODE:IO_CAN_CPU_DeInitChannel)
0000010c  local     $C$L141 (.IO_DRIVER_CODE:IO_CAN_CPU_DeInitChannel)
00000114  local     $C$L142 (.IO_DRIVER_CODE:IO_CAN_CPU_DeInitChannel)
00000064  local     $C$L143 (.IO_DRIVER_CODE:IO_CAN_DeInit)
0000006c  local     $C$L144 (.IO_DRIVER_CODE:IO_CAN_DeInit)
00000074  local     $C$L145 (.IO_DRIVER_CODE:IO_CAN_DeInit)
00000078  local     $C$L146 (.IO_DRIVER_CODE:IO_CAN_DeInit)
000b82b8  local     $C$L147 (.IO_DRIVER_CODE:IO_CAN_CheckIdParm)
000b82d4  local     $C$L148 (.IO_DRIVER_CODE:IO_CAN_CheckIdParm)
000b82dc  local     $C$L149 (.IO_DRIVER_CODE:IO_CAN_CheckIdParm)
000b8f58  local     $C$L15 (.IO_DRIVER_CODE:IO_CAN_ConvertIO2FPGADataFrame)
000b82e0  local     $C$L150 (.IO_DRIVER_CODE:IO_CAN_CheckIdParm)
000b833c  local     $C$L151 (.IO_DRIVER_CODE:IO_CAN_GetNewMailbox)
000b8370  local     $C$L152 (.IO_DRIVER_CODE:IO_CAN_GetNewMailbox)
000b8394  local     $C$L153 (.IO_DRIVER_CODE:IO_CAN_GetNewMailbox)
000b839c  local     $C$L154 (.IO_DRIVER_CODE:IO_CAN_GetNewMailbox)
000b83a0  local     $C$L155 (.IO_DRIVER_CODE:IO_CAN_GetNewMailbox)
000b83c0  local     $C$L156 (.IO_DRIVER_CODE:IO_CAN_GetNewMailbox)
000b83f0  local     $C$L157 (.IO_DRIVER_CODE:IO_CAN_GetNewMailbox)
000b8400  local     $C$L158 (.IO_DRIVER_CODE:IO_CAN_GetNewMailbox)
000b8430  local     $C$L159 (.IO_DRIVER_CODE:IO_CAN_GetNewHandle)
000b8f60  local     $C$L16 (.IO_DRIVER_CODE:IO_CAN_ConvertIO2FPGADataFrame)
000b84d0  local     $C$L160 (.IO_DRIVER_CODE:IO_CAN_FPGA_CreateRxAccMask)
000b84f0  local     $C$L161 (.IO_DRIVER_CODE:IO_CAN_FPGA_CreateRxAccMask)
000b8540  local     $C$L162 (.IO_DRIVER_CODE:IO_CAN_CalcIdFormat)
000b8688  local     $C$L163 (.IO_DRIVER_CODE:IO_CAN_ConfigMsgInt)
000b8690  local     $C$L164 (.IO_DRIVER_CODE:IO_CAN_ConfigMsgInt)
000b86b8  local     $C$L165 (.IO_DRIVER_CODE:IO_CAN_ConfigMsgInt)
000b86bc  local     $C$L166 (.IO_DRIVER_CODE:IO_CAN_ConfigMsgInt)
000b8730  local     $C$L167 (.IO_DRIVER_CODE:IO_CAN_ConfigMsgInt)
000b8760  local     $C$L168 (.IO_DRIVER_CODE:IO_CAN_ConfigMsgInt)
000b87a0  local     $C$L169 (.IO_DRIVER_CODE:IO_CAN_ConfigMsgInt)
000b8f88  local     $C$L17 (.IO_DRIVER_CODE:IO_CAN_ConvertIO2FPGADataFrame)
000b87b0  local     $C$L170 (.IO_DRIVER_CODE:IO_CAN_ConfigMsgInt)
000b8824  local     $C$L171 (.IO_DRIVER_CODE:IO_CAN_ConfigMsgInt)
000b8890  local     $C$L172 (.IO_DRIVER_CODE:IO_CAN_ConfigMsgInt)
000b88c0  local     $C$L173 (.IO_DRIVER_CODE:IO_CAN_ConfigMsgInt)
000b88d4  local     $C$L174 (.IO_DRIVER_CODE:IO_CAN_ConfigMsgInt)
000b88ec  local     $C$L175 (.IO_DRIVER_CODE:IO_CAN_ConfigMsgInt)
000b890c  local     $C$L176 (.IO_DRIVER_CODE:IO_CAN_ConfigMsgInt)
000b8920  local     $C$L177 (.IO_DRIVER_CODE:IO_CAN_ConfigMsgInt)
000b8924  local     $C$L178 (.IO_DRIVER_CODE:IO_CAN_ConfigMsgInt)
00000124  local     $C$L179 (.IO_DRIVER_CODE:IO_CAN_ConfigFIFOInt)
000b8fe8  local     $C$L18 (.IO_DRIVER_CODE:IO_CAN_ConvertIO2CsmDataFrame)
00000130  local     $C$L180 (.IO_DRIVER_CODE:IO_CAN_ConfigFIFOInt)
000001a0  local     $C$L181 (.IO_DRIVER_CODE:IO_CAN_ConfigFIFOInt)
00000250  local     $C$L182 (.IO_DRIVER_CODE:IO_CAN_ConfigFIFOInt)
000002b8  local     $C$L183 (.IO_DRIVER_CODE:IO_CAN_ConfigFIFOInt)
000002d0  local     $C$L184 (.IO_DRIVER_CODE:IO_CAN_ConfigFIFOInt)
0000034c  local     $C$L185 (.IO_DRIVER_CODE:IO_CAN_ConfigFIFOInt)
000003c0  local     $C$L186 (.IO_DRIVER_CODE:IO_CAN_ConfigFIFOInt)
000003dc  local     $C$L187 (.IO_DRIVER_CODE:IO_CAN_ConfigFIFOInt)
00000400  local     $C$L188 (.IO_DRIVER_CODE:IO_CAN_ConfigFIFOInt)
00000470  local     $C$L189 (.IO_DRIVER_CODE:IO_CAN_ConfigFIFOInt)
000b8fec  local     $C$L19 (.IO_DRIVER_CODE:IO_CAN_ConvertIO2CsmDataFrame)
0000048c  local     $C$L190 (.IO_DRIVER_CODE:IO_CAN_ConfigFIFOInt)
000004a4  local     $C$L191 (.IO_DRIVER_CODE:IO_CAN_ConfigFIFOInt)
000004e4  local     $C$L192 (.IO_DRIVER_CODE:IO_CAN_ConfigFIFOInt)
000004e8  local     $C$L193 (.IO_DRIVER_CODE:IO_CAN_ConfigFIFOInt)
000b3df0  local     $C$L194 (.IO_DRIVER_CODE:IO_CAN_CPU_InitDefault)
000b8d80  local     $C$L2 (.IO_DRIVER_CODE:IO_CAN_MsgStatus)
000b90b0  local     $C$L20 (.IO_DRIVER_CODE:IO_CAN_WriteMsg)
000b90b8  local     $C$L21 (.IO_DRIVER_CODE:IO_CAN_WriteMsg)
000b9110  local     $C$L22 (.IO_DRIVER_CODE:IO_CAN_WriteMsg)
000b9118  local     $C$L23 (.IO_DRIVER_CODE:IO_CAN_WriteMsg)
000b9180  local     $C$L24 (.IO_DRIVER_CODE:IO_CAN_WriteMsg)
000b91e8  local     $C$L25 (.IO_DRIVER_CODE:IO_CAN_WriteMsg)
000b91f0  local     $C$L26 (.IO_DRIVER_CODE:IO_CAN_WriteMsg)
000b91f8  local     $C$L27 (.IO_DRIVER_CODE:IO_CAN_WriteMsg)
000b9200  local     $C$L28 (.IO_DRIVER_CODE:IO_CAN_WriteMsg)
000b9208  local     $C$L29 (.IO_DRIVER_CODE:IO_CAN_WriteMsg)
000b8dcc  local     $C$L3 (.IO_DRIVER_CODE:IO_CAN_MsgStatus)
000b9210  local     $C$L30 (.IO_DRIVER_CODE:IO_CAN_WriteMsg)
000b9214  local     $C$L31 (.IO_DRIVER_CODE:IO_CAN_WriteMsg)
000c8810  local     $C$L32 (.IO_DRIVER_CODE:IO_CAN_WaitLocalPowerDown)
000c8818  local     $C$L33 (.IO_DRIVER_CODE:IO_CAN_WaitLocalPowerDown)
000c87d0  local     $C$L34 (.IO_DRIVER_CODE:IO_CAN_WaitInitNormalMode)
000c87d8  local     $C$L35 (.IO_DRIVER_CODE:IO_CAN_WaitInitNormalMode)
000c8790  local     $C$L36 (.IO_DRIVER_CODE:IO_CAN_WaitCanTransfer)
000c8798  local     $C$L37 (.IO_DRIVER_CODE:IO_CAN_WaitCanTransfer)
000000ec  local     $C$L38 (.IO_DRIVER_CODE:IO_CAN_Status)
00000120  local     $C$L39 (.IO_DRIVER_CODE:IO_CAN_Status)
000b8de0  local     $C$L4 (.IO_DRIVER_CODE:IO_CAN_MsgStatus)
00000130  local     $C$L40 (.IO_DRIVER_CODE:IO_CAN_Status)
00000140  local     $C$L41 (.IO_DRIVER_CODE:IO_CAN_Status)
00000150  local     $C$L42 (.IO_DRIVER_CODE:IO_CAN_Status)
00000160  local     $C$L43 (.IO_DRIVER_CODE:IO_CAN_Status)
00000168  local     $C$L44 (.IO_DRIVER_CODE:IO_CAN_Status)
0000016c  local     $C$L45 (.IO_DRIVER_CODE:IO_CAN_Status)
00000040  local     $C$L46 (.IO_DRIVER_CODE:IO_CAN_ConvertFPGA2IODataFrame)
000000a0  local     $C$L47 (.IO_DRIVER_CODE:IO_CAN_ConvertFPGA2IODataFrame)
000000a0  local     $C$L48 (.IO_DRIVER_CODE:IO_CAN_ReadMsg)
000000a8  local     $C$L49 (.IO_DRIVER_CODE:IO_CAN_ReadMsg)
000b8e3c  local     $C$L5 (.IO_DRIVER_CODE:IO_CAN_MsgStatus)
000000ec  local     $C$L50 (.IO_DRIVER_CODE:IO_CAN_ReadMsg)
00000100  local     $C$L51 (.IO_DRIVER_CODE:IO_CAN_ReadMsg)
0000018c  local     $C$L52 (.IO_DRIVER_CODE:IO_CAN_ReadMsg)
00000250  local     $C$L53 (.IO_DRIVER_CODE:IO_CAN_ReadMsg)
000002b4  local     $C$L54 (.IO_DRIVER_CODE:IO_CAN_ReadMsg)
000002bc  local     $C$L55 (.IO_DRIVER_CODE:IO_CAN_ReadMsg)
000002c4  local     $C$L56 (.IO_DRIVER_CODE:IO_CAN_ReadMsg)
000002cc  local     $C$L57 (.IO_DRIVER_CODE:IO_CAN_ReadMsg)
000002d4  local     $C$L58 (.IO_DRIVER_CODE:IO_CAN_ReadMsg)
000002d8  local     $C$L59 (.IO_DRIVER_CODE:IO_CAN_ReadMsg)
000b8e50  local     $C$L6 (.IO_DRIVER_CODE:IO_CAN_MsgStatus)
000000a0  local     $C$L60 (.IO_DRIVER_CODE:IO_CAN_CPU_ReadFIFO)
000000c4  local     $C$L61 (.IO_DRIVER_CODE:IO_CAN_CPU_ReadFIFO)
000000e0  local     $C$L62 (.IO_DRIVER_CODE:IO_CAN_CPU_ReadFIFO)
00000100  local     $C$L63 (.IO_DRIVER_CODE:IO_CAN_CPU_ReadFIFO)
00000108  local     $C$L64 (.IO_DRIVER_CODE:IO_CAN_CPU_ReadFIFO)
00000110  local     $C$L65 (.IO_DRIVER_CODE:IO_CAN_CPU_ReadFIFO)
00000080  local     $C$L66 (.IO_DRIVER_CODE:IO_CAN_FPGA_ReadFIFO)
00000140  local     $C$L67 (.IO_DRIVER_CODE:IO_CAN_FPGA_ReadFIFO)
00000150  local     $C$L68 (.IO_DRIVER_CODE:IO_CAN_FPGA_ReadFIFO)
0000015c  local     $C$L69 (.IO_DRIVER_CODE:IO_CAN_FPGA_ReadFIFO)
000b8e60  local     $C$L7 (.IO_DRIVER_CODE:IO_CAN_MsgStatus)
00000170  local     $C$L70 (.IO_DRIVER_CODE:IO_CAN_FPGA_ReadFIFO)
00000190  local     $C$L71 (.IO_DRIVER_CODE:IO_CAN_FPGA_ReadFIFO)
000001a4  local     $C$L72 (.IO_DRIVER_CODE:IO_CAN_FPGA_ReadFIFO)
000001c0  local     $C$L73 (.IO_DRIVER_CODE:IO_CAN_FPGA_ReadFIFO)
00000050  local     $C$L74 (.IO_DRIVER_CODE:IO_CAN_ReadFIFO)
00000060  local     $C$L75 (.IO_DRIVER_CODE:IO_CAN_ReadFIFO)
000000d0  local     $C$L76 (.IO_DRIVER_CODE:IO_CAN_ReadFIFO)
000000e4  local     $C$L77 (.IO_DRIVER_CODE:IO_CAN_ReadFIFO)
000000f8  local     $C$L78 (.IO_DRIVER_CODE:IO_CAN_ReadFIFO)
000000fc  local     $C$L79 (.IO_DRIVER_CODE:IO_CAN_ReadFIFO)
000b8ec4  local     $C$L8 (.IO_DRIVER_CODE:IO_CAN_MsgStatus)
00000100  local     $C$L80 (.IO_DRIVER_CODE:IO_CAN_ReadFIFO)
000b7fb8  local     $C$L81 (.IO_DRIVER_CODE:IO_CAN_Init)
000b8004  local     $C$L82 (.IO_DRIVER_CODE:IO_CAN_Init)
000b8010  local     $C$L83 (.IO_DRIVER_CODE:IO_CAN_Init)
000b8040  local     $C$L84 (.IO_DRIVER_CODE:IO_CAN_Init)
000b8048  local     $C$L85 (.IO_DRIVER_CODE:IO_CAN_Init)
000b8050  local     $C$L86 (.IO_DRIVER_CODE:IO_CAN_Init)
000b8058  local     $C$L87 (.IO_DRIVER_CODE:IO_CAN_Init)
000b8060  local     $C$L88 (.IO_DRIVER_CODE:IO_CAN_Init)
000b8068  local     $C$L89 (.IO_DRIVER_CODE:IO_CAN_Init)
000b8ecc  local     $C$L9 (.IO_DRIVER_CODE:IO_CAN_MsgStatus)
000b806c  local     $C$L90 (.IO_DRIVER_CODE:IO_CAN_Init)
000b8080  local     $C$L91 (.IO_DRIVER_CODE:IO_CAN_Init)
000b8088  local     $C$L92 (.IO_DRIVER_CODE:IO_CAN_Init)
000b80a0  local     $C$L93 (.IO_DRIVER_CODE:IO_CAN_Init)
000b8170  local     $C$L94 (.IO_DRIVER_CODE:IO_CAN_Init)
000b81a8  local     $C$L95 (.IO_DRIVER_CODE:IO_CAN_Init)
000b81b4  local     $C$L96 (.IO_DRIVER_CODE:IO_CAN_Init)
000b81c0  local     $C$L97 (.IO_DRIVER_CODE:IO_CAN_Init)
000b8260  local     $C$L98 (.IO_DRIVER_CODE:IO_CAN_Init)
000b8268  local     $C$L99 (.IO_DRIVER_CODE:IO_CAN_Init)
000cb8d4  local     $P$T0$1 (.const)
000cb8d8  local     $P$T1$2 (.const)
000cb8e8  local     $P$T2$3 (.const)
000cb8f8  local     $P$T3$4 (.const)
000cb908  local     $P$T4$5 (.const)
000cb918  local     $P$T5$6 (.const)
000cb924  local     $P$T6$7 (.const)
000cb928  local     $P$T7$8 (.const)
000b8c20  local     $a (.IO_DRIVER_CODE:IO_CAN_FPGA_GetRxComplete)
000b8c70  local     $a (.IO_DRIVER_CODE:IO_CAN_FPGA_GetRxLost)
000b8cc0  local     $a (.IO_DRIVER_CODE:IO_CAN_FPGA_GetTxStat)
000b8d00  local     $a (.IO_DRIVER_CODE:IO_CAN_MsgStatus)
000b8ef0  local     $a (.IO_DRIVER_CODE:IO_CAN_ConvertIO2FPGADataFrame)
000b8fc0  local     $a (.IO_DRIVER_CODE:IO_CAN_ConvertIO2CsmDataFrame)
000b9020  local     $a (.IO_DRIVER_CODE:IO_CAN_WriteMsg)
000c87f0  local     $a (.IO_DRIVER_CODE:IO_CAN_WaitLocalPowerDown)
000c87b0  local     $a (.IO_DRIVER_CODE:IO_CAN_WaitInitNormalMode)
000c8770  local     $a (.IO_DRIVER_CODE:IO_CAN_WaitCanTransfer)
00000000  local     $a (.IO_DRIVER_CODE:IO_CAN_FPGA_GetStatus)
00000000  local     $a (.IO_DRIVER_CODE:IO_CAN_FPGA_GetErrorCounter)
00000000  local     $a (.IO_DRIVER_CODE:IO_CAN_Status)
00000000  local     $a (.IO_DRIVER_CODE:IO_CAN_ConvertFPGA2IODataFrame)
00000000  local     $a (.IO_DRIVER_CODE:IO_CAN_ConvertCsm2IODataFrame)
00000000  local     $a (.IO_DRIVER_CODE:IO_CAN_ReadMsg)
00000000  local     $a (.IO_DRIVER_CODE:IO_CAN_CPU_ReadFIFO)
00000000  local     $a (.IO_DRIVER_CODE:IO_CAN_FPGA_ReadFIFO)
00000000  local     $a (.IO_DRIVER_CODE:IO_CAN_ReadFIFO)
000b7e60  local     $a (.IO_DRIVER_CODE:IO_CAN_FPGA_GetChConfig)
000b7ea0  local     $a (.IO_DRIVER_CODE:IO_CAN_Init)
000b43e0  local     $a (.IO_DRIVER_CODE:IO_CAN_FPGA_InitDefault)
00000000  local     $a (.IO_DRIVER_CODE:IO_CAN_FIFOStatus)
00000000  local     $a (.IO_DRIVER_CODE:IO_CAN_FGPA_DisableMailbox)
00000000  local     $a (.IO_DRIVER_CODE:IO_CAN_FPGA_ResetRxHandle)
00000000  local     $a (.IO_DRIVER_CODE:IO_CAN_FPGA_ResetTxHandle)
00000000  local     $a (.IO_DRIVER_CODE:IO_CAN_CPU_ResetHandle)
00000000  local     $a (.IO_DRIVER_CODE:IO_CAN_DeInitHandle)
00000000  local     $a (.IO_DRIVER_CODE:IO_CAN_FPGA_DeInitChannel)
00000000  local     $a (.IO_DRIVER_CODE:IO_CAN_CPU_DeInitChannel)
00000000  local     $a (.IO_DRIVER_CODE:IO_CAN_DeInit)
000b8290  local     $a (.IO_DRIVER_CODE:IO_CAN_CheckIdParm)
000b82f0  local     $a (.IO_DRIVER_CODE:IO_CAN_GetNewMailbox)
000b8410  local     $a (.IO_DRIVER_CODE:IO_CAN_GetNewHandle)
000b8460  local     $a (.IO_DRIVER_CODE:IO_CAN_FPGA_CreateRxAccMask)
000b8520  local     $a (.IO_DRIVER_CODE:IO_CAN_CalcIdFormat)
000b8550  local     $a (.IO_DRIVER_CODE:IO_CAN_ConfigMsgInt)
000b8930  local     $a (.IO_DRIVER_CODE:IO_CAN_ConfigMsg)
00000000  local     $a (.IO_DRIVER_CODE:IO_CAN_ConfigFIFOInt)
00000000  local     $a (.IO_DRIVER_CODE:IO_CAN_ConfigFIFO)
000b3dd0  local     $a (.IO_DRIVER_CODE:IO_CAN_CPU_InitDefault)
08038390  local     $d (.IO_DRIVER_DATA_NORMAL:init)
08038393  local     $d (.IO_DRIVER_DATA_NORMAL:init)
0803839b  local     $d (.IO_DRIVER_DATA_NORMAL:init)
0803845b  local     $d (.IO_DRIVER_DATA_NORMAL:init)
080384bb  local     $d (.IO_DRIVER_DATA_NORMAL:init)
080384db  local     $d (.IO_DRIVER_DATA_NORMAL:init)
08038b1c  local     $d (.IO_DRIVER_DATA_NORMAL:init)
08038f1c  local     $d (.IO_DRIVER_DATA_NORMAL:init)
000cb8d4  local     $d (.const)
000cb8d8  local     $d (.const)
000cb8e8  local     $d (.const)
000cb8f8  local     $d (.const)
000cb908  local     $d (.const)
000cb918  local     $d (.const)
000cb924  local     $d (.const)
000cb928  local     $d (.const)
00000000  local     .IO_DRIVER_CODE:IO_CAN_CPU_DeInitChannel (.IO_DRIVER_CODE:IO_CAN_CPU_DeInitChannel)
000b3dd0  local     .IO_DRIVER_CODE:IO_CAN_CPU_InitDefault (.IO_DRIVER_CODE:IO_CAN_CPU_InitDefault)
00000000  local     .IO_DRIVER_CODE:IO_CAN_CPU_ReadFIFO (.IO_DRIVER_CODE:IO_CAN_CPU_ReadFIFO)
00000000  local     .IO_DRIVER_CODE:IO_CAN_CPU_ResetHandle (.IO_DRIVER_CODE:IO_CAN_CPU_ResetHandle)
000b8520  local     .IO_DRIVER_CODE:IO_CAN_CalcIdFormat (.IO_DRIVER_CODE:IO_CAN_CalcIdFormat)
000b8290  local     .IO_DRIVER_CODE:IO_CAN_CheckIdParm (.IO_DRIVER_CODE:IO_CAN_CheckIdParm)
00000000  local     .IO_DRIVER_CODE:IO_CAN_ConfigFIFO (.IO_DRIVER_CODE:IO_CAN_ConfigFIFO)
00000000  local     .IO_DRIVER_CODE:IO_CAN_ConfigFIFOInt (.IO_DRIVER_CODE:IO_CAN_ConfigFIFOInt)
000b8930  local     .IO_DRIVER_CODE:IO_CAN_ConfigMsg (.IO_DRIVER_CODE:IO_CAN_ConfigMsg)
000b8550  local     .IO_DRIVER_CODE:IO_CAN_ConfigMsgInt (.IO_DRIVER_CODE:IO_CAN_ConfigMsgInt)
00000000  local     .IO_DRIVER_CODE:IO_CAN_ConvertCsm2IODataFrame (.IO_DRIVER_CODE:IO_CAN_ConvertCsm2IODataFrame)
00000000  local     .IO_DRIVER_CODE:IO_CAN_ConvertFPGA2IODataFrame (.IO_DRIVER_CODE:IO_CAN_ConvertFPGA2IODataFrame)
000b8fc0  local     .IO_DRIVER_CODE:IO_CAN_ConvertIO2CsmDataFrame (.IO_DRIVER_CODE:IO_CAN_ConvertIO2CsmDataFrame)
000b8ef0  local     .IO_DRIVER_CODE:IO_CAN_ConvertIO2FPGADataFrame (.IO_DRIVER_CODE:IO_CAN_ConvertIO2FPGADataFrame)
00000000  local     .IO_DRIVER_CODE:IO_CAN_DeInit (.IO_DRIVER_CODE:IO_CAN_DeInit)
00000000  local     .IO_DRIVER_CODE:IO_CAN_DeInitHandle (.IO_DRIVER_CODE:IO_CAN_DeInitHandle)
00000000  local     .IO_DRIVER_CODE:IO_CAN_FGPA_DisableMailbox (.IO_DRIVER_CODE:IO_CAN_FGPA_DisableMailbox)
00000000  local     .IO_DRIVER_CODE:IO_CAN_FIFOStatus (.IO_DRIVER_CODE:IO_CAN_FIFOStatus)
000b8460  local     .IO_DRIVER_CODE:IO_CAN_FPGA_CreateRxAccMask (.IO_DRIVER_CODE:IO_CAN_FPGA_CreateRxAccMask)
00000000  local     .IO_DRIVER_CODE:IO_CAN_FPGA_DeInitChannel (.IO_DRIVER_CODE:IO_CAN_FPGA_DeInitChannel)
000b7e60  local     .IO_DRIVER_CODE:IO_CAN_FPGA_GetChConfig (.IO_DRIVER_CODE:IO_CAN_FPGA_GetChConfig)
00000000  local     .IO_DRIVER_CODE:IO_CAN_FPGA_GetErrorCounter (.IO_DRIVER_CODE:IO_CAN_FPGA_GetErrorCounter)
000b8c20  local     .IO_DRIVER_CODE:IO_CAN_FPGA_GetRxComplete (.IO_DRIVER_CODE:IO_CAN_FPGA_GetRxComplete)
000b8c70  local     .IO_DRIVER_CODE:IO_CAN_FPGA_GetRxLost (.IO_DRIVER_CODE:IO_CAN_FPGA_GetRxLost)
00000000  local     .IO_DRIVER_CODE:IO_CAN_FPGA_GetStatus (.IO_DRIVER_CODE:IO_CAN_FPGA_GetStatus)
000b8cc0  local     .IO_DRIVER_CODE:IO_CAN_FPGA_GetTxStat (.IO_DRIVER_CODE:IO_CAN_FPGA_GetTxStat)
000b43e0  local     .IO_DRIVER_CODE:IO_CAN_FPGA_InitDefault (.IO_DRIVER_CODE:IO_CAN_FPGA_InitDefault)
00000000  local     .IO_DRIVER_CODE:IO_CAN_FPGA_ReadFIFO (.IO_DRIVER_CODE:IO_CAN_FPGA_ReadFIFO)
00000000  local     .IO_DRIVER_CODE:IO_CAN_FPGA_ResetRxHandle (.IO_DRIVER_CODE:IO_CAN_FPGA_ResetRxHandle)
00000000  local     .IO_DRIVER_CODE:IO_CAN_FPGA_ResetTxHandle (.IO_DRIVER_CODE:IO_CAN_FPGA_ResetTxHandle)
000b8410  local     .IO_DRIVER_CODE:IO_CAN_GetNewHandle (.IO_DRIVER_CODE:IO_CAN_GetNewHandle)
000b82f0  local     .IO_DRIVER_CODE:IO_CAN_GetNewMailbox (.IO_DRIVER_CODE:IO_CAN_GetNewMailbox)
000b7ea0  local     .IO_DRIVER_CODE:IO_CAN_Init (.IO_DRIVER_CODE:IO_CAN_Init)
000b8d00  local     .IO_DRIVER_CODE:IO_CAN_MsgStatus (.IO_DRIVER_CODE:IO_CAN_MsgStatus)
00000000  local     .IO_DRIVER_CODE:IO_CAN_ReadFIFO (.IO_DRIVER_CODE:IO_CAN_ReadFIFO)
00000000  local     .IO_DRIVER_CODE:IO_CAN_ReadMsg (.IO_DRIVER_CODE:IO_CAN_ReadMsg)
00000000  local     .IO_DRIVER_CODE:IO_CAN_Status (.IO_DRIVER_CODE:IO_CAN_Status)
000c8770  local     .IO_DRIVER_CODE:IO_CAN_WaitCanTransfer (.IO_DRIVER_CODE:IO_CAN_WaitCanTransfer)
000c87b0  local     .IO_DRIVER_CODE:IO_CAN_WaitInitNormalMode (.IO_DRIVER_CODE:IO_CAN_WaitInitNormalMode)
000c87f0  local     .IO_DRIVER_CODE:IO_CAN_WaitLocalPowerDown (.IO_DRIVER_CODE:IO_CAN_WaitLocalPowerDown)
000b9020  local     .IO_DRIVER_CODE:IO_CAN_WriteMsg (.IO_DRIVER_CODE:IO_CAN_WriteMsg)
08038390  local     .IO_DRIVER_DATA_NORMAL:init (.IO_DRIVER_DATA_NORMAL:init)
00000000  local     .IO_DRIVER_DATA_NORMAL:uninit (.IO_DRIVER_DATA_NORMAL:uninit)
000cb8d4  local     .const (.const)
00000000  local     .text (.text)
00000000  local     IO_CAN_CPU_DeInitChannel (.IO_DRIVER_CODE:IO_CAN_CPU_DeInitChannel)
000b3dd0  global    IO_CAN_CPU_InitDefault (.IO_DRIVER_CODE:IO_CAN_CPU_InitDefault)
00000000  local     IO_CAN_CPU_ReadFIFO (.IO_DRIVER_CODE:IO_CAN_CPU_ReadFIFO)
00000000  local     IO_CAN_CPU_ResetHandle (.IO_DRIVER_CODE:IO_CAN_CPU_ResetHandle)
000b8520  local     IO_CAN_CalcIdFormat (.IO_DRIVER_CODE:IO_CAN_CalcIdFormat)
000b8290  local     IO_CAN_CheckIdParm (.IO_DRIVER_CODE:IO_CAN_CheckIdParm)
00000000  global    IO_CAN_ConfigFIFO (.IO_DRIVER_CODE:IO_CAN_ConfigFIFO)
00000000  global    IO_CAN_ConfigFIFOInt (.IO_DRIVER_CODE:IO_CAN_ConfigFIFOInt)
000b8930  global    IO_CAN_ConfigMsg (.IO_DRIVER_CODE:IO_CAN_ConfigMsg)
000b8550  global    IO_CAN_ConfigMsgInt (.IO_DRIVER_CODE:IO_CAN_ConfigMsgInt)
00000000  local     IO_CAN_ConvertCsm2IODataFrame (.IO_DRIVER_CODE:IO_CAN_ConvertCsm2IODataFrame)
00000000  local     IO_CAN_ConvertFPGA2IODataFrame (.IO_DRIVER_CODE:IO_CAN_ConvertFPGA2IODataFrame)
000b8fc0  local     IO_CAN_ConvertIO2CsmDataFrame (.IO_DRIVER_CODE:IO_CAN_ConvertIO2CsmDataFrame)
000b8ef0  local     IO_CAN_ConvertIO2FPGADataFrame (.IO_DRIVER_CODE:IO_CAN_ConvertIO2FPGADataFrame)
00000000  global    IO_CAN_DeInit (.IO_DRIVER_CODE:IO_CAN_DeInit)
00000000  global    IO_CAN_DeInitHandle (.IO_DRIVER_CODE:IO_CAN_DeInitHandle)
00000000  local     IO_CAN_FGPA_DisableMailbox (.IO_DRIVER_CODE:IO_CAN_FGPA_DisableMailbox)
00000000  global    IO_CAN_FIFOStatus (.IO_DRIVER_CODE:IO_CAN_FIFOStatus)
000b8460  local     IO_CAN_FPGA_CreateRxAccMask (.IO_DRIVER_CODE:IO_CAN_FPGA_CreateRxAccMask)
00000000  local     IO_CAN_FPGA_DeInitChannel (.IO_DRIVER_CODE:IO_CAN_FPGA_DeInitChannel)
000b7e60  local     IO_CAN_FPGA_GetChConfig (.IO_DRIVER_CODE:IO_CAN_FPGA_GetChConfig)
00000000  local     IO_CAN_FPGA_GetErrorCounter (.IO_DRIVER_CODE:IO_CAN_FPGA_GetErrorCounter)
000b8c20  local     IO_CAN_FPGA_GetRxComplete (.IO_DRIVER_CODE:IO_CAN_FPGA_GetRxComplete)
000b8c70  local     IO_CAN_FPGA_GetRxLost (.IO_DRIVER_CODE:IO_CAN_FPGA_GetRxLost)
00000000  local     IO_CAN_FPGA_GetStatus (.IO_DRIVER_CODE:IO_CAN_FPGA_GetStatus)
000b8cc0  local     IO_CAN_FPGA_GetTxStat (.IO_DRIVER_CODE:IO_CAN_FPGA_GetTxStat)
000b43e0  global    IO_CAN_FPGA_InitDefault (.IO_DRIVER_CODE:IO_CAN_FPGA_InitDefault)
00000000  local     IO_CAN_FPGA_ReadFIFO (.IO_DRIVER_CODE:IO_CAN_FPGA_ReadFIFO)
00000000  local     IO_CAN_FPGA_ResetRxHandle (.IO_DRIVER_CODE:IO_CAN_FPGA_ResetRxHandle)
00000000  local     IO_CAN_FPGA_ResetTxHandle (.IO_DRIVER_CODE:IO_CAN_FPGA_ResetTxHandle)
000b8410  local     IO_CAN_GetNewHandle (.IO_DRIVER_CODE:IO_CAN_GetNewHandle)
000b82f0  local     IO_CAN_GetNewMailbox (.IO_DRIVER_CODE:IO_CAN_GetNewMailbox)
000b7ea0  global    IO_CAN_Init (.IO_DRIVER_CODE:IO_CAN_Init)
000b8d00  global    IO_CAN_MsgStatus (.IO_DRIVER_CODE:IO_CAN_MsgStatus)
00000000  global    IO_CAN_ReadFIFO (.IO_DRIVER_CODE:IO_CAN_ReadFIFO)
00000000  global    IO_CAN_ReadMsg (.IO_DRIVER_CODE:IO_CAN_ReadMsg)
00000000  global    IO_CAN_Status (.IO_DRIVER_CODE:IO_CAN_Status)
000c8770  global    IO_CAN_WaitCanTransfer (.IO_DRIVER_CODE:IO_CAN_WaitCanTransfer)
000c87b0  global    IO_CAN_WaitInitNormalMode (.IO_DRIVER_CODE:IO_CAN_WaitInitNormalMode)
000c87f0  global    IO_CAN_WaitLocalPowerDown (.IO_DRIVER_CODE:IO_CAN_WaitLocalPowerDown)
000b9020  global    IO_CAN_WriteMsg (.IO_DRIVER_CODE:IO_CAN_WriteMsg)
08038b1c  local     io_can_fifo_buf (.IO_DRIVER_DATA_NORMAL:init)
08038f1c  local     io_can_fpga_rx_buffer (.IO_DRIVER_DATA_NORMAL:init)
00000000  local     io_can_fpga_rx_mailbox_buffer (.IO_DRIVER_DATA_NORMAL:uninit)
080384db  local     io_can_handle (.IO_DRIVER_DATA_NORMAL:init)
0803839b  local     io_can_mailbox_stat_cpu (.IO_DRIVER_DATA_NORMAL:init)
0803845b  local     io_can_mailbox_stat_fpga_rx (.IO_DRIVER_DATA_NORMAL:init)
080384bb  local     io_can_mailbox_stat_fpga_tx (.IO_DRIVER_DATA_NORMAL:init)
08038390  local     io_can_mailbox_used_cpu (.IO_DRIVER_DATA_NORMAL:init)
08038393  local     io_can_mailbox_used_fpga (.IO_DRIVER_DATA_NORMAL:init)


================================================================================

ttc500.lib : drv_IO_PWD.obj

Run/Load            
Value     Binding   Name (Section)
--------  --------  ---------------
000000b4  local     $C$L1 (.IO_DRIVER_CODE:IO_PWD_UniversalSet)
000000cc  local     $C$L10 (.IO_DRIVER_CODE:IO_PWD_IncInit_Internal)
000c5050  local     $C$L100 (.IO_DRIVER_CODE:IO_PWD_ProtectionTask)
000c5060  local     $C$L101 (.IO_DRIVER_CODE:IO_PWD_ProtectionTask)
000c5070  local     $C$L102 (.IO_DRIVER_CODE:IO_PWD_ProtectionTask)
000c508c  local     $C$L103 (.IO_DRIVER_CODE:IO_PWD_ProtectionTask)
000c50a0  local     $C$L104 (.IO_DRIVER_CODE:IO_PWD_ProtectionTask)
000c50a4  local     $C$L105 (.IO_DRIVER_CODE:IO_PWD_ProtectionTask)
00000090  local     $C$L106 (.IO_DRIVER_CODE:IO_PWD_IncSet)
000000b0  local     $C$L107 (.IO_DRIVER_CODE:IO_PWD_IncSet)
000000bc  local     $C$L108 (.IO_DRIVER_CODE:IO_PWD_IncSet)
000000e4  local     $C$L109 (.IO_DRIVER_CODE:IO_PWD_IncInit)
00000180  local     $C$L11 (.IO_DRIVER_CODE:IO_PWD_IncInit_Internal)
00000090  local     $C$L110 (.IO_DRIVER_CODE:IO_PWD_IncGet)
000000c0  local     $C$L111 (.IO_DRIVER_CODE:IO_PWD_IncGet)
000000d4  local     $C$L112 (.IO_DRIVER_CODE:IO_PWD_IncGet)
00000030  local     $C$L113 (.IO_DRIVER_CODE:IO_PWD_IncDeInit)
0000009c  local     $C$L114 (.IO_DRIVER_CODE:IO_PWD_GetVoltage)
000000d0  local     $C$L115 (.IO_DRIVER_CODE:IO_PWD_GetVoltage)
000000e0  local     $C$L116 (.IO_DRIVER_CODE:IO_PWD_GetVoltage)
0000013c  local     $C$L117 (.IO_DRIVER_CODE:IO_PWD_GetVoltage)
00000144  local     $C$L118 (.IO_DRIVER_CODE:IO_PWD_GetVoltage)
0000014c  local     $C$L119 (.IO_DRIVER_CODE:IO_PWD_GetVoltage)
000001b8  local     $C$L12 (.IO_DRIVER_CODE:IO_PWD_IncInit_Internal)
00000150  local     $C$L120 (.IO_DRIVER_CODE:IO_PWD_GetVoltage)
00000154  local     $C$L121 (.IO_DRIVER_CODE:IO_PWD_GetVoltage)
000000a4  local     $C$L122 (.IO_DRIVER_CODE:IO_PWD_GetCurrent)
000000f0  local     $C$L123 (.IO_DRIVER_CODE:IO_PWD_GetCurrent)
00000100  local     $C$L124 (.IO_DRIVER_CODE:IO_PWD_GetCurrent)
00000120  local     $C$L125 (.IO_DRIVER_CODE:IO_PWD_GetCurrent)
0000013c  local     $C$L126 (.IO_DRIVER_CODE:IO_PWD_GetCurrent)
00000194  local     $C$L127 (.IO_DRIVER_CODE:IO_PWD_GetCurrent)
000001a0  local     $C$L128 (.IO_DRIVER_CODE:IO_PWD_GetCurrent)
000001c8  local     $C$L129 (.IO_DRIVER_CODE:IO_PWD_GetCurrent)
000001bc  local     $C$L13 (.IO_DRIVER_CODE:IO_PWD_IncInit_Internal)
000001cc  local     $C$L130 (.IO_DRIVER_CODE:IO_PWD_GetCurrent)
000001d0  local     $C$L131 (.IO_DRIVER_CODE:IO_PWD_GetCurrent)
000001d4  local     $C$L132 (.IO_DRIVER_CODE:IO_PWD_GetCurrent)
00000074  local     $C$L133 (.IO_DRIVER_CODE:IO_PWD_CountSet)
00000094  local     $C$L134 (.IO_DRIVER_CODE:IO_PWD_CountSet)
000000a0  local     $C$L135 (.IO_DRIVER_CODE:IO_PWD_CountSet)
000000b8  local     $C$L136 (.IO_DRIVER_CODE:IO_PWD_CountInit)
000000bc  local     $C$L137 (.IO_DRIVER_CODE:IO_PWD_CountInit)
000000c0  local     $C$L138 (.IO_DRIVER_CODE:IO_PWD_CountInit)
00000080  local     $C$L139 (.IO_DRIVER_CODE:IO_PWD_CountGet)
000001c0  local     $C$L14 (.IO_DRIVER_CODE:IO_PWD_IncInit_Internal)
000000a4  local     $C$L140 (.IO_DRIVER_CODE:IO_PWD_CountGet)
000000b4  local     $C$L141 (.IO_DRIVER_CODE:IO_PWD_CountGet)
0000002c  local     $C$L142 (.IO_DRIVER_CODE:IO_PWD_CountDeInit)
000000b0  local     $C$L143 (.IO_DRIVER_CODE:IO_PWD_ComplexInit)
000000ec  local     $C$L144 (.IO_DRIVER_CODE:IO_PWD_ComplexInit)
000000f0  local     $C$L145 (.IO_DRIVER_CODE:IO_PWD_ComplexInit)
000000f4  local     $C$L146 (.IO_DRIVER_CODE:IO_PWD_ComplexInit)
000000d0  local     $C$L147 (.IO_DRIVER_CODE:IO_PWD_ComplexGet)
00000130  local     $C$L148 (.IO_DRIVER_CODE:IO_PWD_ComplexGet)
00000138  local     $C$L149 (.IO_DRIVER_CODE:IO_PWD_ComplexGet)
000001cc  local     $C$L15 (.IO_DRIVER_CODE:IO_PWD_IncInit_Internal)
00000140  local     $C$L150 (.IO_DRIVER_CODE:IO_PWD_ComplexGet)
00000148  local     $C$L151 (.IO_DRIVER_CODE:IO_PWD_ComplexGet)
00000150  local     $C$L152 (.IO_DRIVER_CODE:IO_PWD_ComplexGet)
00000170  local     $C$L153 (.IO_DRIVER_CODE:IO_PWD_ComplexGet)
000001b0  local     $C$L154 (.IO_DRIVER_CODE:IO_PWD_ComplexGet)
000001e0  local     $C$L155 (.IO_DRIVER_CODE:IO_PWD_ComplexGet)
000001e4  local     $C$L156 (.IO_DRIVER_CODE:IO_PWD_ComplexGet)
000001e8  local     $C$L157 (.IO_DRIVER_CODE:IO_PWD_ComplexGet)
0000002c  local     $C$L158 (.IO_DRIVER_CODE:IO_PWD_ComplexDeInit)
0000009c  local     $C$L16 (.IO_DRIVER_CODE:IO_PWD_CountInit_Internal)
000000b4  local     $C$L17 (.IO_DRIVER_CODE:IO_PWD_CountInit_Internal)
000000d4  local     $C$L18 (.IO_DRIVER_CODE:IO_PWD_CountInit_Internal)
000000dc  local     $C$L19 (.IO_DRIVER_CODE:IO_PWD_CountInit_Internal)
000000fc  local     $C$L2 (.IO_DRIVER_CODE:IO_PWD_UniversalSet)
00000150  local     $C$L20 (.IO_DRIVER_CODE:IO_PWD_CountInit_Internal)
00000184  local     $C$L21 (.IO_DRIVER_CODE:IO_PWD_CountInit_Internal)
00000188  local     $C$L22 (.IO_DRIVER_CODE:IO_PWD_CountInit_Internal)
00000190  local     $C$L23 (.IO_DRIVER_CODE:IO_PWD_CountInit_Internal)
00000090  local     $C$L24 (.IO_DRIVER_CODE:IO_PWD_CheckCplxSafetyConf)
00000098  local     $C$L25 (.IO_DRIVER_CODE:IO_PWD_CheckCplxSafetyConf)
0000009c  local     $C$L26 (.IO_DRIVER_CODE:IO_PWD_CheckCplxSafetyConf)
000000b0  local     $C$L27 (.IO_DRIVER_CODE:IO_PWD_ComplexInit_Internal)
00000100  local     $C$L28 (.IO_DRIVER_CODE:IO_PWD_ComplexInit_Internal)
00000118  local     $C$L29 (.IO_DRIVER_CODE:IO_PWD_ComplexInit_Internal)
0000010c  local     $C$L3 (.IO_DRIVER_CODE:IO_PWD_UniversalSet)
000001a0  local     $C$L30 (.IO_DRIVER_CODE:IO_PWD_ComplexInit_Internal)
000001c0  local     $C$L31 (.IO_DRIVER_CODE:IO_PWD_ComplexInit_Internal)
000001d0  local     $C$L32 (.IO_DRIVER_CODE:IO_PWD_ComplexInit_Internal)
000001f0  local     $C$L33 (.IO_DRIVER_CODE:IO_PWD_ComplexInit_Internal)
0000020c  local     $C$L34 (.IO_DRIVER_CODE:IO_PWD_ComplexInit_Internal)
00000210  local     $C$L35 (.IO_DRIVER_CODE:IO_PWD_ComplexInit_Internal)
00000214  local     $C$L36 (.IO_DRIVER_CODE:IO_PWD_ComplexInit_Internal)
000000d4  local     $C$L37 (.IO_DRIVER_CODE:IO_PWD_UniversalInit)
00000110  local     $C$L38 (.IO_DRIVER_CODE:IO_PWD_UniversalInit)
00000120  local     $C$L39 (.IO_DRIVER_CODE:IO_PWD_UniversalInit)
00000068  local     $C$L4 (.IO_DRIVER_CODE:IO_PWD_CheckIncSafetyConf)
000001d8  local     $C$L40 (.IO_DRIVER_CODE:IO_PWD_UniversalInit)
000001e0  local     $C$L41 (.IO_DRIVER_CODE:IO_PWD_UniversalInit)
00000204  local     $C$L42 (.IO_DRIVER_CODE:IO_PWD_UniversalInit)
00000268  local     $C$L43 (.IO_DRIVER_CODE:IO_PWD_UniversalInit)
000002cc  local     $C$L44 (.IO_DRIVER_CODE:IO_PWD_UniversalInit)
00000324  local     $C$L45 (.IO_DRIVER_CODE:IO_PWD_UniversalInit)
00000328  local     $C$L46 (.IO_DRIVER_CODE:IO_PWD_UniversalInit)
0000032c  local     $C$L47 (.IO_DRIVER_CODE:IO_PWD_UniversalInit)
0000010c  local     $C$L48 (.IO_DRIVER_CODE:IO_PWD_UniversalGet)
00000114  local     $C$L49 (.IO_DRIVER_CODE:IO_PWD_UniversalGet)
00000070  local     $C$L5 (.IO_DRIVER_CODE:IO_PWD_CheckIncSafetyConf)
0000011c  local     $C$L50 (.IO_DRIVER_CODE:IO_PWD_UniversalGet)
00000124  local     $C$L51 (.IO_DRIVER_CODE:IO_PWD_UniversalGet)
00000130  local     $C$L52 (.IO_DRIVER_CODE:IO_PWD_UniversalGet)
00000150  local     $C$L53 (.IO_DRIVER_CODE:IO_PWD_UniversalGet)
00000190  local     $C$L54 (.IO_DRIVER_CODE:IO_PWD_UniversalGet)
00000198  local     $C$L55 (.IO_DRIVER_CODE:IO_PWD_UniversalGet)
000001d8  local     $C$L56 (.IO_DRIVER_CODE:IO_PWD_UniversalGet)
000001e0  local     $C$L57 (.IO_DRIVER_CODE:IO_PWD_UniversalGet)
00000224  local     $C$L58 (.IO_DRIVER_CODE:IO_PWD_UniversalGet)
00000240  local     $C$L59 (.IO_DRIVER_CODE:IO_PWD_UniversalGet)
00000074  local     $C$L6 (.IO_DRIVER_CODE:IO_PWD_CheckIncSafetyConf)
00000254  local     $C$L60 (.IO_DRIVER_CODE:IO_PWD_UniversalGet)
00000258  local     $C$L61 (.IO_DRIVER_CODE:IO_PWD_UniversalGet)
00000264  local     $C$L62 (.IO_DRIVER_CODE:IO_PWD_UniversalGet)
00000060  local     $C$L63 (.IO_DRIVER_CODE:IO_PWD_SafetyDeInit)
0000007c  local     $C$L64 (.IO_DRIVER_CODE:IO_PWD_SafetyDeInit)
00000098  local     $C$L65 (.IO_DRIVER_CODE:IO_PWD_SafetyDeInit)
000000b4  local     $C$L66 (.IO_DRIVER_CODE:IO_PWD_SafetyDeInit)
000000d0  local     $C$L67 (.IO_DRIVER_CODE:IO_PWD_SafetyDeInit)
000000ec  local     $C$L68 (.IO_DRIVER_CODE:IO_PWD_SafetyDeInit)
00000130  local     $C$L69 (.IO_DRIVER_CODE:IO_PWD_SafetyDeInit)
0000008c  local     $C$L7 (.IO_DRIVER_CODE:IO_PWD_IncInit_Internal)
0000018c  local     $C$L70 (.IO_DRIVER_CODE:IO_PWD_SafetyDeInit)
000000a4  local     $C$L71 (.IO_DRIVER_CODE:IO_PWD_IncDeInit_Internal)
000000cc  local     $C$L72 (.IO_DRIVER_CODE:IO_PWD_IncDeInit_Internal)
000000dc  local     $C$L73 (.IO_DRIVER_CODE:IO_PWD_IncDeInit_Internal)
0000006c  local     $C$L74 (.IO_DRIVER_CODE:IO_PWD_CountDeInit_Internal)
0000008c  local     $C$L75 (.IO_DRIVER_CODE:IO_PWD_CountDeInit_Internal)
0000009c  local     $C$L76 (.IO_DRIVER_CODE:IO_PWD_CountDeInit_Internal)
00000060  local     $C$L77 (.IO_DRIVER_CODE:IO_PWD_ComplexDeInit_Internal)
00000088  local     $C$L78 (.IO_DRIVER_CODE:IO_PWD_ComplexDeInit_Internal)
000000c4  local     $C$L79 (.IO_DRIVER_CODE:IO_PWD_ComplexDeInit_Internal)
000000a4  local     $C$L8 (.IO_DRIVER_CODE:IO_PWD_IncInit_Internal)
000000e0  local     $C$L80 (.IO_DRIVER_CODE:IO_PWD_ComplexDeInit_Internal)
00000080  local     $C$L81 (.IO_DRIVER_CODE:IO_PWD_UniversalDeInit)
000000b4  local     $C$L82 (.IO_DRIVER_CODE:IO_PWD_UniversalDeInit)
000000d4  local     $C$L83 (.IO_DRIVER_CODE:IO_PWD_UniversalDeInit)
000000d8  local     $C$L84 (.IO_DRIVER_CODE:IO_PWD_UniversalDeInit)
00000108  local     $C$L85 (.IO_DRIVER_CODE:IO_PWD_UniversalDeInit)
000b6214  local     $C$L86 (.IO_DRIVER_CODE:IO_PWD_StatusInit)
0000005c  local     $C$L87 (.IO_DRIVER_CODE:IO_PWD_ResetProtection)
00000060  local     $C$L88 (.IO_DRIVER_CODE:IO_PWD_ResetProtection)
000000b4  local     $C$L89 (.IO_DRIVER_CODE:IO_PWD_ResetProtection)
000000c4  local     $C$L9 (.IO_DRIVER_CODE:IO_PWD_IncInit_Internal)
000000bc  local     $C$L90 (.IO_DRIVER_CODE:IO_PWD_ResetProtection)
000000c4  local     $C$L91 (.IO_DRIVER_CODE:IO_PWD_ResetProtection)
000000cc  local     $C$L92 (.IO_DRIVER_CODE:IO_PWD_ResetProtection)
000000d0  local     $C$L93 (.IO_DRIVER_CODE:IO_PWD_ResetProtection)
000000e4  local     $C$L94 (.IO_DRIVER_CODE:IO_PWD_ResetProtection)
000c4eb0  local     $C$L95 (.IO_DRIVER_CODE:IO_PWD_ProtectionTask)
000c4edc  local     $C$L96 (.IO_DRIVER_CODE:IO_PWD_ProtectionTask)
000c4ee4  local     $C$L97 (.IO_DRIVER_CODE:IO_PWD_ProtectionTask)
000c4f54  local     $C$L98 (.IO_DRIVER_CODE:IO_PWD_ProtectionTask)
000c4fc0  local     $C$L99 (.IO_DRIVER_CODE:IO_PWD_ProtectionTask)
00000000  local     $a (.IO_DRIVER_CODE:IO_PWD_SafetyStepInc)
00000000  local     $a (.IO_DRIVER_CODE:IO_PWD_UniversalSet)
00000000  local     $a (.IO_DRIVER_CODE:IO_PWD_CheckIncSafetyConf)
00000000  local     $a (.IO_DRIVER_CODE:IO_PWD_SafetyInitInc)
00000000  local     $a (.IO_DRIVER_CODE:IO_PWD_IncInit_Internal)
00000000  local     $a (.IO_DRIVER_CODE:IO_PWD_CountInit_Internal)
00000000  local     $a (.IO_DRIVER_CODE:IO_PWD_CheckCplxSafetyConf)
00000000  local     $a (.IO_DRIVER_CODE:IO_PWD_CalcSafetyTimeout)
0000002c  local     $a (.IO_DRIVER_CODE:IO_PWD_CalcSafetyTimeout)
00000044  local     $a (.IO_DRIVER_CODE:IO_PWD_CalcSafetyTimeout)
00000000  local     $a (.IO_DRIVER_CODE:IO_PWD_SafetyInitCplx)
00000000  local     $a (.IO_DRIVER_CODE:IO_PWD_ComplexInit_Internal)
00000000  local     $a (.IO_DRIVER_CODE:IO_PWD_UniversalInit)
00000000  local     $a (.IO_DRIVER_CODE:IO_PWD_CheckCurrent)
00000000  local     $a (.IO_DRIVER_CODE:IO_PWD_SafetyStepCplx)
00000000  local     $a (.IO_DRIVER_CODE:IO_PWD_UniversalGet)
00000000  local     $a (.IO_DRIVER_CODE:IO_PWD_SafetyDeInit)
00000000  local     $a (.IO_DRIVER_CODE:IO_PWD_IncDeInit_Internal)
00000000  local     $a (.IO_DRIVER_CODE:IO_PWD_CountDeInit_Internal)
00000000  local     $a (.IO_DRIVER_CODE:IO_PWD_ComplexDeInit_Internal)
00000000  local     $a (.IO_DRIVER_CODE:IO_PWD_UniversalDeInit)
000b61d0  local     $a (.IO_DRIVER_CODE:IO_PWD_StatusInit)
00000000  local     $a (.IO_DRIVER_CODE:IO_PWD_ResetProtection)
000c4e60  local     $a (.IO_DRIVER_CODE:IO_PWD_ProtectionTask)
00000000  local     $a (.IO_DRIVER_CODE:IO_PWD_IncSet)
00000000  local     $a (.IO_DRIVER_CODE:IO_PWD_IncInit)
00000000  local     $a (.IO_DRIVER_CODE:IO_PWD_IncGet)
00000000  local     $a (.IO_DRIVER_CODE:IO_PWD_IncDeInit)
00000000  local     $a (.IO_DRIVER_CODE:IO_PWD_GetVoltage)
00000120  local     $a (.IO_DRIVER_CODE:IO_PWD_GetVoltage)
00000000  local     $a (.IO_DRIVER_CODE:IO_PWD_CurrentSafetyStep)
00000000  local     $a (.IO_DRIVER_CODE:IO_PWD_GetCurrent)
0000017c  local     $a (.IO_DRIVER_CODE:IO_PWD_GetCurrent)
00000000  local     $a (.IO_DRIVER_CODE:IO_PWD_CountSet)
00000000  local     $a (.IO_DRIVER_CODE:IO_PWD_CountInit)
00000000  local     $a (.IO_DRIVER_CODE:IO_PWD_CountGet)
00000000  local     $a (.IO_DRIVER_CODE:IO_PWD_CountDeInit)
00000000  local     $a (.IO_DRIVER_CODE:IO_PWD_ComplexInit)
00000000  local     $a (.IO_DRIVER_CODE:IO_PWD_ComplexGet)
00000000  local     $a (.IO_DRIVER_CODE:IO_PWD_ComplexDeInit)
0803d4a4  local     $d (.IO_DRIVER_DATA_NORMAL)
00000024  local     $t (.IO_DRIVER_CODE:IO_PWD_CalcSafetyTimeout)
0000003c  local     $t (.IO_DRIVER_CODE:IO_PWD_CalcSafetyTimeout)
00000118  local     $t (.IO_DRIVER_CODE:IO_PWD_GetVoltage)
00000174  local     $t (.IO_DRIVER_CODE:IO_PWD_GetCurrent)
00000000  local     .IO_DRIVER_CODE:IO_PWD_CalcSafetyTimeout (.IO_DRIVER_CODE:IO_PWD_CalcSafetyTimeout)
00000000  local     .IO_DRIVER_CODE:IO_PWD_CheckCplxSafetyConf (.IO_DRIVER_CODE:IO_PWD_CheckCplxSafetyConf)
00000000  local     .IO_DRIVER_CODE:IO_PWD_CheckCurrent (.IO_DRIVER_CODE:IO_PWD_CheckCurrent)
00000000  local     .IO_DRIVER_CODE:IO_PWD_CheckIncSafetyConf (.IO_DRIVER_CODE:IO_PWD_CheckIncSafetyConf)
00000000  local     .IO_DRIVER_CODE:IO_PWD_ComplexDeInit (.IO_DRIVER_CODE:IO_PWD_ComplexDeInit)
00000000  local     .IO_DRIVER_CODE:IO_PWD_ComplexDeInit_Internal (.IO_DRIVER_CODE:IO_PWD_ComplexDeInit_Internal)
00000000  local     .IO_DRIVER_CODE:IO_PWD_ComplexGet (.IO_DRIVER_CODE:IO_PWD_ComplexGet)
00000000  local     .IO_DRIVER_CODE:IO_PWD_ComplexInit (.IO_DRIVER_CODE:IO_PWD_ComplexInit)
00000000  local     .IO_DRIVER_CODE:IO_PWD_ComplexInit_Internal (.IO_DRIVER_CODE:IO_PWD_ComplexInit_Internal)
00000000  local     .IO_DRIVER_CODE:IO_PWD_CountDeInit (.IO_DRIVER_CODE:IO_PWD_CountDeInit)
00000000  local     .IO_DRIVER_CODE:IO_PWD_CountDeInit_Internal (.IO_DRIVER_CODE:IO_PWD_CountDeInit_Internal)
00000000  local     .IO_DRIVER_CODE:IO_PWD_CountGet (.IO_DRIVER_CODE:IO_PWD_CountGet)
00000000  local     .IO_DRIVER_CODE:IO_PWD_CountInit (.IO_DRIVER_CODE:IO_PWD_CountInit)
00000000  local     .IO_DRIVER_CODE:IO_PWD_CountInit_Internal (.IO_DRIVER_CODE:IO_PWD_CountInit_Internal)
00000000  local     .IO_DRIVER_CODE:IO_PWD_CountSet (.IO_DRIVER_CODE:IO_PWD_CountSet)
00000000  local     .IO_DRIVER_CODE:IO_PWD_CurrentSafetyStep (.IO_DRIVER_CODE:IO_PWD_CurrentSafetyStep)
00000000  local     .IO_DRIVER_CODE:IO_PWD_GetCurrent (.IO_DRIVER_CODE:IO_PWD_GetCurrent)
00000000  local     .IO_DRIVER_CODE:IO_PWD_GetVoltage (.IO_DRIVER_CODE:IO_PWD_GetVoltage)
00000000  local     .IO_DRIVER_CODE:IO_PWD_IncDeInit (.IO_DRIVER_CODE:IO_PWD_IncDeInit)
00000000  local     .IO_DRIVER_CODE:IO_PWD_IncDeInit_Internal (.IO_DRIVER_CODE:IO_PWD_IncDeInit_Internal)
00000000  local     .IO_DRIVER_CODE:IO_PWD_IncGet (.IO_DRIVER_CODE:IO_PWD_IncGet)
00000000  local     .IO_DRIVER_CODE:IO_PWD_IncInit (.IO_DRIVER_CODE:IO_PWD_IncInit)
00000000  local     .IO_DRIVER_CODE:IO_PWD_IncInit_Internal (.IO_DRIVER_CODE:IO_PWD_IncInit_Internal)
00000000  local     .IO_DRIVER_CODE:IO_PWD_IncSet (.IO_DRIVER_CODE:IO_PWD_IncSet)
000c4e60  local     .IO_DRIVER_CODE:IO_PWD_ProtectionTask (.IO_DRIVER_CODE:IO_PWD_ProtectionTask)
00000000  local     .IO_DRIVER_CODE:IO_PWD_ResetProtection (.IO_DRIVER_CODE:IO_PWD_ResetProtection)
00000000  local     .IO_DRIVER_CODE:IO_PWD_SafetyDeInit (.IO_DRIVER_CODE:IO_PWD_SafetyDeInit)
00000000  local     .IO_DRIVER_CODE:IO_PWD_SafetyInitCplx (.IO_DRIVER_CODE:IO_PWD_SafetyInitCplx)
00000000  local     .IO_DRIVER_CODE:IO_PWD_SafetyInitInc (.IO_DRIVER_CODE:IO_PWD_SafetyInitInc)
00000000  local     .IO_DRIVER_CODE:IO_PWD_SafetyStepCplx (.IO_DRIVER_CODE:IO_PWD_SafetyStepCplx)
00000000  local     .IO_DRIVER_CODE:IO_PWD_SafetyStepInc (.IO_DRIVER_CODE:IO_PWD_SafetyStepInc)
000b61d0  local     .IO_DRIVER_CODE:IO_PWD_StatusInit (.IO_DRIVER_CODE:IO_PWD_StatusInit)
00000000  local     .IO_DRIVER_CODE:IO_PWD_UniversalDeInit (.IO_DRIVER_CODE:IO_PWD_UniversalDeInit)
00000000  local     .IO_DRIVER_CODE:IO_PWD_UniversalGet (.IO_DRIVER_CODE:IO_PWD_UniversalGet)
00000000  local     .IO_DRIVER_CODE:IO_PWD_UniversalInit (.IO_DRIVER_CODE:IO_PWD_UniversalInit)
00000000  local     .IO_DRIVER_CODE:IO_PWD_UniversalSet (.IO_DRIVER_CODE:IO_PWD_UniversalSet)
0803d4a4  local     .IO_DRIVER_DATA_NORMAL (.IO_DRIVER_DATA_NORMAL)
00000000  local     .text (.text)
00000000  global    IO_PWD_CalcSafetyTimeout (.IO_DRIVER_CODE:IO_PWD_CalcSafetyTimeout)
00000000  local     IO_PWD_CheckCplxSafetyConf (.IO_DRIVER_CODE:IO_PWD_CheckCplxSafetyConf)
00000000  local     IO_PWD_CheckCurrent (.IO_DRIVER_CODE:IO_PWD_CheckCurrent)
00000000  local     IO_PWD_CheckIncSafetyConf (.IO_DRIVER_CODE:IO_PWD_CheckIncSafetyConf)
00000000  global    IO_PWD_ComplexDeInit (.IO_DRIVER_CODE:IO_PWD_ComplexDeInit)
00000000  local     IO_PWD_ComplexDeInit_Internal (.IO_DRIVER_CODE:IO_PWD_ComplexDeInit_Internal)
00000000  global    IO_PWD_ComplexGet (.IO_DRIVER_CODE:IO_PWD_ComplexGet)
00000000  global    IO_PWD_ComplexInit (.IO_DRIVER_CODE:IO_PWD_ComplexInit)
00000000  local     IO_PWD_ComplexInit_Internal (.IO_DRIVER_CODE:IO_PWD_ComplexInit_Internal)
00000000  global    IO_PWD_CountDeInit (.IO_DRIVER_CODE:IO_PWD_CountDeInit)
00000000  local     IO_PWD_CountDeInit_Internal (.IO_DRIVER_CODE:IO_PWD_CountDeInit_Internal)
00000000  global    IO_PWD_CountGet (.IO_DRIVER_CODE:IO_PWD_CountGet)
00000000  global    IO_PWD_CountInit (.IO_DRIVER_CODE:IO_PWD_CountInit)
00000000  local     IO_PWD_CountInit_Internal (.IO_DRIVER_CODE:IO_PWD_CountInit_Internal)
00000000  global    IO_PWD_CountSet (.IO_DRIVER_CODE:IO_PWD_CountSet)
00000000  local     IO_PWD_CurrentSafetyStep (.IO_DRIVER_CODE:IO_PWD_CurrentSafetyStep)
00000000  global    IO_PWD_GetCurrent (.IO_DRIVER_CODE:IO_PWD_GetCurrent)
00000000  global    IO_PWD_GetVoltage (.IO_DRIVER_CODE:IO_PWD_GetVoltage)
00000000  global    IO_PWD_IncDeInit (.IO_DRIVER_CODE:IO_PWD_IncDeInit)
00000000  local     IO_PWD_IncDeInit_Internal (.IO_DRIVER_CODE:IO_PWD_IncDeInit_Internal)
00000000  global    IO_PWD_IncGet (.IO_DRIVER_CODE:IO_PWD_IncGet)
00000000  global    IO_PWD_IncInit (.IO_DRIVER_CODE:IO_PWD_IncInit)
00000000  local     IO_PWD_IncInit_Internal (.IO_DRIVER_CODE:IO_PWD_IncInit_Internal)
00000000  global    IO_PWD_IncSet (.IO_DRIVER_CODE:IO_PWD_IncSet)
000c4e60  global    IO_PWD_ProtectionTask (.IO_DRIVER_CODE:IO_PWD_ProtectionTask)
00000000  global    IO_PWD_ResetProtection (.IO_DRIVER_CODE:IO_PWD_ResetProtection)
00000000  local     IO_PWD_SafetyDeInit (.IO_DRIVER_CODE:IO_PWD_SafetyDeInit)
00000000  local     IO_PWD_SafetyInitCplx (.IO_DRIVER_CODE:IO_PWD_SafetyInitCplx)
00000000  local     IO_PWD_SafetyInitInc (.IO_DRIVER_CODE:IO_PWD_SafetyInitInc)
00000000  local     IO_PWD_SafetyStepCplx (.IO_DRIVER_CODE:IO_PWD_SafetyStepCplx)
00000000  local     IO_PWD_SafetyStepInc (.IO_DRIVER_CODE:IO_PWD_SafetyStepInc)
000b61d0  global    IO_PWD_StatusInit (.IO_DRIVER_CODE:IO_PWD_StatusInit)
00000000  global    IO_PWD_UniversalDeInit (.IO_DRIVER_CODE:IO_PWD_UniversalDeInit)
00000000  global    IO_PWD_UniversalGet (.IO_DRIVER_CODE:IO_PWD_UniversalGet)
00000000  global    IO_PWD_UniversalInit (.IO_DRIVER_CODE:IO_PWD_UniversalInit)
00000000  global    IO_PWD_UniversalSet (.IO_DRIVER_CODE:IO_PWD_UniversalSet)
0803d4a4  global    io_pwd_stat_tb (.IO_DRIVER_DATA_NORMAL)


================================================================================

ttc500.lib : drv_IO_INT_WD.obj

Run/Load            
Value     Binding   Name (Section)
--------  --------  ---------------
000c3ff0  local     $C$L1 (.IO_DRIVER_CODE:IO_INT_WD_TPS_TaskStatusSave)
000b7164  local     $C$L10 (.IO_DRIVER_CODE:IO_INT_WD_TPS_Activate)
000b71b8  local     $C$L11 (.IO_DRIVER_CODE:IO_INT_WD_TPS_Activate)
000b71cc  local     $C$L12 (.IO_DRIVER_CODE:IO_INT_WD_TPS_Activate)
000b71d4  local     $C$L13 (.IO_DRIVER_CODE:IO_INT_WD_TPS_Activate)
000b71e0  local     $C$L14 (.IO_DRIVER_CODE:IO_INT_WD_TPS_Activate)
000b7208  local     $C$L15 (.IO_DRIVER_CODE:IO_INT_WD_TPS_Activate)
000b720c  local     $C$L16 (.IO_DRIVER_CODE:IO_INT_WD_TPS_Activate)
000b7290  local     $C$L17 (.IO_DRIVER_CODE:IO_INT_WD_TPS_TaskStart)
000c15b8  local     $C$L18 (.IO_DRIVER_CODE:IO_INT_WD_TPS_TaskCyclic)
000c15c0  local     $C$L19 (.IO_DRIVER_CODE:IO_INT_WD_TPS_TaskCyclic)
000c3ff8  local     $C$L2 (.IO_DRIVER_CODE:IO_INT_WD_TPS_TaskStatusSave)
000c15d4  local     $C$L20 (.IO_DRIVER_CODE:IO_INT_WD_TPS_TaskCyclic)
000c15d8  local     $C$L21 (.IO_DRIVER_CODE:IO_INT_WD_TPS_TaskCyclic)
000c1600  local     $C$L22 (.IO_DRIVER_CODE:IO_INT_WD_TPS_TaskCyclic)
000c1608  local     $C$L23 (.IO_DRIVER_CODE:IO_INT_WD_TPS_TaskCyclic)
000b7958  local     $C$L24 (.IO_DRIVER_CODE:IO_INT_WD_TPS_StopTriggering)
000b0b90  local     $C$L25 (.IO_DRIVER_CODE:IO_INT_WD_TPS_GetStatusAsync)
000b78e8  local     $C$L26 (.IO_DRIVER_CODE:IO_INT_WD_TPS_EnableDriver)
000b78f4  local     $C$L27 (.IO_DRIVER_CODE:IO_INT_WD_TPS_EnableDriver)
000b790c  local     $C$L28 (.IO_DRIVER_CODE:IO_INT_WD_TPS_EnableDriver)
000b6608  local     $C$L29 (.IO_DRIVER_CODE:IO_INT_WD_TPS_CommInit)
000b69d0  local     $C$L3 (.IO_DRIVER_CODE:IO_INT_WD_TPS_GetStatusSync)
0000009c  local     $C$L30 (.IO_DRIVER_CODE:IO_INT_WD_SoftReset)
000000b0  local     $C$L31 (.IO_DRIVER_CODE:IO_INT_WD_SoftReset)
000000d8  local     $C$L32 (.IO_DRIVER_CODE:IO_INT_WD_SoftReset)
000000e0  local     $C$L33 (.IO_DRIVER_CODE:IO_INT_WD_SoftReset)
000000e4  local     $C$L34 (.IO_DRIVER_CODE:IO_INT_WD_SoftReset)
000000fc  local     $C$L35 (.IO_DRIVER_CODE:IO_INT_WD_SoftReset)
000b66f0  local     $C$L36 (.IO_DRIVER_CODE:IO_INT_WD_DWWD_Init)
000b6750  local     $C$L37 (.IO_DRIVER_CODE:IO_INT_WD_DWWD_Init)
000b67a0  local     $C$L38 (.IO_DRIVER_CODE:IO_INT_WD_DWWD_Init)
000b6800  local     $C$L39 (.IO_DRIVER_CODE:IO_INT_WD_DWWD_Init)
000b6a24  local     $C$L4 (.IO_DRIVER_CODE:IO_INT_WD_TPS_GetStatusSync)
000b6840  local     $C$L40 (.IO_DRIVER_CODE:IO_INT_WD_DWWD_Init)
000b6858  local     $C$L41 (.IO_DRIVER_CODE:IO_INT_WD_DWWD_Init)
000b6868  local     $C$L42 (.IO_DRIVER_CODE:IO_INT_WD_DWWD_Init)
000b68e0  local     $C$L43 (.IO_DRIVER_CODE:IO_INT_WD_DWWD_Init)
000b68e8  local     $C$L44 (.IO_DRIVER_CODE:IO_INT_WD_DWWD_Init)
000b68f0  local     $C$L45 (.IO_DRIVER_CODE:IO_INT_WD_DWWD_Init)
000b68f8  local     $C$L46 (.IO_DRIVER_CODE:IO_INT_WD_DWWD_Init)
000b6900  local     $C$L47 (.IO_DRIVER_CODE:IO_INT_WD_DWWD_Init)
000b6918  local     $C$L48 (.IO_DRIVER_CODE:IO_INT_WD_DWWD_Init)
000b6920  local     $C$L49 (.IO_DRIVER_CODE:IO_INT_WD_DWWD_Init)
000b6a2c  local     $C$L5 (.IO_DRIVER_CODE:IO_INT_WD_TPS_GetStatusSync)
000b695c  local     $C$L50 (.IO_DRIVER_CODE:IO_INT_WD_DWWD_Init)
000b6acc  local     $C$L51 (.IO_DRIVER_CODE:IO_INT_WD_TPS_Init)
000b6ad8  local     $C$L52 (.IO_DRIVER_CODE:IO_INT_WD_TPS_Init)
000b6ae4  local     $C$L53 (.IO_DRIVER_CODE:IO_INT_WD_TPS_Init)
000b6af0  local     $C$L54 (.IO_DRIVER_CODE:IO_INT_WD_TPS_Init)
000b6afc  local     $C$L55 (.IO_DRIVER_CODE:IO_INT_WD_TPS_Init)
000b6b08  local     $C$L56 (.IO_DRIVER_CODE:IO_INT_WD_TPS_Init)
000b6b14  local     $C$L57 (.IO_DRIVER_CODE:IO_INT_WD_TPS_Init)
000b6b20  local     $C$L58 (.IO_DRIVER_CODE:IO_INT_WD_TPS_Init)
000b6b28  local     $C$L59 (.IO_DRIVER_CODE:IO_INT_WD_TPS_Init)
000b7010  local     $C$L6 (.IO_DRIVER_CODE:IO_INT_WD_TPS_Trigger)
000b6b34  local     $C$L60 (.IO_DRIVER_CODE:IO_INT_WD_TPS_Init)
000b6b3c  local     $C$L61 (.IO_DRIVER_CODE:IO_INT_WD_TPS_Init)
000b6bb0  local     $C$L62 (.IO_DRIVER_CODE:IO_INT_WD_TPS_Init)
000b6bc8  local     $C$L63 (.IO_DRIVER_CODE:IO_INT_WD_TPS_Init)
000b6c74  local     $C$L64 (.IO_DRIVER_CODE:IO_INT_WD_TPS_Init)
000b6c78  local     $C$L65 (.IO_DRIVER_CODE:IO_INT_WD_TPS_Init)
000b6ca4  local     $C$L66 (.IO_DRIVER_CODE:IO_INT_WD_TPS_Init)
000b6cac  local     $C$L67 (.IO_DRIVER_CODE:IO_INT_WD_TPS_Init)
000b6cb0  local     $C$L68 (.IO_DRIVER_CODE:IO_INT_WD_TPS_Init)
000b6ce8  local     $C$L69 (.IO_DRIVER_CODE:IO_INT_WD_TPS_Init)
000b70a0  local     $C$L7 (.IO_DRIVER_CODE:IO_INT_WD_TPS_Activate)
000b6cf0  local     $C$L70 (.IO_DRIVER_CODE:IO_INT_WD_TPS_Init)
000b6cf8  local     $C$L71 (.IO_DRIVER_CODE:IO_INT_WD_TPS_Init)
000b6cfc  local     $C$L72 (.IO_DRIVER_CODE:IO_INT_WD_TPS_Init)
000b6d80  local     $C$L73 (.IO_DRIVER_CODE:IO_INT_WD_Init)
000bf764  local     $C$L74 (.IO_DRIVER_CODE:IO_INT_WD_HardReset)
000bf770  local     $C$L75 (.IO_DRIVER_CODE:IO_INT_WD_HardReset)
000bf798  local     $C$L76 (.IO_DRIVER_CODE:IO_INT_WD_HardReset)
000b0c24  local     $C$L77 (.IO_DRIVER_CODE:IO_INT_WD_GetStatus)
000b0c2c  local     $C$L78 (.IO_DRIVER_CODE:IO_INT_WD_GetStatus)
000b0c34  local     $C$L79 (.IO_DRIVER_CODE:IO_INT_WD_GetStatus)
000b70e0  local     $C$L8 (.IO_DRIVER_CODE:IO_INT_WD_TPS_Activate)
000b0c3c  local     $C$L80 (.IO_DRIVER_CODE:IO_INT_WD_GetStatus)
000b0c44  local     $C$L81 (.IO_DRIVER_CODE:IO_INT_WD_GetStatus)
000b0c4c  local     $C$L82 (.IO_DRIVER_CODE:IO_INT_WD_GetStatus)
000b8b10  local     $C$L83 (.IO_DRIVER_CODE:IO_INT_WD_DWWD_Task)
000b8ba4  local     $C$L84 (.IO_DRIVER_CODE:IO_INT_WD_DWWD_Task)
000b8bac  local     $C$L85 (.IO_DRIVER_CODE:IO_INT_WD_DWWD_Task)
000b8bc0  local     $C$L86 (.IO_DRIVER_CODE:IO_INT_WD_DWWD_Task)
000b8bc4  local     $C$L87 (.IO_DRIVER_CODE:IO_INT_WD_DWWD_Task)
000b8be8  local     $C$L88 (.IO_DRIVER_CODE:IO_INT_WD_DWWD_Task)
000b7150  local     $C$L9 (.IO_DRIVER_CODE:IO_INT_WD_TPS_Activate)
000b6aa4  local     $C$SW1 (.IO_DRIVER_CODE:IO_INT_WD_TPS_Init)
000cb870  local     $P$T0$1 (.const)
000cb890  local     $P$T1$2 (.const)
000cb8b0  local     $P$T2$3 (.const)
000cb8d0  local     $P$T3$4 (.const)
000c3f70  local     $a (.IO_DRIVER_CODE:IO_INT_WD_TPS_TaskStatusSave)
000c49f0  local     $a (.IO_DRIVER_CODE:IO_INT_WD_TPS_TaskStatusRequest)
000b6970  local     $a (.IO_DRIVER_CODE:IO_INT_WD_TPS_GetStatusSync)
000b6fe0  local     $a (.IO_DRIVER_CODE:IO_INT_WD_TPS_Trigger)
000b7020  local     $a (.IO_DRIVER_CODE:IO_INT_WD_TPS_Activate)
000b7220  local     $a (.IO_DRIVER_CODE:IO_INT_WD_TPS_TaskStart)
000c14c0  local     $a (.IO_DRIVER_CODE:IO_INT_WD_TPS_TaskCyclic)
000b7910  local     $a (.IO_DRIVER_CODE:IO_INT_WD_TPS_StopTriggering)
000b7580  local     $a (.IO_DRIVER_CODE:IO_INT_WD_TPS_IsActive)
000b0b40  local     $a (.IO_DRIVER_CODE:IO_INT_WD_TPS_GetStatusAsync)
000b7890  local     $a (.IO_DRIVER_CODE:IO_INT_WD_TPS_EnableDriver)
000b6590  local     $a (.IO_DRIVER_CODE:IO_INT_WD_TPS_CommInit)
00000000  local     $a (.IO_DRIVER_CODE:IO_INT_WD_SoftReset)
000b6610  local     $a (.IO_DRIVER_CODE:IO_INT_WD_DWWD_Init)
000b6888  local     $a (.IO_DRIVER_CODE:IO_INT_WD_DWWD_Init)
000b68d4  local     $a (.IO_DRIVER_CODE:IO_INT_WD_DWWD_Init)
000b6a40  local     $a (.IO_DRIVER_CODE:IO_INT_WD_TPS_Init)
000b6acc  local     $a (.IO_DRIVER_CODE:IO_INT_WD_TPS_Init)
000b6d10  local     $a (.IO_DRIVER_CODE:IO_INT_WD_Init)
000bf710  local     $a (.IO_DRIVER_CODE:IO_INT_WD_HardReset)
000b0ba0  local     $a (.IO_DRIVER_CODE:IO_INT_WD_GetStatus)
000b8a20  local     $a (.IO_DRIVER_CODE:IO_INT_WD_DWWD_Activate)
000b8a50  local     $a (.IO_DRIVER_CODE:IO_INT_WD_DWWD_Trigger)
000b8a90  local     $a (.IO_DRIVER_CODE:IO_INT_WD_DWWD_Task)
000b6d90  local     $a (.IO_DRIVER_CODE:IO_INT_WD_DWWD_IsInitialized)
0803da44  local     $d (.IO_DRIVER_DATA_NORMAL)
0803da45  local     $d (.IO_DRIVER_DATA_NORMAL)
0803da46  local     $d (.IO_DRIVER_DATA_NORMAL)
0803da48  local     $d (.IO_DRIVER_DATA_NORMAL)
0803da4c  local     $d (.IO_DRIVER_DATA_NORMAL)
0803da50  local     $d (.IO_DRIVER_DATA_NORMAL)
0803da54  local     $d (.IO_DRIVER_DATA_NORMAL)
0803da55  local     $d (.IO_DRIVER_DATA_NORMAL)
0803da75  local     $d (.IO_DRIVER_DATA_NORMAL)
0803da76  local     $d (.IO_DRIVER_DATA_NORMAL)
0803da77  local     $d (.IO_DRIVER_DATA_NORMAL)
0803da78  local     $d (.IO_DRIVER_DATA_NORMAL)
0803da7c  local     $d (.IO_DRIVER_DATA_NORMAL)
0803da80  local     $d (.IO_DRIVER_DATA_NORMAL)
0803da84  local     $d (.IO_DRIVER_DATA_NORMAL)
000cb870  local     $d (.const)
000cb890  local     $d (.const)
000cb8b0  local     $d (.const)
000cb8d0  local     $d (.const)
000b6aa4  local     $d (.IO_DRIVER_CODE:IO_INT_WD_TPS_Init)
000b6880  local     $t (.IO_DRIVER_CODE:IO_INT_WD_DWWD_Init)
000b68cc  local     $t (.IO_DRIVER_CODE:IO_INT_WD_DWWD_Init)
000b8a20  local     .IO_DRIVER_CODE:IO_INT_WD_DWWD_Activate (.IO_DRIVER_CODE:IO_INT_WD_DWWD_Activate)
000b6610  local     .IO_DRIVER_CODE:IO_INT_WD_DWWD_Init (.IO_DRIVER_CODE:IO_INT_WD_DWWD_Init)
000b6d90  local     .IO_DRIVER_CODE:IO_INT_WD_DWWD_IsInitialized (.IO_DRIVER_CODE:IO_INT_WD_DWWD_IsInitialized)
000b8a90  local     .IO_DRIVER_CODE:IO_INT_WD_DWWD_Task (.IO_DRIVER_CODE:IO_INT_WD_DWWD_Task)
000b8a50  local     .IO_DRIVER_CODE:IO_INT_WD_DWWD_Trigger (.IO_DRIVER_CODE:IO_INT_WD_DWWD_Trigger)
000b0ba0  local     .IO_DRIVER_CODE:IO_INT_WD_GetStatus (.IO_DRIVER_CODE:IO_INT_WD_GetStatus)
000bf710  local     .IO_DRIVER_CODE:IO_INT_WD_HardReset (.IO_DRIVER_CODE:IO_INT_WD_HardReset)
000b6d10  local     .IO_DRIVER_CODE:IO_INT_WD_Init (.IO_DRIVER_CODE:IO_INT_WD_Init)
00000000  local     .IO_DRIVER_CODE:IO_INT_WD_SoftReset (.IO_DRIVER_CODE:IO_INT_WD_SoftReset)
000b7020  local     .IO_DRIVER_CODE:IO_INT_WD_TPS_Activate (.IO_DRIVER_CODE:IO_INT_WD_TPS_Activate)
000b6590  local     .IO_DRIVER_CODE:IO_INT_WD_TPS_CommInit (.IO_DRIVER_CODE:IO_INT_WD_TPS_CommInit)
000b7890  local     .IO_DRIVER_CODE:IO_INT_WD_TPS_EnableDriver (.IO_DRIVER_CODE:IO_INT_WD_TPS_EnableDriver)
000b0b40  local     .IO_DRIVER_CODE:IO_INT_WD_TPS_GetStatusAsync (.IO_DRIVER_CODE:IO_INT_WD_TPS_GetStatusAsync)
000b6970  local     .IO_DRIVER_CODE:IO_INT_WD_TPS_GetStatusSync (.IO_DRIVER_CODE:IO_INT_WD_TPS_GetStatusSync)
000b6a40  local     .IO_DRIVER_CODE:IO_INT_WD_TPS_Init (.IO_DRIVER_CODE:IO_INT_WD_TPS_Init)
000b7580  local     .IO_DRIVER_CODE:IO_INT_WD_TPS_IsActive (.IO_DRIVER_CODE:IO_INT_WD_TPS_IsActive)
000b7910  local     .IO_DRIVER_CODE:IO_INT_WD_TPS_StopTriggering (.IO_DRIVER_CODE:IO_INT_WD_TPS_StopTriggering)
000c14c0  local     .IO_DRIVER_CODE:IO_INT_WD_TPS_TaskCyclic (.IO_DRIVER_CODE:IO_INT_WD_TPS_TaskCyclic)
000b7220  local     .IO_DRIVER_CODE:IO_INT_WD_TPS_TaskStart (.IO_DRIVER_CODE:IO_INT_WD_TPS_TaskStart)
000c49f0  local     .IO_DRIVER_CODE:IO_INT_WD_TPS_TaskStatusRequest (.IO_DRIVER_CODE:IO_INT_WD_TPS_TaskStatusRequest)
000c3f70  local     .IO_DRIVER_CODE:IO_INT_WD_TPS_TaskStatusSave (.IO_DRIVER_CODE:IO_INT_WD_TPS_TaskStatusSave)
000b6fe0  local     .IO_DRIVER_CODE:IO_INT_WD_TPS_Trigger (.IO_DRIVER_CODE:IO_INT_WD_TPS_Trigger)
0803da44  local     .IO_DRIVER_DATA_NORMAL (.IO_DRIVER_DATA_NORMAL)
000cb870  local     .const (.const)
00000000  local     .text (.text)
000b8a20  local     IO_INT_WD_DWWD_Activate (.IO_DRIVER_CODE:IO_INT_WD_DWWD_Activate)
000b6610  local     IO_INT_WD_DWWD_Init (.IO_DRIVER_CODE:IO_INT_WD_DWWD_Init)
000b6d90  global    IO_INT_WD_DWWD_IsInitialized (.IO_DRIVER_CODE:IO_INT_WD_DWWD_IsInitialized)
000b8a90  global    IO_INT_WD_DWWD_Task (.IO_DRIVER_CODE:IO_INT_WD_DWWD_Task)
000b8a50  local     IO_INT_WD_DWWD_Trigger (.IO_DRIVER_CODE:IO_INT_WD_DWWD_Trigger)
0803da78  local     IO_INT_WD_DWWD_active (.IO_DRIVER_DATA_NORMAL)
0803da84  local     IO_INT_WD_DWWD_cycleTimeMax (.IO_DRIVER_DATA_NORMAL)
0803da80  local     IO_INT_WD_DWWD_cycleTimeMin (.IO_DRIVER_DATA_NORMAL)
0803da77  local     IO_INT_WD_DWWD_initialized (.IO_DRIVER_DATA_NORMAL)
0803da7c  local     IO_INT_WD_DWWD_lastTaskCall (.IO_DRIVER_DATA_NORMAL)
000b0ba0  global    IO_INT_WD_GetStatus (.IO_DRIVER_CODE:IO_INT_WD_GetStatus)
000bf710  global    IO_INT_WD_HardReset (.IO_DRIVER_CODE:IO_INT_WD_HardReset)
000b6d10  global    IO_INT_WD_Init (.IO_DRIVER_CODE:IO_INT_WD_Init)
00000000  global    IO_INT_WD_SoftReset (.IO_DRIVER_CODE:IO_INT_WD_SoftReset)
000b7020  local     IO_INT_WD_TPS_Activate (.IO_DRIVER_CODE:IO_INT_WD_TPS_Activate)
000b6590  global    IO_INT_WD_TPS_CommInit (.IO_DRIVER_CODE:IO_INT_WD_TPS_CommInit)
000b7890  global    IO_INT_WD_TPS_EnableDriver (.IO_DRIVER_CODE:IO_INT_WD_TPS_EnableDriver)
000b0b40  global    IO_INT_WD_TPS_GetStatusAsync (.IO_DRIVER_CODE:IO_INT_WD_TPS_GetStatusAsync)
000b6970  global    IO_INT_WD_TPS_GetStatusSync (.IO_DRIVER_CODE:IO_INT_WD_TPS_GetStatusSync)
000b6a40  local     IO_INT_WD_TPS_Init (.IO_DRIVER_CODE:IO_INT_WD_TPS_Init)
000b7580  global    IO_INT_WD_TPS_IsActive (.IO_DRIVER_CODE:IO_INT_WD_TPS_IsActive)
000b7910  global    IO_INT_WD_TPS_StopTriggering (.IO_DRIVER_CODE:IO_INT_WD_TPS_StopTriggering)
000c14c0  global    IO_INT_WD_TPS_TaskCyclic (.IO_DRIVER_CODE:IO_INT_WD_TPS_TaskCyclic)
000b7220  global    IO_INT_WD_TPS_TaskStart (.IO_DRIVER_CODE:IO_INT_WD_TPS_TaskStart)
000c49f0  global    IO_INT_WD_TPS_TaskStatusRequest (.IO_DRIVER_CODE:IO_INT_WD_TPS_TaskStatusRequest)
000c3f70  global    IO_INT_WD_TPS_TaskStatusSave (.IO_DRIVER_CODE:IO_INT_WD_TPS_TaskStatusSave)
000b6fe0  local     IO_INT_WD_TPS_Trigger (.IO_DRIVER_CODE:IO_INT_WD_TPS_Trigger)
0803da45  local     IO_INT_WD_TPS_active (.IO_DRIVER_DATA_NORMAL)
0803da50  local     IO_INT_WD_TPS_cycleTimeMax (.IO_DRIVER_DATA_NORMAL)
0803da4c  local     IO_INT_WD_TPS_cycleTimeMin (.IO_DRIVER_DATA_NORMAL)
0803da44  local     IO_INT_WD_TPS_initialized (.IO_DRIVER_DATA_NORMAL)
0803da54  local     IO_INT_WD_TPS_lastAllowedCycle (.IO_DRIVER_DATA_NORMAL)
0803da55  local     IO_INT_WD_TPS_lastStatusData (.IO_DRIVER_DATA_NORMAL)
0803da75  local     IO_INT_WD_TPS_lastStatusValid (.IO_DRIVER_DATA_NORMAL)
0803da48  local     IO_INT_WD_TPS_lastTaskCall (.IO_DRIVER_DATA_NORMAL)
0803da76  local     IO_INT_WD_TPS_mode (.IO_DRIVER_DATA_NORMAL)
0803da46  local     IO_INT_WD_TPS_preventTrigger (.IO_DRIVER_DATA_NORMAL)


================================================================================

ttc500.lib : drv_IO_INT_DEBUG.obj

Run/Load            
Value     Binding   Name (Section)
--------  --------  ---------------
000b3580  local     $C$L1 (.IO_DRIVER_CODE:IO_INT_DEBUG_MaskDAbort)
000b3530  local     $a (.IO_DRIVER_CODE:IO_INT_DEBUG_MaskDAbort)
000b3530  local     .IO_DRIVER_CODE:IO_INT_DEBUG_MaskDAbort (.IO_DRIVER_CODE:IO_INT_DEBUG_MaskDAbort)
00000000  local     .text (.text)
000b3530  global    IO_INT_DEBUG_MaskDAbort (.IO_DRIVER_CODE:IO_INT_DEBUG_MaskDAbort)


================================================================================

ttc500.lib : drv_IO_ADC.obj

Run/Load            
Value     Binding   Name (Section)
--------  --------  ---------------
000b3488  local     $C$L1 (.IO_DRIVER_CODE:IO_ADC_VariantInit)
000bfaa4  local     $C$L10 (.IO_DRIVER_CODE:IO_ADC_CalcBoardTemp)
000c103c  local     $C$L100 (.IO_DRIVER_CODE:IO_ADC_Get3ModeType)
000c1064  local     $C$L101 (.IO_DRIVER_CODE:IO_ADC_Get3ModeType)
000c10b0  local     $C$L102 (.IO_DRIVER_CODE:IO_ADC_Get3ModeType)
000c10e0  local     $C$L103 (.IO_DRIVER_CODE:IO_ADC_Get3ModeType)
000c10e4  local     $C$L104 (.IO_DRIVER_CODE:IO_ADC_Get3ModeType)
000c110c  local     $C$L105 (.IO_DRIVER_CODE:IO_ADC_Get3ModeType)
000c1110  local     $C$L106 (.IO_DRIVER_CODE:IO_ADC_Get3ModeType)
000c1114  local     $C$L107 (.IO_DRIVER_CODE:IO_ADC_Get3ModeType)
000c1230  local     $C$L108 (.IO_DRIVER_CODE:IO_ADC_Get)
000c1250  local     $C$L109 (.IO_DRIVER_CODE:IO_ADC_Get)
000bfaa8  local     $C$L11 (.IO_DRIVER_CODE:IO_ADC_CalcBoardTemp)
000c1270  local     $C$L110 (.IO_DRIVER_CODE:IO_ADC_Get)
000c1290  local     $C$L111 (.IO_DRIVER_CODE:IO_ADC_Get)
000c1300  local     $C$L112 (.IO_DRIVER_CODE:IO_ADC_Get)
000c130c  local     $C$L113 (.IO_DRIVER_CODE:IO_ADC_Get)
000c1338  local     $C$L114 (.IO_DRIVER_CODE:IO_ADC_Get)
000c1340  local     $C$L115 (.IO_DRIVER_CODE:IO_ADC_Get)
000c1360  local     $C$L116 (.IO_DRIVER_CODE:IO_ADC_Get)
000c1380  local     $C$L117 (.IO_DRIVER_CODE:IO_ADC_Get)
000c13f0  local     $C$L118 (.IO_DRIVER_CODE:IO_ADC_GetExtShutOff)
000c1474  local     $C$L119 (.IO_DRIVER_CODE:IO_ADC_GetExtShutOff)
000bfad0  local     $C$L12 (.IO_DRIVER_CODE:IO_ADC_CalcBoardTemp)
000c1488  local     $C$L120 (.IO_DRIVER_CODE:IO_ADC_GetExtShutOff)
000b549c  local     $C$L121 (.IO_DRIVER_CODE:IO_ADC_StatusInit)
00000094  local     $C$L122 (.IO_DRIVER_CODE:IO_ADC_ResetProtection)
0000009c  local     $C$L123 (.IO_DRIVER_CODE:IO_ADC_ResetProtection)
000000a4  local     $C$L124 (.IO_DRIVER_CODE:IO_ADC_ResetProtection)
000000ac  local     $C$L125 (.IO_DRIVER_CODE:IO_ADC_ResetProtection)
000000b0  local     $C$L126 (.IO_DRIVER_CODE:IO_ADC_ResetProtection)
000000c4  local     $C$L127 (.IO_DRIVER_CODE:IO_ADC_ResetProtection)
000c5100  local     $C$L128 (.IO_DRIVER_CODE:IO_ADC_ProtectionTask)
000c519c  local     $C$L129 (.IO_DRIVER_CODE:IO_ADC_ProtectionTask)
000bfb4c  local     $C$L13 (.IO_DRIVER_CODE:IO_ADC_GetVPGate)
000c5204  local     $C$L130 (.IO_DRIVER_CODE:IO_ADC_ProtectionTask)
000c5210  local     $C$L131 (.IO_DRIVER_CODE:IO_ADC_ProtectionTask)
000c5238  local     $C$L132 (.IO_DRIVER_CODE:IO_ADC_ProtectionTask)
000c5254  local     $C$L133 (.IO_DRIVER_CODE:IO_ADC_ProtectionTask)
000c5270  local     $C$L134 (.IO_DRIVER_CODE:IO_ADC_ProtectionTask)
000c5278  local     $C$L135 (.IO_DRIVER_CODE:IO_ADC_ProtectionTask)
000c527c  local     $C$L136 (.IO_DRIVER_CODE:IO_ADC_ProtectionTask)
000c5280  local     $C$L137 (.IO_DRIVER_CODE:IO_ADC_ProtectionTask)
000beca0  local     $C$L138 (.IO_DRIVER_CODE:IO_ADC_QueueSlow)
000beca8  local     $C$L139 (.IO_DRIVER_CODE:IO_ADC_QueueSlow)
000bfb5c  local     $C$L14 (.IO_DRIVER_CODE:IO_ADC_GetVPGate)
000becac  local     $C$L140 (.IO_DRIVER_CODE:IO_ADC_QueueSlow)
000becb0  local     $C$L141 (.IO_DRIVER_CODE:IO_ADC_QueueSlow)
000becec  local     $C$L142 (.IO_DRIVER_CODE:IO_ADC_QueueFast)
000bed58  local     $C$L143 (.IO_DRIVER_CODE:IO_ADC_N2HET2_interrupt)
000bed60  local     $C$L144 (.IO_DRIVER_CODE:IO_ADC_N2HET2_interrupt)
000bed64  local     $C$L145 (.IO_DRIVER_CODE:IO_ADC_N2HET2_interrupt)
0000008c  local     $C$L146 (.IO_DRIVER_CODE:IO_ADC_InitPVGType)
000000ac  local     $C$L147 (.IO_DRIVER_CODE:IO_ADC_InitPVGType)
000000b4  local     $C$L148 (.IO_DRIVER_CODE:IO_ADC_InitPVGType)
00000100  local     $C$L149 (.IO_DRIVER_CODE:IO_ADC_InitPVGType)
000bfb64  local     $C$L15 (.IO_DRIVER_CODE:IO_ADC_GetVPGate)
00000118  local     $C$L150 (.IO_DRIVER_CODE:IO_ADC_InitPVGType)
00000160  local     $C$L151 (.IO_DRIVER_CODE:IO_ADC_InitPVGType)
00000184  local     $C$L152 (.IO_DRIVER_CODE:IO_ADC_InitPVGType)
00000074  local     $C$L153 (.IO_DRIVER_CODE:IO_ADC_InitDOLSType)
00000080  local     $C$L154 (.IO_DRIVER_CODE:IO_ADC_InitDOLSType)
00000090  local     $C$L155 (.IO_DRIVER_CODE:IO_ADC_InitDOLSType)
000000c0  local     $C$L156 (.IO_DRIVER_CODE:IO_ADC_InitDOLSType)
0000008c  local     $C$L157 (.IO_DRIVER_CODE:IO_ADC_InitDOHSType)
00000098  local     $C$L158 (.IO_DRIVER_CODE:IO_ADC_InitDOHSType)
000000b0  local     $C$L159 (.IO_DRIVER_CODE:IO_ADC_InitDOHSType)
000bfc0c  local     $C$L16 (.IO_DRIVER_CODE:IO_ADC_GetVP)
000000b8  local     $C$L160 (.IO_DRIVER_CODE:IO_ADC_InitDOHSType)
000000c4  local     $C$L161 (.IO_DRIVER_CODE:IO_ADC_InitDOHSType)
000000cc  local     $C$L162 (.IO_DRIVER_CODE:IO_ADC_InitDOHSType)
00000100  local     $C$L163 (.IO_DRIVER_CODE:IO_ADC_InitDOHSType)
00000118  local     $C$L164 (.IO_DRIVER_CODE:IO_ADC_InitDOHSType)
0000011c  local     $C$L165 (.IO_DRIVER_CODE:IO_ADC_InitDOHSType)
00000150  local     $C$L166 (.IO_DRIVER_CODE:IO_ADC_InitDOHSType)
00000168  local     $C$L167 (.IO_DRIVER_CODE:IO_ADC_InitDOHSType)
000000f0  local     $C$L168 (.IO_DRIVER_CODE:IO_ADC_SafetyInit3Mode)
00000130  local     $C$L169 (.IO_DRIVER_CODE:IO_ADC_SafetyInit3Mode)
000bfc1c  local     $C$L17 (.IO_DRIVER_CODE:IO_ADC_GetVP)
00000168  local     $C$L170 (.IO_DRIVER_CODE:IO_ADC_SafetyInit3Mode)
00000194  local     $C$L171 (.IO_DRIVER_CODE:IO_ADC_SafetyInit3Mode)
00000098  local     $C$L172 (.IO_DRIVER_CODE:IO_ADC_Init3ModeType)
000000cc  local     $C$L173 (.IO_DRIVER_CODE:IO_ADC_Init3ModeType)
000000e0  local     $C$L174 (.IO_DRIVER_CODE:IO_ADC_Init3ModeType)
00000120  local     $C$L175 (.IO_DRIVER_CODE:IO_ADC_Init3ModeType)
00000160  local     $C$L176 (.IO_DRIVER_CODE:IO_ADC_Init3ModeType)
00000194  local     $C$L177 (.IO_DRIVER_CODE:IO_ADC_Init3ModeType)
000001a0  local     $C$L178 (.IO_DRIVER_CODE:IO_ADC_Init3ModeType)
00000210  local     $C$L179 (.IO_DRIVER_CODE:IO_ADC_Init3ModeType)
000bfc24  local     $C$L18 (.IO_DRIVER_CODE:IO_ADC_GetVP)
00000230  local     $C$L180 (.IO_DRIVER_CODE:IO_ADC_Init3ModeType)
000000b0  local     $C$L181 (.IO_DRIVER_CODE:IO_ADC_SafetyInit2Mode)
000000c0  local     $C$L182 (.IO_DRIVER_CODE:IO_ADC_SafetyInit2Mode)
000000c8  local     $C$L183 (.IO_DRIVER_CODE:IO_ADC_SafetyInit2Mode)
00000120  local     $C$L184 (.IO_DRIVER_CODE:IO_ADC_SafetyInit2Mode)
00000150  local     $C$L185 (.IO_DRIVER_CODE:IO_ADC_SafetyInit2Mode)
00000178  local     $C$L186 (.IO_DRIVER_CODE:IO_ADC_SafetyInit2Mode)
000001a4  local     $C$L187 (.IO_DRIVER_CODE:IO_ADC_SafetyInit2Mode)
000000a4  local     $C$L188 (.IO_DRIVER_CODE:IO_ADC_Init2ModeType)
000000ec  local     $C$L189 (.IO_DRIVER_CODE:IO_ADC_Init2ModeType)
000bfcc0  local     $C$L19 (.IO_DRIVER_CODE:IO_ADC_Get1V2Supply)
00000104  local     $C$L190 (.IO_DRIVER_CODE:IO_ADC_Init2ModeType)
00000110  local     $C$L191 (.IO_DRIVER_CODE:IO_ADC_Init2ModeType)
00000150  local     $C$L192 (.IO_DRIVER_CODE:IO_ADC_Init2ModeType)
00000190  local     $C$L193 (.IO_DRIVER_CODE:IO_ADC_Init2ModeType)
000001c4  local     $C$L194 (.IO_DRIVER_CODE:IO_ADC_Init2ModeType)
000001d0  local     $C$L195 (.IO_DRIVER_CODE:IO_ADC_Init2ModeType)
00000250  local     $C$L196 (.IO_DRIVER_CODE:IO_ADC_Init2ModeType)
0000026c  local     $C$L197 (.IO_DRIVER_CODE:IO_ADC_Init2ModeType)
00000270  local     $C$L198 (.IO_DRIVER_CODE:IO_ADC_Init2ModeType)
00000274  local     $C$L199 (.IO_DRIVER_CODE:IO_ADC_Init2ModeType)
00000038  local     $C$L2 (.IO_DRIVER_CODE:IO_ADC_UpdateSSupVarLimit)
000bfcd0  local     $C$L20 (.IO_DRIVER_CODE:IO_ADC_Get1V2Supply)
00000048  local     $C$L200 (.IO_DRIVER_CODE:IO_ADC_DeInitDOHSType)
00000070  local     $C$L201 (.IO_DRIVER_CODE:IO_ADC_SafetyDeInit3Mode)
0000007c  local     $C$L202 (.IO_DRIVER_CODE:IO_ADC_SafetyDeInit3Mode)
00000080  local     $C$L203 (.IO_DRIVER_CODE:IO_ADC_SafetyDeInit3Mode)
000000ac  local     $C$L204 (.IO_DRIVER_CODE:IO_ADC_SafetyDeInit3Mode)
000000c8  local     $C$L205 (.IO_DRIVER_CODE:IO_ADC_SafetyDeInit3Mode)
000000e4  local     $C$L206 (.IO_DRIVER_CODE:IO_ADC_SafetyDeInit3Mode)
00000100  local     $C$L207 (.IO_DRIVER_CODE:IO_ADC_SafetyDeInit3Mode)
0000011c  local     $C$L208 (.IO_DRIVER_CODE:IO_ADC_SafetyDeInit3Mode)
00000138  local     $C$L209 (.IO_DRIVER_CODE:IO_ADC_SafetyDeInit3Mode)
000bfd1c  local     $C$L21 (.IO_DRIVER_CODE:IO_ADC_Get2V5Supply)
00000154  local     $C$L210 (.IO_DRIVER_CODE:IO_ADC_SafetyDeInit3Mode)
00000170  local     $C$L211 (.IO_DRIVER_CODE:IO_ADC_SafetyDeInit3Mode)
000001b0  local     $C$L212 (.IO_DRIVER_CODE:IO_ADC_SafetyDeInit3Mode)
000001dc  local     $C$L213 (.IO_DRIVER_CODE:IO_ADC_SafetyDeInit3Mode)
00000080  local     $C$L214 (.IO_DRIVER_CODE:IO_ADC_DeInit3ModeType)
00000088  local     $C$L215 (.IO_DRIVER_CODE:IO_ADC_DeInit3ModeType)
00000070  local     $C$L216 (.IO_DRIVER_CODE:IO_ADC_SafetyDeInit2Mode)
0000007c  local     $C$L217 (.IO_DRIVER_CODE:IO_ADC_SafetyDeInit2Mode)
00000080  local     $C$L218 (.IO_DRIVER_CODE:IO_ADC_SafetyDeInit2Mode)
000000a0  local     $C$L219 (.IO_DRIVER_CODE:IO_ADC_SafetyDeInit2Mode)
000bfdb0  local     $C$L22 (.IO_DRIVER_CODE:IO_ADC_GetSafetySwitch)
000000c0  local     $C$L220 (.IO_DRIVER_CODE:IO_ADC_SafetyDeInit2Mode)
000000e4  local     $C$L221 (.IO_DRIVER_CODE:IO_ADC_SafetyDeInit2Mode)
00000108  local     $C$L222 (.IO_DRIVER_CODE:IO_ADC_SafetyDeInit2Mode)
0000012c  local     $C$L223 (.IO_DRIVER_CODE:IO_ADC_SafetyDeInit2Mode)
00000180  local     $C$L224 (.IO_DRIVER_CODE:IO_ADC_SafetyDeInit2Mode)
000001ac  local     $C$L225 (.IO_DRIVER_CODE:IO_ADC_SafetyDeInit2Mode)
00000080  local     $C$L226 (.IO_DRIVER_CODE:IO_ADC_DeInit2ModeType)
00000088  local     $C$L227 (.IO_DRIVER_CODE:IO_ADC_DeInit2ModeType)
00000080  local     $C$L228 (.IO_DRIVER_CODE:IO_ADC_InitPWDType)
00000088  local     $C$L229 (.IO_DRIVER_CODE:IO_ADC_InitPWDType)
000bfdfc  local     $C$L23 (.IO_DRIVER_CODE:IO_ADC_GetSafetySwitch)
000000a0  local     $C$L230 (.IO_DRIVER_CODE:IO_ADC_InitPWDType)
000000a8  local     $C$L231 (.IO_DRIVER_CODE:IO_ADC_InitPWDType)
000000d8  local     $C$L232 (.IO_DRIVER_CODE:IO_ADC_InitPWDType)
000000e0  local     $C$L233 (.IO_DRIVER_CODE:IO_ADC_InitPWDType)
000000b4  local     $C$L234 (.IO_DRIVER_CODE:IO_ADC_CheckSafetyConf)
000000d4  local     $C$L235 (.IO_DRIVER_CODE:IO_ADC_CheckSafetyConf)
000000e0  local     $C$L236 (.IO_DRIVER_CODE:IO_ADC_CheckSafetyConf)
000000fc  local     $C$L237 (.IO_DRIVER_CODE:IO_ADC_CheckSafetyConf)
00000104  local     $C$L238 (.IO_DRIVER_CODE:IO_ADC_CheckSafetyConf)
00000108  local     $C$L239 (.IO_DRIVER_CODE:IO_ADC_CheckSafetyConf)
000bfe0c  local     $C$L24 (.IO_DRIVER_CODE:IO_ADC_GetSafetySwitch)
00000084  local     $C$L240 (.IO_DRIVER_CODE:IO_ADC_ChannelInit)
00000094  local     $C$L241 (.IO_DRIVER_CODE:IO_ADC_ChannelInit)
000000f4  local     $C$L242 (.IO_DRIVER_CODE:IO_ADC_ChannelInit)
0000011c  local     $C$L243 (.IO_DRIVER_CODE:IO_ADC_ChannelInit)
00000158  local     $C$L244 (.IO_DRIVER_CODE:IO_ADC_ChannelInit)
00000160  local     $C$L245 (.IO_DRIVER_CODE:IO_ADC_ChannelInit)
00000180  local     $C$L246 (.IO_DRIVER_CODE:IO_ADC_ChannelInit)
000001e0  local     $C$L247 (.IO_DRIVER_CODE:IO_ADC_ChannelInit)
00000220  local     $C$L248 (.IO_DRIVER_CODE:IO_ADC_ChannelInit)
00000270  local     $C$L249 (.IO_DRIVER_CODE:IO_ADC_ChannelInit)
000bfe20  local     $C$L25 (.IO_DRIVER_CODE:IO_ADC_GetSafetySwitch)
000002b0  local     $C$L250 (.IO_DRIVER_CODE:IO_ADC_ChannelInit)
00000320  local     $C$L251 (.IO_DRIVER_CODE:IO_ADC_ChannelInit)
00000334  local     $C$L252 (.IO_DRIVER_CODE:IO_ADC_ChannelInit)
00000340  local     $C$L253 (.IO_DRIVER_CODE:IO_ADC_ChannelInit)
0000038c  local     $C$L254 (.IO_DRIVER_CODE:IO_ADC_ChannelInit)
00000390  local     $C$L255 (.IO_DRIVER_CODE:IO_ADC_ChannelInit)
00000394  local     $C$L256 (.IO_DRIVER_CODE:IO_ADC_ChannelInit)
00000048  local     $C$L257 (.IO_DRIVER_CODE:IO_ADC_DeInitPWDType)
0000007c  local     $C$L258 (.IO_DRIVER_CODE:IO_ADC_ChannelDeInit)
000000ac  local     $C$L259 (.IO_DRIVER_CODE:IO_ADC_ChannelDeInit)
000bfe54  local     $C$L26 (.IO_DRIVER_CODE:IO_ADC_GetSafetySwitch)
000000c0  local     $C$L260 (.IO_DRIVER_CODE:IO_ADC_ChannelDeInit)
000000e0  local     $C$L261 (.IO_DRIVER_CODE:IO_ADC_ChannelDeInit)
00000100  local     $C$L262 (.IO_DRIVER_CODE:IO_ADC_ChannelDeInit)
00000120  local     $C$L263 (.IO_DRIVER_CODE:IO_ADC_ChannelDeInit)
00000140  local     $C$L264 (.IO_DRIVER_CODE:IO_ADC_ChannelDeInit)
00000160  local     $C$L265 (.IO_DRIVER_CODE:IO_ADC_ChannelDeInit)
0000017c  local     $C$L266 (.IO_DRIVER_CODE:IO_ADC_ChannelDeInit)
0000019c  local     $C$L267 (.IO_DRIVER_CODE:IO_ADC_ChannelDeInit)
000001a0  local     $C$L268 (.IO_DRIVER_CODE:IO_ADC_ChannelDeInit)
000bf560  local     $C$L269 (.IO_DRIVER_CODE:IO_ADC_CalcBatteryVoltage)
000bfeec  local     $C$L27 (.IO_DRIVER_CODE:IO_ADC_GetSensorSupply)
000bf578  local     $C$L270 (.IO_DRIVER_CODE:IO_ADC_CalcBatteryVoltage)
000bf590  local     $C$L271 (.IO_DRIVER_CODE:IO_ADC_CalcBatteryVoltage)
000bf5b8  local     $C$L272 (.IO_DRIVER_CODE:IO_ADC_CalcBatteryVoltage)
000bf4bc  local     $C$L273 (.IO_DRIVER_CODE:IO_ADC_Calc2V5RefSum)
000bff04  local     $C$L28 (.IO_DRIVER_CODE:IO_ADC_GetSensorSupply)
000bff20  local     $C$L29 (.IO_DRIVER_CODE:IO_ADC_GetSensorSupply)
000b9578  local     $C$L3 (.IO_DRIVER_CODE:IO_ADC_ReadValue)
000bff8c  local     $C$L30 (.IO_DRIVER_CODE:IO_ADC_GetSensorSupply)
000bff9c  local     $C$L31 (.IO_DRIVER_CODE:IO_ADC_GetSensorSupply)
000bffd0  local     $C$L32 (.IO_DRIVER_CODE:IO_ADC_GetSensorSupply)
000bfff8  local     $C$L33 (.IO_DRIVER_CODE:IO_ADC_GetSensorSupply)
000c003c  local     $C$L34 (.IO_DRIVER_CODE:IO_ADC_GetSensorSupply)
000c009c  local     $C$L35 (.IO_DRIVER_CODE:IO_ADC_GetTimerInThreshold)
000c010c  local     $C$L36 (.IO_DRIVER_CODE:IO_ADC_GetSSupMode)
000c0260  local     $C$L37 (.IO_DRIVER_CODE:IO_ADC_GetPVGType)
000c0298  local     $C$L38 (.IO_DRIVER_CODE:IO_ADC_GetPVGType)
000c02a0  local     $C$L39 (.IO_DRIVER_CODE:IO_ADC_GetPVGType)
000b9580  local     $C$L4 (.IO_DRIVER_CODE:IO_ADC_ReadValue)
000c02bc  local     $C$L40 (.IO_DRIVER_CODE:IO_ADC_GetPVGType)
000c02c4  local     $C$L41 (.IO_DRIVER_CODE:IO_ADC_GetPVGType)
000c02cc  local     $C$L42 (.IO_DRIVER_CODE:IO_ADC_GetPVGType)
000c0324  local     $C$L43 (.IO_DRIVER_CODE:IO_ADC_GetPVGType)
000c0328  local     $C$L44 (.IO_DRIVER_CODE:IO_ADC_GetPVGType)
000c0470  local     $C$L45 (.IO_DRIVER_CODE:IO_ADC_GetDOType)
000c04a8  local     $C$L46 (.IO_DRIVER_CODE:IO_ADC_GetDOType)
000c04b0  local     $C$L47 (.IO_DRIVER_CODE:IO_ADC_GetDOType)
000c04cc  local     $C$L48 (.IO_DRIVER_CODE:IO_ADC_GetDOType)
000c04d4  local     $C$L49 (.IO_DRIVER_CODE:IO_ADC_GetDOType)
000bf8e0  local     $C$L5 (.IO_DRIVER_CODE:IO_ADC_CalcBoardTemp)
000c04dc  local     $C$L50 (.IO_DRIVER_CODE:IO_ADC_GetDOType)
000c0534  local     $C$L51 (.IO_DRIVER_CODE:IO_ADC_GetDOType)
000c0538  local     $C$L52 (.IO_DRIVER_CODE:IO_ADC_GetDOType)
000c05a8  local     $C$L53 (.IO_DRIVER_CODE:IO_ADC_GetPWDType)
000c05b0  local     $C$L54 (.IO_DRIVER_CODE:IO_ADC_GetPWDType)
000c0668  local     $C$L55 (.IO_DRIVER_CODE:IO_ADC_GetPWDType)
000c06a0  local     $C$L56 (.IO_DRIVER_CODE:IO_ADC_GetPWDType)
000c06a8  local     $C$L57 (.IO_DRIVER_CODE:IO_ADC_GetPWDType)
000c06c4  local     $C$L58 (.IO_DRIVER_CODE:IO_ADC_GetPWDType)
000c0728  local     $C$L59 (.IO_DRIVER_CODE:IO_ADC_GetPWDType)
000bf90c  local     $C$L6 (.IO_DRIVER_CODE:IO_ADC_CalcBoardTemp)
000c072c  local     $C$L60 (.IO_DRIVER_CODE:IO_ADC_GetPWDType)
000c08d0  local     $C$L61 (.IO_DRIVER_CODE:IO_ADC_Get2ModeType_Int)
000c0900  local     $C$L62 (.IO_DRIVER_CODE:IO_ADC_Get2ModeType_Int)
000c0928  local     $C$L63 (.IO_DRIVER_CODE:IO_ADC_Get2ModeType_Int)
000c0964  local     $C$L64 (.IO_DRIVER_CODE:IO_ADC_Get2ModeType_Int)
000c0970  local     $C$L65 (.IO_DRIVER_CODE:IO_ADC_Get2ModeType_Int)
000c09a0  local     $C$L66 (.IO_DRIVER_CODE:IO_ADC_Get2ModeType_Int)
000c09d0  local     $C$L67 (.IO_DRIVER_CODE:IO_ADC_Get2ModeType_Int)
000c09f4  local     $C$L68 (.IO_DRIVER_CODE:IO_ADC_Get2ModeType_Int)
000c09fc  local     $C$L69 (.IO_DRIVER_CODE:IO_ADC_Get2ModeType_Int)
000bf9d0  local     $C$L7 (.IO_DRIVER_CODE:IO_ADC_CalcBoardTemp)
000c0a20  local     $C$L70 (.IO_DRIVER_CODE:IO_ADC_Get2ModeType_Int)
000c0a70  local     $C$L71 (.IO_DRIVER_CODE:IO_ADC_Get2ModeType_Int)
000c0aa4  local     $C$L72 (.IO_DRIVER_CODE:IO_ADC_Get2ModeType_Int)
000c0aa8  local     $C$L73 (.IO_DRIVER_CODE:IO_ADC_Get2ModeType_Int)
000c0ac0  local     $C$L74 (.IO_DRIVER_CODE:IO_ADC_Get2ModeType_Int)
000c0b40  local     $C$L75 (.IO_DRIVER_CODE:IO_ADC_Get2ModeType_Int)
000c0b70  local     $C$L76 (.IO_DRIVER_CODE:IO_ADC_Get2ModeType_Int)
000c0b94  local     $C$L77 (.IO_DRIVER_CODE:IO_ADC_Get2ModeType_Int)
000c0b9c  local     $C$L78 (.IO_DRIVER_CODE:IO_ADC_Get2ModeType_Int)
000c0bbc  local     $C$L79 (.IO_DRIVER_CODE:IO_ADC_Get2ModeType_Int)
000bfa98  local     $C$L8 (.IO_DRIVER_CODE:IO_ADC_CalcBoardTemp)
000c0c14  local     $C$L80 (.IO_DRIVER_CODE:IO_ADC_Get2ModeType)
000c0c20  local     $C$L81 (.IO_DRIVER_CODE:IO_ADC_Get2ModeType)
000c0c60  local     $C$L82 (.IO_DRIVER_CODE:IO_ADC_Get2ModeType)
000c0c74  local     $C$L83 (.IO_DRIVER_CODE:IO_ADC_Get2ModeType)
000c0c84  local     $C$L84 (.IO_DRIVER_CODE:IO_ADC_Get2ModeType)
000c0c90  local     $C$L85 (.IO_DRIVER_CODE:IO_ADC_Get2ModeType)
000c0c98  local     $C$L86 (.IO_DRIVER_CODE:IO_ADC_Get2ModeType)
000c0dcc  local     $C$L87 (.IO_DRIVER_CODE:IO_ADC_Get3ModeType)
000c0dd8  local     $C$L88 (.IO_DRIVER_CODE:IO_ADC_Get3ModeType)
000c0de0  local     $C$L89 (.IO_DRIVER_CODE:IO_ADC_Get3ModeType)
000bfaa0  local     $C$L9 (.IO_DRIVER_CODE:IO_ADC_CalcBoardTemp)
000c0e9c  local     $C$L90 (.IO_DRIVER_CODE:IO_ADC_Get3ModeType)
000c0ed4  local     $C$L91 (.IO_DRIVER_CODE:IO_ADC_Get3ModeType)
000c0edc  local     $C$L92 (.IO_DRIVER_CODE:IO_ADC_Get3ModeType)
000c0f14  local     $C$L93 (.IO_DRIVER_CODE:IO_ADC_Get3ModeType)
000c0f2c  local     $C$L94 (.IO_DRIVER_CODE:IO_ADC_Get3ModeType)
000c0f34  local     $C$L95 (.IO_DRIVER_CODE:IO_ADC_Get3ModeType)
000c0fb0  local     $C$L96 (.IO_DRIVER_CODE:IO_ADC_Get3ModeType)
000c0ff4  local     $C$L97 (.IO_DRIVER_CODE:IO_ADC_Get3ModeType)
000c1010  local     $C$L98 (.IO_DRIVER_CODE:IO_ADC_Get3ModeType)
000c1038  local     $C$L99 (.IO_DRIVER_CODE:IO_ADC_Get3ModeType)
000b3430  local     $a (.IO_DRIVER_CODE:IO_ADC_VariantInit)
00000000  local     $a (.IO_DRIVER_CODE:IO_ADC_UpdateSSupVarLimit)
000b9530  local     $a (.IO_DRIVER_CODE:IO_ADC_ReadValue)
000b9630  local     $a (.IO_DRIVER_CODE:IO_ADC_Read2V5RefSum)
000bf880  local     $a (.IO_DRIVER_CODE:IO_ADC_CalcBoardTemp)
000bf950  local     $a (.IO_DRIVER_CODE:IO_ADC_CalcBoardTemp)
000bfa20  local     $a (.IO_DRIVER_CODE:IO_ADC_CalcBoardTemp)
000bfae0  local     $a (.IO_DRIVER_CODE:IO_ADC_GetVPGate)
000bfb48  local     $a (.IO_DRIVER_CODE:IO_ADC_GetVPGate)
000bfb80  local     $a (.IO_DRIVER_CODE:IO_ADC_GetVP)
000bfc08  local     $a (.IO_DRIVER_CODE:IO_ADC_GetVP)
000bfc30  local     $a (.IO_DRIVER_CODE:IO_ADC_Get1V2Supply)
000bfca4  local     $a (.IO_DRIVER_CODE:IO_ADC_Get1V2Supply)
000bfce0  local     $a (.IO_DRIVER_CODE:IO_ADC_Get2V5Supply)
000bfd40  local     $a (.IO_DRIVER_CODE:IO_ADC_GetSafetySwitch)
000bfdf8  local     $a (.IO_DRIVER_CODE:IO_ADC_GetSafetySwitch)
000bfe60  local     $a (.IO_DRIVER_CODE:IO_ADC_GetSensorSupply)
000bfee8  local     $a (.IO_DRIVER_CODE:IO_ADC_GetSensorSupply)
000bff88  local     $a (.IO_DRIVER_CODE:IO_ADC_GetSensorSupply)
000c0038  local     $a (.IO_DRIVER_CODE:IO_ADC_GetSensorSupply)
000c0060  local     $a (.IO_DRIVER_CODE:IO_ADC_GetTimerInThreshold)
000c00c0  local     $a (.IO_DRIVER_CODE:IO_ADC_GetSSupMode)
000c0120  local     $a (.IO_DRIVER_CODE:IO_ADC_GetPVGType)
000c0258  local     $a (.IO_DRIVER_CODE:IO_ADC_GetPVGType)
000c0290  local     $a (.IO_DRIVER_CODE:IO_ADC_GetPVGType)
000c0308  local     $a (.IO_DRIVER_CODE:IO_ADC_GetPVGType)
000c0330  local     $a (.IO_DRIVER_CODE:IO_ADC_GetDOType)
000c0468  local     $a (.IO_DRIVER_CODE:IO_ADC_GetDOType)
000c04a0  local     $a (.IO_DRIVER_CODE:IO_ADC_GetDOType)
000c0518  local     $a (.IO_DRIVER_CODE:IO_ADC_GetDOType)
000c0540  local     $a (.IO_DRIVER_CODE:IO_ADC_GetPWDType)
000c0660  local     $a (.IO_DRIVER_CODE:IO_ADC_GetPWDType)
000c0698  local     $a (.IO_DRIVER_CODE:IO_ADC_GetPWDType)
000c070c  local     $a (.IO_DRIVER_CODE:IO_ADC_GetPWDType)
000c0740  local     $a (.IO_DRIVER_CODE:IO_ADC_SafetyStep2Mode)
000c0790  local     $a (.IO_DRIVER_CODE:IO_ADC_Get2ModeType_Int)
000c08c8  local     $a (.IO_DRIVER_CODE:IO_ADC_Get2ModeType_Int)
000c08f0  local     $a (.IO_DRIVER_CODE:IO_ADC_Get2ModeType_Int)
000c0920  local     $a (.IO_DRIVER_CODE:IO_ADC_Get2ModeType_Int)
000c098c  local     $a (.IO_DRIVER_CODE:IO_ADC_Get2ModeType_Int)
000c09bc  local     $a (.IO_DRIVER_CODE:IO_ADC_Get2ModeType_Int)
000c09ec  local     $a (.IO_DRIVER_CODE:IO_ADC_Get2ModeType_Int)
000c0a94  local     $a (.IO_DRIVER_CODE:IO_ADC_Get2ModeType_Int)
000c0b2c  local     $a (.IO_DRIVER_CODE:IO_ADC_Get2ModeType_Int)
000c0b5c  local     $a (.IO_DRIVER_CODE:IO_ADC_Get2ModeType_Int)
000c0b8c  local     $a (.IO_DRIVER_CODE:IO_ADC_Get2ModeType_Int)
000c0bd0  local     $a (.IO_DRIVER_CODE:IO_ADC_Get2ModeType)
000c0ca0  local     $a (.IO_DRIVER_CODE:IO_ADC_SafetyStep3Mode)
000c0d00  local     $a (.IO_DRIVER_CODE:IO_ADC_Get3ModeType)
000c0e94  local     $a (.IO_DRIVER_CODE:IO_ADC_Get3ModeType)
000c0ecc  local     $a (.IO_DRIVER_CODE:IO_ADC_Get3ModeType)
000c0f8c  local     $a (.IO_DRIVER_CODE:IO_ADC_Get3ModeType)
000c1028  local     $a (.IO_DRIVER_CODE:IO_ADC_Get3ModeType)
000c10d0  local     $a (.IO_DRIVER_CODE:IO_ADC_Get3ModeType)
000c1120  local     $a (.IO_DRIVER_CODE:IO_ADC_Get)
000c12f4  local     $a (.IO_DRIVER_CODE:IO_ADC_Get)
000c1390  local     $a (.IO_DRIVER_CODE:IO_ADC_GetExtShutOff)
000c1490  local     $a (.IO_DRIVER_CODE:IO_ADC_SystemTask)
000b5450  local     $a (.IO_DRIVER_CODE:IO_ADC_StatusInit)
00000000  local     $a (.IO_DRIVER_CODE:IO_ADC_ResetProtection)
000c50b0  local     $a (.IO_DRIVER_CODE:IO_ADC_ProtectionTask)
000bec50  local     $a (.IO_DRIVER_CODE:IO_ADC_QueueSlow)
000becc0  local     $a (.IO_DRIVER_CODE:IO_ADC_QueueFast)
000bed00  local     $a (.IO_DRIVER_CODE:IO_ADC_N2HET2_interrupt)
000bed70  local     $a (.IO_DRIVER_CODE:IO_ADC_N2HET2_ISR)
00000000  local     $a (.IO_DRIVER_CODE:IO_ADC_InitPVGType)
00000000  local     $a (.IO_DRIVER_CODE:IO_ADC_InitDOLSType)
00000000  local     $a (.IO_DRIVER_CODE:IO_ADC_InitDOHSType)
00000000  local     $a (.IO_DRIVER_CODE:IO_ADC_SafetyInit3Mode)
00000000  local     $a (.IO_DRIVER_CODE:IO_ADC_Init3ModeType)
00000000  local     $a (.IO_DRIVER_CODE:IO_ADC_SafetyInit2Mode)
00000000  local     $a (.IO_DRIVER_CODE:IO_ADC_Init2ModeType)
00000000  local     $a (.IO_DRIVER_CODE:IO_ADC_DeInitPVGType)
00000000  local     $a (.IO_DRIVER_CODE:IO_ADC_DeInitDOHSType)
00000000  local     $a (.IO_DRIVER_CODE:IO_ADC_SafetyDeInit3Mode)
00000000  local     $a (.IO_DRIVER_CODE:IO_ADC_DeInit3ModeType)
00000000  local     $a (.IO_DRIVER_CODE:IO_ADC_SafetyDeInit2Mode)
00000000  local     $a (.IO_DRIVER_CODE:IO_ADC_DeInit2ModeType)
00000000  local     $a (.IO_DRIVER_CODE:IO_ADC_InitPWDType)
00000000  local     $a (.IO_DRIVER_CODE:IO_ADC_CheckSafetyConf)
00000000  local     $a (.IO_DRIVER_CODE:IO_ADC_ChannelInit)
00000000  local     $a (.IO_DRIVER_CODE:IO_ADC_DeInitPWDType)
00000000  local     $a (.IO_DRIVER_CODE:IO_ADC_ChannelDeInit)
000bf4e0  local     $a (.IO_DRIVER_CODE:IO_ADC_CalcBatteryVoltage)
000bf55c  local     $a (.IO_DRIVER_CODE:IO_ADC_CalcBatteryVoltage)
000bf430  local     $a (.IO_DRIVER_CODE:IO_ADC_Calc2V5RefSum)
00000000  local     $a (.IO_DRIVER_CODE:IO_ADC_BoardTempSbyte)
00000000  local     $a (.IO_DRIVER_CODE:IO_ADC_BoardTempFloat)
0803dbf4  local     $d (.IO_DRIVER_DATA_NORMAL:init)
0803dc06  local     $d (.IO_DRIVER_DATA_NORMAL:init)
0803dc08  local     $d (.IO_DRIVER_DATA_NORMAL:init)
0803dc09  local     $d (.IO_DRIVER_DATA_NORMAL:init)
000caf94  local     $d (.IO_DRIVER_CONST)
000cafa8  local     $d (.IO_DRIVER_CONST)
000cafee  local     $d (.IO_DRIVER_CONST)
0803d2c4  local     $d (.IO_DRIVER_DATA_NORMAL:uninit)
000bf948  local     $t (.IO_DRIVER_CODE:IO_ADC_CalcBoardTemp)
000bfa18  local     $t (.IO_DRIVER_CODE:IO_ADC_CalcBoardTemp)
000bfb40  local     $t (.IO_DRIVER_CODE:IO_ADC_GetVPGate)
000bfc00  local     $t (.IO_DRIVER_CODE:IO_ADC_GetVP)
000bfc9c  local     $t (.IO_DRIVER_CODE:IO_ADC_Get1V2Supply)
000bfdf0  local     $t (.IO_DRIVER_CODE:IO_ADC_GetSafetySwitch)
000bfee0  local     $t (.IO_DRIVER_CODE:IO_ADC_GetSensorSupply)
000bff80  local     $t (.IO_DRIVER_CODE:IO_ADC_GetSensorSupply)
000c0030  local     $t (.IO_DRIVER_CODE:IO_ADC_GetSensorSupply)
000c0250  local     $t (.IO_DRIVER_CODE:IO_ADC_GetPVGType)
000c0288  local     $t (.IO_DRIVER_CODE:IO_ADC_GetPVGType)
000c0300  local     $t (.IO_DRIVER_CODE:IO_ADC_GetPVGType)
000c0460  local     $t (.IO_DRIVER_CODE:IO_ADC_GetDOType)
000c0498  local     $t (.IO_DRIVER_CODE:IO_ADC_GetDOType)
000c0510  local     $t (.IO_DRIVER_CODE:IO_ADC_GetDOType)
000c0658  local     $t (.IO_DRIVER_CODE:IO_ADC_GetPWDType)
000c0690  local     $t (.IO_DRIVER_CODE:IO_ADC_GetPWDType)
000c0704  local     $t (.IO_DRIVER_CODE:IO_ADC_GetPWDType)
000c08c0  local     $t (.IO_DRIVER_CODE:IO_ADC_Get2ModeType_Int)
000c08e8  local     $t (.IO_DRIVER_CODE:IO_ADC_Get2ModeType_Int)
000c0918  local     $t (.IO_DRIVER_CODE:IO_ADC_Get2ModeType_Int)
000c0984  local     $t (.IO_DRIVER_CODE:IO_ADC_Get2ModeType_Int)
000c09b4  local     $t (.IO_DRIVER_CODE:IO_ADC_Get2ModeType_Int)
000c09e4  local     $t (.IO_DRIVER_CODE:IO_ADC_Get2ModeType_Int)
000c0a8c  local     $t (.IO_DRIVER_CODE:IO_ADC_Get2ModeType_Int)
000c0b24  local     $t (.IO_DRIVER_CODE:IO_ADC_Get2ModeType_Int)
000c0b54  local     $t (.IO_DRIVER_CODE:IO_ADC_Get2ModeType_Int)
000c0b84  local     $t (.IO_DRIVER_CODE:IO_ADC_Get2ModeType_Int)
000c0e8c  local     $t (.IO_DRIVER_CODE:IO_ADC_Get3ModeType)
000c0ec4  local     $t (.IO_DRIVER_CODE:IO_ADC_Get3ModeType)
000c0f84  local     $t (.IO_DRIVER_CODE:IO_ADC_Get3ModeType)
000c1020  local     $t (.IO_DRIVER_CODE:IO_ADC_Get3ModeType)
000c10c8  local     $t (.IO_DRIVER_CODE:IO_ADC_Get3ModeType)
000c12ec  local     $t (.IO_DRIVER_CODE:IO_ADC_Get)
000bf554  local     $t (.IO_DRIVER_CODE:IO_ADC_CalcBatteryVoltage)
00000000  local     .IO_DRIVER_CODE:IO_ADC_BoardTempFloat (.IO_DRIVER_CODE:IO_ADC_BoardTempFloat)
00000000  local     .IO_DRIVER_CODE:IO_ADC_BoardTempSbyte (.IO_DRIVER_CODE:IO_ADC_BoardTempSbyte)
000bf430  local     .IO_DRIVER_CODE:IO_ADC_Calc2V5RefSum (.IO_DRIVER_CODE:IO_ADC_Calc2V5RefSum)
000bf4e0  local     .IO_DRIVER_CODE:IO_ADC_CalcBatteryVoltage (.IO_DRIVER_CODE:IO_ADC_CalcBatteryVoltage)
000bf880  local     .IO_DRIVER_CODE:IO_ADC_CalcBoardTemp (.IO_DRIVER_CODE:IO_ADC_CalcBoardTemp)
00000000  local     .IO_DRIVER_CODE:IO_ADC_ChannelDeInit (.IO_DRIVER_CODE:IO_ADC_ChannelDeInit)
00000000  local     .IO_DRIVER_CODE:IO_ADC_ChannelInit (.IO_DRIVER_CODE:IO_ADC_ChannelInit)
00000000  local     .IO_DRIVER_CODE:IO_ADC_CheckSafetyConf (.IO_DRIVER_CODE:IO_ADC_CheckSafetyConf)
00000000  local     .IO_DRIVER_CODE:IO_ADC_DeInit2ModeType (.IO_DRIVER_CODE:IO_ADC_DeInit2ModeType)
00000000  local     .IO_DRIVER_CODE:IO_ADC_DeInit3ModeType (.IO_DRIVER_CODE:IO_ADC_DeInit3ModeType)
00000000  local     .IO_DRIVER_CODE:IO_ADC_DeInitDOHSType (.IO_DRIVER_CODE:IO_ADC_DeInitDOHSType)
00000000  local     .IO_DRIVER_CODE:IO_ADC_DeInitPVGType (.IO_DRIVER_CODE:IO_ADC_DeInitPVGType)
00000000  local     .IO_DRIVER_CODE:IO_ADC_DeInitPWDType (.IO_DRIVER_CODE:IO_ADC_DeInitPWDType)
000c1120  local     .IO_DRIVER_CODE:IO_ADC_Get (.IO_DRIVER_CODE:IO_ADC_Get)
000bfc30  local     .IO_DRIVER_CODE:IO_ADC_Get1V2Supply (.IO_DRIVER_CODE:IO_ADC_Get1V2Supply)
000c0bd0  local     .IO_DRIVER_CODE:IO_ADC_Get2ModeType (.IO_DRIVER_CODE:IO_ADC_Get2ModeType)
000c0790  local     .IO_DRIVER_CODE:IO_ADC_Get2ModeType_Int (.IO_DRIVER_CODE:IO_ADC_Get2ModeType_Int)
000bfce0  local     .IO_DRIVER_CODE:IO_ADC_Get2V5Supply (.IO_DRIVER_CODE:IO_ADC_Get2V5Supply)
000c0d00  local     .IO_DRIVER_CODE:IO_ADC_Get3ModeType (.IO_DRIVER_CODE:IO_ADC_Get3ModeType)
000c0330  local     .IO_DRIVER_CODE:IO_ADC_GetDOType (.IO_DRIVER_CODE:IO_ADC_GetDOType)
000c1390  local     .IO_DRIVER_CODE:IO_ADC_GetExtShutOff (.IO_DRIVER_CODE:IO_ADC_GetExtShutOff)
000c0120  local     .IO_DRIVER_CODE:IO_ADC_GetPVGType (.IO_DRIVER_CODE:IO_ADC_GetPVGType)
000c0540  local     .IO_DRIVER_CODE:IO_ADC_GetPWDType (.IO_DRIVER_CODE:IO_ADC_GetPWDType)
000c00c0  local     .IO_DRIVER_CODE:IO_ADC_GetSSupMode (.IO_DRIVER_CODE:IO_ADC_GetSSupMode)
000bfd40  local     .IO_DRIVER_CODE:IO_ADC_GetSafetySwitch (.IO_DRIVER_CODE:IO_ADC_GetSafetySwitch)
000bfe60  local     .IO_DRIVER_CODE:IO_ADC_GetSensorSupply (.IO_DRIVER_CODE:IO_ADC_GetSensorSupply)
000c0060  local     .IO_DRIVER_CODE:IO_ADC_GetTimerInThreshold (.IO_DRIVER_CODE:IO_ADC_GetTimerInThreshold)
000bfb80  local     .IO_DRIVER_CODE:IO_ADC_GetVP (.IO_DRIVER_CODE:IO_ADC_GetVP)
000bfae0  local     .IO_DRIVER_CODE:IO_ADC_GetVPGate (.IO_DRIVER_CODE:IO_ADC_GetVPGate)
00000000  local     .IO_DRIVER_CODE:IO_ADC_Init2ModeType (.IO_DRIVER_CODE:IO_ADC_Init2ModeType)
00000000  local     .IO_DRIVER_CODE:IO_ADC_Init3ModeType (.IO_DRIVER_CODE:IO_ADC_Init3ModeType)
00000000  local     .IO_DRIVER_CODE:IO_ADC_InitDOHSType (.IO_DRIVER_CODE:IO_ADC_InitDOHSType)
00000000  local     .IO_DRIVER_CODE:IO_ADC_InitDOLSType (.IO_DRIVER_CODE:IO_ADC_InitDOLSType)
00000000  local     .IO_DRIVER_CODE:IO_ADC_InitPVGType (.IO_DRIVER_CODE:IO_ADC_InitPVGType)
00000000  local     .IO_DRIVER_CODE:IO_ADC_InitPWDType (.IO_DRIVER_CODE:IO_ADC_InitPWDType)
000bed70  local     .IO_DRIVER_CODE:IO_ADC_N2HET2_ISR (.IO_DRIVER_CODE:IO_ADC_N2HET2_ISR)
000bed00  local     .IO_DRIVER_CODE:IO_ADC_N2HET2_interrupt (.IO_DRIVER_CODE:IO_ADC_N2HET2_interrupt)
000c50b0  local     .IO_DRIVER_CODE:IO_ADC_ProtectionTask (.IO_DRIVER_CODE:IO_ADC_ProtectionTask)
000becc0  local     .IO_DRIVER_CODE:IO_ADC_QueueFast (.IO_DRIVER_CODE:IO_ADC_QueueFast)
000bec50  local     .IO_DRIVER_CODE:IO_ADC_QueueSlow (.IO_DRIVER_CODE:IO_ADC_QueueSlow)
000b9630  local     .IO_DRIVER_CODE:IO_ADC_Read2V5RefSum (.IO_DRIVER_CODE:IO_ADC_Read2V5RefSum)
000b9530  local     .IO_DRIVER_CODE:IO_ADC_ReadValue (.IO_DRIVER_CODE:IO_ADC_ReadValue)
00000000  local     .IO_DRIVER_CODE:IO_ADC_ResetProtection (.IO_DRIVER_CODE:IO_ADC_ResetProtection)
00000000  local     .IO_DRIVER_CODE:IO_ADC_SafetyDeInit2Mode (.IO_DRIVER_CODE:IO_ADC_SafetyDeInit2Mode)
00000000  local     .IO_DRIVER_CODE:IO_ADC_SafetyDeInit3Mode (.IO_DRIVER_CODE:IO_ADC_SafetyDeInit3Mode)
00000000  local     .IO_DRIVER_CODE:IO_ADC_SafetyInit2Mode (.IO_DRIVER_CODE:IO_ADC_SafetyInit2Mode)
00000000  local     .IO_DRIVER_CODE:IO_ADC_SafetyInit3Mode (.IO_DRIVER_CODE:IO_ADC_SafetyInit3Mode)
000c0740  local     .IO_DRIVER_CODE:IO_ADC_SafetyStep2Mode (.IO_DRIVER_CODE:IO_ADC_SafetyStep2Mode)
000c0ca0  local     .IO_DRIVER_CODE:IO_ADC_SafetyStep3Mode (.IO_DRIVER_CODE:IO_ADC_SafetyStep3Mode)
000b5450  local     .IO_DRIVER_CODE:IO_ADC_StatusInit (.IO_DRIVER_CODE:IO_ADC_StatusInit)
000c1490  local     .IO_DRIVER_CODE:IO_ADC_SystemTask (.IO_DRIVER_CODE:IO_ADC_SystemTask)
00000000  local     .IO_DRIVER_CODE:IO_ADC_UpdateSSupVarLimit (.IO_DRIVER_CODE:IO_ADC_UpdateSSupVarLimit)
000b3430  local     .IO_DRIVER_CODE:IO_ADC_VariantInit (.IO_DRIVER_CODE:IO_ADC_VariantInit)
000caf94  local     .IO_DRIVER_CONST (.IO_DRIVER_CONST)
0803dbf4  local     .IO_DRIVER_DATA_NORMAL:init (.IO_DRIVER_DATA_NORMAL:init)
0803d2c4  local     .IO_DRIVER_DATA_NORMAL:uninit (.IO_DRIVER_DATA_NORMAL:uninit)
00000000  local     .text (.text)
00000000  global    IO_ADC_BoardTempFloat (.IO_DRIVER_CODE:IO_ADC_BoardTempFloat)
00000000  global    IO_ADC_BoardTempSbyte (.IO_DRIVER_CODE:IO_ADC_BoardTempSbyte)
000bf430  global    IO_ADC_Calc2V5RefSum (.IO_DRIVER_CODE:IO_ADC_Calc2V5RefSum)
000bf4e0  global    IO_ADC_CalcBatteryVoltage (.IO_DRIVER_CODE:IO_ADC_CalcBatteryVoltage)
000bf880  local     IO_ADC_CalcBoardTemp (.IO_DRIVER_CODE:IO_ADC_CalcBoardTemp)
00000000  global    IO_ADC_ChannelDeInit (.IO_DRIVER_CODE:IO_ADC_ChannelDeInit)
00000000  global    IO_ADC_ChannelInit (.IO_DRIVER_CODE:IO_ADC_ChannelInit)
00000000  local     IO_ADC_CheckSafetyConf (.IO_DRIVER_CODE:IO_ADC_CheckSafetyConf)
00000000  global    IO_ADC_DeInit2ModeType (.IO_DRIVER_CODE:IO_ADC_DeInit2ModeType)
00000000  global    IO_ADC_DeInit3ModeType (.IO_DRIVER_CODE:IO_ADC_DeInit3ModeType)
00000000  global    IO_ADC_DeInitDOHSType (.IO_DRIVER_CODE:IO_ADC_DeInitDOHSType)
00000000  global    IO_ADC_DeInitPVGType (.IO_DRIVER_CODE:IO_ADC_DeInitPVGType)
00000000  local     IO_ADC_DeInitPWDType (.IO_DRIVER_CODE:IO_ADC_DeInitPWDType)
000c1120  global    IO_ADC_Get (.IO_DRIVER_CODE:IO_ADC_Get)
000bfc30  local     IO_ADC_Get1V2Supply (.IO_DRIVER_CODE:IO_ADC_Get1V2Supply)
000c0bd0  global    IO_ADC_Get2ModeType (.IO_DRIVER_CODE:IO_ADC_Get2ModeType)
000c0790  local     IO_ADC_Get2ModeType_Int (.IO_DRIVER_CODE:IO_ADC_Get2ModeType_Int)
000bfce0  local     IO_ADC_Get2V5Supply (.IO_DRIVER_CODE:IO_ADC_Get2V5Supply)
000c0d00  global    IO_ADC_Get3ModeType (.IO_DRIVER_CODE:IO_ADC_Get3ModeType)
000c0330  global    IO_ADC_GetDOType (.IO_DRIVER_CODE:IO_ADC_GetDOType)
000c1390  local     IO_ADC_GetExtShutOff (.IO_DRIVER_CODE:IO_ADC_GetExtShutOff)
000c0120  global    IO_ADC_GetPVGType (.IO_DRIVER_CODE:IO_ADC_GetPVGType)
000c0540  local     IO_ADC_GetPWDType (.IO_DRIVER_CODE:IO_ADC_GetPWDType)
000c00c0  global    IO_ADC_GetSSupMode (.IO_DRIVER_CODE:IO_ADC_GetSSupMode)
000bfd40  local     IO_ADC_GetSafetySwitch (.IO_DRIVER_CODE:IO_ADC_GetSafetySwitch)
000bfe60  local     IO_ADC_GetSensorSupply (.IO_DRIVER_CODE:IO_ADC_GetSensorSupply)
000c0060  local     IO_ADC_GetTimerInThreshold (.IO_DRIVER_CODE:IO_ADC_GetTimerInThreshold)
000bfb80  local     IO_ADC_GetVP (.IO_DRIVER_CODE:IO_ADC_GetVP)
000bfae0  local     IO_ADC_GetVPGate (.IO_DRIVER_CODE:IO_ADC_GetVPGate)
00000000  global    IO_ADC_Init2ModeType (.IO_DRIVER_CODE:IO_ADC_Init2ModeType)
00000000  global    IO_ADC_Init3ModeType (.IO_DRIVER_CODE:IO_ADC_Init3ModeType)
00000000  global    IO_ADC_InitDOHSType (.IO_DRIVER_CODE:IO_ADC_InitDOHSType)
00000000  global    IO_ADC_InitDOLSType (.IO_DRIVER_CODE:IO_ADC_InitDOLSType)
00000000  global    IO_ADC_InitPVGType (.IO_DRIVER_CODE:IO_ADC_InitPVGType)
00000000  local     IO_ADC_InitPWDType (.IO_DRIVER_CODE:IO_ADC_InitPWDType)
000bed70  global    IO_ADC_N2HET2_ISR (.IO_DRIVER_CODE:IO_ADC_N2HET2_ISR)
000bed00  local     IO_ADC_N2HET2_interrupt (.IO_DRIVER_CODE:IO_ADC_N2HET2_interrupt)
000c50b0  global    IO_ADC_ProtectionTask (.IO_DRIVER_CODE:IO_ADC_ProtectionTask)
000becc0  local     IO_ADC_QueueFast (.IO_DRIVER_CODE:IO_ADC_QueueFast)
000bec50  local     IO_ADC_QueueSlow (.IO_DRIVER_CODE:IO_ADC_QueueSlow)
000b9630  global    IO_ADC_Read2V5RefSum (.IO_DRIVER_CODE:IO_ADC_Read2V5RefSum)
000b9530  global    IO_ADC_ReadValue (.IO_DRIVER_CODE:IO_ADC_ReadValue)
00000000  global    IO_ADC_ResetProtection (.IO_DRIVER_CODE:IO_ADC_ResetProtection)
00000000  local     IO_ADC_SafetyDeInit2Mode (.IO_DRIVER_CODE:IO_ADC_SafetyDeInit2Mode)
00000000  local     IO_ADC_SafetyDeInit3Mode (.IO_DRIVER_CODE:IO_ADC_SafetyDeInit3Mode)
00000000  local     IO_ADC_SafetyInit2Mode (.IO_DRIVER_CODE:IO_ADC_SafetyInit2Mode)
00000000  local     IO_ADC_SafetyInit3Mode (.IO_DRIVER_CODE:IO_ADC_SafetyInit3Mode)
000c0740  local     IO_ADC_SafetyStep2Mode (.IO_DRIVER_CODE:IO_ADC_SafetyStep2Mode)
000c0ca0  local     IO_ADC_SafetyStep3Mode (.IO_DRIVER_CODE:IO_ADC_SafetyStep3Mode)
000b5450  global    IO_ADC_StatusInit (.IO_DRIVER_CODE:IO_ADC_StatusInit)
000c1490  global    IO_ADC_SystemTask (.IO_DRIVER_CODE:IO_ADC_SystemTask)
00000000  global    IO_ADC_UpdateSSupVarLimit (.IO_DRIVER_CODE:IO_ADC_UpdateSSupVarLimit)
000b3430  global    IO_ADC_VariantInit (.IO_DRIVER_CODE:IO_ADC_VariantInit)
000cafee  local     adc_ssup_var_table (.IO_DRIVER_CONST)
000cafa8  local     adc_temp_table_kty82_210 (.IO_DRIVER_CONST)
000caf94  local     adc_temp_table_lm94022 (.IO_DRIVER_CONST)
0803dc06  local     io_adc_ssup_var_min (.IO_DRIVER_DATA_NORMAL:init)
0803d2c4  global    io_adc_stat_tb (.IO_DRIVER_DATA_NORMAL:uninit)
0803dbf4  global    io_int_adc_stat_tb (.IO_DRIVER_DATA_NORMAL:init)
0803dc09  global    variant_option_KL30VP_ADC (.IO_DRIVER_DATA_NORMAL:init)
0803dc08  local     variant_option_temp_sensor (.IO_DRIVER_DATA_NORMAL:init)


================================================================================

ttc500.lib : drv_IO_DIO.obj

Run/Load            
Value     Binding   Name (Section)
--------  --------  ---------------
000b0f60  local     $C$L1 (.IO_DRIVER_CODE:IO_DO_WriteOutput)
000b10a4  local     $C$L10 (.IO_DRIVER_CODE:IO_DO_WriteOutput)
000c4db0  local     $C$L100 (.IO_DRIVER_CODE:IO_DO_ProtectionTask)
000c4dcc  local     $C$L101 (.IO_DRIVER_CODE:IO_DO_ProtectionTask)
000c4de0  local     $C$L102 (.IO_DRIVER_CODE:IO_DO_ProtectionTask)
000c4e10  local     $C$L103 (.IO_DRIVER_CODE:IO_DO_ProtectionTask)
000c4e38  local     $C$L104 (.IO_DRIVER_CODE:IO_DO_ProtectionTask)
000c4e44  local     $C$L105 (.IO_DRIVER_CODE:IO_DO_ProtectionTask)
000c4e48  local     $C$L106 (.IO_DRIVER_CODE:IO_DO_ProtectionTask)
000c4e4c  local     $C$L107 (.IO_DRIVER_CODE:IO_DO_ProtectionTask)
00000040  local     $C$L108 (.IO_DRIVER_CODE:IO_DO_CheckSafetyConf)
00000050  local     $C$L109 (.IO_DRIVER_CODE:IO_DO_CheckSafetyConf)
000b10a8  local     $C$L11 (.IO_DRIVER_CODE:IO_DO_WriteOutput)
0000009c  local     $C$L110 (.IO_DRIVER_CODE:IO_DO_CheckSafetyConf)
0000008c  local     $C$L111 (.IO_DRIVER_CODE:IO_DO_SafetyInit)
00000130  local     $C$L112 (.IO_DRIVER_CODE:IO_DO_Init)
00000140  local     $C$L113 (.IO_DRIVER_CODE:IO_DO_Init)
00000170  local     $C$L114 (.IO_DRIVER_CODE:IO_DO_Init)
000001b4  local     $C$L115 (.IO_DRIVER_CODE:IO_DO_Init)
000001c0  local     $C$L116 (.IO_DRIVER_CODE:IO_DO_Init)
0000021c  local     $C$L117 (.IO_DRIVER_CODE:IO_DO_Init)
00000260  local     $C$L118 (.IO_DRIVER_CODE:IO_DO_Init)
000002b0  local     $C$L119 (.IO_DRIVER_CODE:IO_DO_Init)
00000074  local     $C$L12 (.IO_DRIVER_CODE:IO_DO_AnalogDiag)
000002cc  local     $C$L120 (.IO_DRIVER_CODE:IO_DO_Init)
000002d4  local     $C$L121 (.IO_DRIVER_CODE:IO_DO_Init)
00000350  local     $C$L122 (.IO_DRIVER_CODE:IO_DO_Init)
00000374  local     $C$L123 (.IO_DRIVER_CODE:IO_DO_Init)
000003ec  local     $C$L124 (.IO_DRIVER_CODE:IO_DO_Init)
00000408  local     $C$L125 (.IO_DRIVER_CODE:IO_DO_Init)
0000040c  local     $C$L126 (.IO_DRIVER_CODE:IO_DO_Init)
00000410  local     $C$L127 (.IO_DRIVER_CODE:IO_DO_Init)
000b9700  local     $C$L128 (.IO_DRIVER_CODE:IO_DO_GetVoltage_Int)
000b972c  local     $C$L129 (.IO_DRIVER_CODE:IO_DO_GetVoltage_Int)
0000008c  local     $C$L13 (.IO_DRIVER_CODE:IO_DO_AnalogDiag)
000b9740  local     $C$L130 (.IO_DRIVER_CODE:IO_DO_GetVoltage_Int)
000b9750  local     $C$L131 (.IO_DRIVER_CODE:IO_DO_GetVoltage_Int)
000b9760  local     $C$L132 (.IO_DRIVER_CODE:IO_DO_GetVoltage_Int)
000b9790  local     $C$L133 (.IO_DRIVER_CODE:IO_DO_GetVoltage_Int)
000b97bc  local     $C$L134 (.IO_DRIVER_CODE:IO_DO_GetVoltage_Int)
000b97cc  local     $C$L135 (.IO_DRIVER_CODE:IO_DO_GetVoltage_Int)
000b97d0  local     $C$L136 (.IO_DRIVER_CODE:IO_DO_GetVoltage_Int)
00000120  local     $C$L137 (.IO_DRIVER_CODE:IO_DO_GetCur)
000001b8  local     $C$L138 (.IO_DRIVER_CODE:IO_DO_GetCur)
000001e4  local     $C$L139 (.IO_DRIVER_CODE:IO_DO_GetCur)
00000094  local     $C$L14 (.IO_DRIVER_CODE:IO_DO_AnalogDiag)
000001e8  local     $C$L140 (.IO_DRIVER_CODE:IO_DO_GetCur)
00000200  local     $C$L141 (.IO_DRIVER_CODE:IO_DO_GetCur)
00000210  local     $C$L142 (.IO_DRIVER_CODE:IO_DO_GetCur)
000002b4  local     $C$L143 (.IO_DRIVER_CODE:IO_DO_GetCur)
000002bc  local     $C$L144 (.IO_DRIVER_CODE:IO_DO_GetCur)
000002c4  local     $C$L145 (.IO_DRIVER_CODE:IO_DO_GetCur)
000002d0  local     $C$L146 (.IO_DRIVER_CODE:IO_DO_GetCur)
000002e0  local     $C$L147 (.IO_DRIVER_CODE:IO_DO_GetCur)
00000318  local     $C$L148 (.IO_DRIVER_CODE:IO_DO_GetCur)
00000324  local     $C$L149 (.IO_DRIVER_CODE:IO_DO_GetCur)
00000098  local     $C$L15 (.IO_DRIVER_CODE:IO_DO_AnalogDiag)
00000330  local     $C$L150 (.IO_DRIVER_CODE:IO_DO_GetCur)
0000033c  local     $C$L151 (.IO_DRIVER_CODE:IO_DO_GetCur)
0000034c  local     $C$L152 (.IO_DRIVER_CODE:IO_DO_GetCur)
00000360  local     $C$L153 (.IO_DRIVER_CODE:IO_DO_GetCur)
00000390  local     $C$L154 (.IO_DRIVER_CODE:IO_DO_GetCur)
000003a0  local     $C$L155 (.IO_DRIVER_CODE:IO_DO_GetCur)
000003a8  local     $C$L156 (.IO_DRIVER_CODE:IO_DO_GetCur)
000003ac  local     $C$L157 (.IO_DRIVER_CODE:IO_DO_GetCur)
000003b0  local     $C$L158 (.IO_DRIVER_CODE:IO_DO_GetCur)
000003c4  local     $C$L159 (.IO_DRIVER_CODE:IO_DO_GetCur)
000000a0  local     $C$L16 (.IO_DRIVER_CODE:IO_DO_AnalogDiag)
000003c8  local     $C$L160 (.IO_DRIVER_CODE:IO_DO_GetCur)
00000078  local     $C$L161 (.IO_DRIVER_CODE:IO_DO_SafetyDeInit)
00000094  local     $C$L162 (.IO_DRIVER_CODE:IO_DO_SafetyDeInit)
000000b0  local     $C$L163 (.IO_DRIVER_CODE:IO_DO_SafetyDeInit)
000000cc  local     $C$L164 (.IO_DRIVER_CODE:IO_DO_SafetyDeInit)
000000e8  local     $C$L165 (.IO_DRIVER_CODE:IO_DO_SafetyDeInit)
00000104  local     $C$L166 (.IO_DRIVER_CODE:IO_DO_SafetyDeInit)
00000120  local     $C$L167 (.IO_DRIVER_CODE:IO_DO_SafetyDeInit)
0000013c  local     $C$L168 (.IO_DRIVER_CODE:IO_DO_SafetyDeInit)
00000180  local     $C$L169 (.IO_DRIVER_CODE:IO_DO_SafetyDeInit)
000000b0  local     $C$L17 (.IO_DRIVER_CODE:IO_DO_AnalogDiag)
000001ac  local     $C$L170 (.IO_DRIVER_CODE:IO_DO_SafetyDeInit)
00000100  local     $C$L171 (.IO_DRIVER_CODE:IO_DO_DeInit)
00000150  local     $C$L172 (.IO_DRIVER_CODE:IO_DO_DeInit)
00000180  local     $C$L173 (.IO_DRIVER_CODE:IO_DO_DeInit)
0000019c  local     $C$L174 (.IO_DRIVER_CODE:IO_DO_DeInit)
000001b0  local     $C$L175 (.IO_DRIVER_CODE:IO_DO_DeInit)
000001e0  local     $C$L176 (.IO_DRIVER_CODE:IO_DO_DeInit)
00000210  local     $C$L177 (.IO_DRIVER_CODE:IO_DO_DeInit)
000befa0  local     $C$L178 (.IO_DRIVER_CODE:IO_DO_CheckCurrent)
000befdc  local     $C$L179 (.IO_DRIVER_CODE:IO_DO_CheckCurrent)
000000c8  local     $C$L18 (.IO_DRIVER_CODE:IO_DO_AnalogDiag)
000befe0  local     $C$L180 (.IO_DRIVER_CODE:IO_DO_CheckCurrent)
000000a4  local     $C$L181 (.IO_DRIVER_CODE:IO_DI_Init)
000000ac  local     $C$L182 (.IO_DRIVER_CODE:IO_DI_Init)
000000b8  local     $C$L183 (.IO_DRIVER_CODE:IO_DI_Init)
000000c4  local     $C$L184 (.IO_DRIVER_CODE:IO_DI_Init)
00000168  local     $C$L185 (.IO_DRIVER_CODE:IO_DI_Init)
000001a0  local     $C$L186 (.IO_DRIVER_CODE:IO_DI_Init)
000001d0  local     $C$L187 (.IO_DRIVER_CODE:IO_DI_Init)
00000220  local     $C$L188 (.IO_DRIVER_CODE:IO_DI_Init)
00000254  local     $C$L189 (.IO_DRIVER_CODE:IO_DI_Init)
000000d0  local     $C$L19 (.IO_DRIVER_CODE:IO_DO_AnalogDiag)
00000290  local     $C$L190 (.IO_DRIVER_CODE:IO_DI_Init)
000002bc  local     $C$L191 (.IO_DRIVER_CODE:IO_DI_Init)
000002c4  local     $C$L192 (.IO_DRIVER_CODE:IO_DI_Init)
00000310  local     $C$L193 (.IO_DRIVER_CODE:IO_DI_Init)
00000330  local     $C$L194 (.IO_DRIVER_CODE:IO_DI_Init)
00000338  local     $C$L195 (.IO_DRIVER_CODE:IO_DI_Init)
00000344  local     $C$L196 (.IO_DRIVER_CODE:IO_DI_Init)
0000036c  local     $C$L197 (.IO_DRIVER_CODE:IO_DI_Init)
00000380  local     $C$L198 (.IO_DRIVER_CODE:IO_DI_Init)
000003d0  local     $C$L199 (.IO_DRIVER_CODE:IO_DI_Init)
000b0f90  local     $C$L2 (.IO_DRIVER_CODE:IO_DO_WriteOutput)
000000d8  local     $C$L20 (.IO_DRIVER_CODE:IO_DO_AnalogDiag)
000003f4  local     $C$L200 (.IO_DRIVER_CODE:IO_DI_Init)
00000410  local     $C$L201 (.IO_DRIVER_CODE:IO_DI_Init)
00000428  local     $C$L202 (.IO_DRIVER_CODE:IO_DI_Init)
00000430  local     $C$L203 (.IO_DRIVER_CODE:IO_DI_Init)
00000438  local     $C$L204 (.IO_DRIVER_CODE:IO_DI_Init)
00000440  local     $C$L205 (.IO_DRIVER_CODE:IO_DI_Init)
00000474  local     $C$L206 (.IO_DRIVER_CODE:IO_DI_Init)
00000478  local     $C$L207 (.IO_DRIVER_CODE:IO_DI_Init)
000000e0  local     $C$L208 (.IO_DRIVER_CODE:IO_DI_Get)
00000110  local     $C$L209 (.IO_DRIVER_CODE:IO_DI_Get)
000000e0  local     $C$L21 (.IO_DRIVER_CODE:IO_DO_AnalogDiag)
00000160  local     $C$L210 (.IO_DRIVER_CODE:IO_DI_Get)
000001a8  local     $C$L211 (.IO_DRIVER_CODE:IO_DI_Get)
000001d4  local     $C$L212 (.IO_DRIVER_CODE:IO_DI_Get)
000001e0  local     $C$L213 (.IO_DRIVER_CODE:IO_DI_Get)
00000220  local     $C$L214 (.IO_DRIVER_CODE:IO_DI_Get)
00000234  local     $C$L215 (.IO_DRIVER_CODE:IO_DI_Get)
0000023c  local     $C$L216 (.IO_DRIVER_CODE:IO_DI_Get)
00000274  local     $C$L217 (.IO_DRIVER_CODE:IO_DI_Get)
00000278  local     $C$L218 (.IO_DRIVER_CODE:IO_DI_Get)
000000b0  local     $C$L219 (.IO_DRIVER_CODE:IO_DI_DeInit)
00000020  local     $C$L22 (.IO_DRIVER_CODE:IO_DO_DigitalDiag)
000000d0  local     $C$L220 (.IO_DRIVER_CODE:IO_DI_DeInit)
000000f0  local     $C$L221 (.IO_DRIVER_CODE:IO_DI_DeInit)
00000110  local     $C$L222 (.IO_DRIVER_CODE:IO_DI_DeInit)
00000150  local     $C$L223 (.IO_DRIVER_CODE:IO_DI_DeInit)
00000170  local     $C$L224 (.IO_DRIVER_CODE:IO_DI_DeInit)
00000194  local     $C$L225 (.IO_DRIVER_CODE:IO_DI_DeInit)
0000002c  local     $C$L23 (.IO_DRIVER_CODE:IO_DO_DigitalDiag)
000000e8  local     $C$L24 (.IO_DRIVER_CODE:IO_DO_Set)
000000f8  local     $C$L25 (.IO_DRIVER_CODE:IO_DO_Set)
00000100  local     $C$L26 (.IO_DRIVER_CODE:IO_DO_Set)
00000108  local     $C$L27 (.IO_DRIVER_CODE:IO_DO_Set)
00000110  local     $C$L28 (.IO_DRIVER_CODE:IO_DO_Set)
00000140  local     $C$L29 (.IO_DRIVER_CODE:IO_DO_Set)
000b0fa0  local     $C$L3 (.IO_DRIVER_CODE:IO_DO_WriteOutput)
00000148  local     $C$L30 (.IO_DRIVER_CODE:IO_DO_Set)
0000015c  local     $C$L31 (.IO_DRIVER_CODE:IO_DO_Set)
0000016c  local     $C$L32 (.IO_DRIVER_CODE:IO_DO_Set)
00000174  local     $C$L33 (.IO_DRIVER_CODE:IO_DO_Set)
0000017c  local     $C$L34 (.IO_DRIVER_CODE:IO_DO_Set)
00000180  local     $C$L35 (.IO_DRIVER_CODE:IO_DO_Set)
00000190  local     $C$L36 (.IO_DRIVER_CODE:IO_DO_Set)
000001f0  local     $C$L37 (.IO_DRIVER_CODE:IO_DO_Set)
00000200  local     $C$L38 (.IO_DRIVER_CODE:IO_DO_Set)
00000208  local     $C$L39 (.IO_DRIVER_CODE:IO_DO_Set)
000b0fb0  local     $C$L4 (.IO_DRIVER_CODE:IO_DO_WriteOutput)
00000210  local     $C$L40 (.IO_DRIVER_CODE:IO_DO_Set)
00000220  local     $C$L41 (.IO_DRIVER_CODE:IO_DO_Set)
00000260  local     $C$L42 (.IO_DRIVER_CODE:IO_DO_Set)
0000029c  local     $C$L43 (.IO_DRIVER_CODE:IO_DO_Set)
000002a0  local     $C$L44 (.IO_DRIVER_CODE:IO_DO_Set)
000002b4  local     $C$L45 (.IO_DRIVER_CODE:IO_DO_Set)
000002c4  local     $C$L46 (.IO_DRIVER_CODE:IO_DO_Set)
000002cc  local     $C$L47 (.IO_DRIVER_CODE:IO_DO_Set)
000002d4  local     $C$L48 (.IO_DRIVER_CODE:IO_DO_Set)
000002dc  local     $C$L49 (.IO_DRIVER_CODE:IO_DO_Set)
000b0fc0  local     $C$L5 (.IO_DRIVER_CODE:IO_DO_WriteOutput)
000002e0  local     $C$L50 (.IO_DRIVER_CODE:IO_DO_Set)
000002f0  local     $C$L51 (.IO_DRIVER_CODE:IO_DO_Set)
0000030c  local     $C$L52 (.IO_DRIVER_CODE:IO_DO_Set)
00000314  local     $C$L53 (.IO_DRIVER_CODE:IO_DO_Set)
00000364  local     $C$L54 (.IO_DRIVER_CODE:IO_DO_Set)
00000374  local     $C$L55 (.IO_DRIVER_CODE:IO_DO_Set)
0000037c  local     $C$L56 (.IO_DRIVER_CODE:IO_DO_Set)
00000384  local     $C$L57 (.IO_DRIVER_CODE:IO_DO_Set)
0000038c  local     $C$L58 (.IO_DRIVER_CODE:IO_DO_Set)
000003c0  local     $C$L59 (.IO_DRIVER_CODE:IO_DO_Set)
000b1010  local     $C$L6 (.IO_DRIVER_CODE:IO_DO_WriteOutput)
000003e0  local     $C$L60 (.IO_DRIVER_CODE:IO_DO_Set)
000003f4  local     $C$L61 (.IO_DRIVER_CODE:IO_DO_Set)
00000410  local     $C$L62 (.IO_DRIVER_CODE:IO_DO_Set)
00000434  local     $C$L63 (.IO_DRIVER_CODE:IO_DO_Set)
0000043c  local     $C$L64 (.IO_DRIVER_CODE:IO_DO_Set)
00000444  local     $C$L65 (.IO_DRIVER_CODE:IO_DO_Set)
000000d8  local     $C$L66 (.IO_DRIVER_CODE:IO_DO_ResetProtection)
000000e0  local     $C$L67 (.IO_DRIVER_CODE:IO_DO_ResetProtection)
000000e8  local     $C$L68 (.IO_DRIVER_CODE:IO_DO_ResetProtection)
000000f0  local     $C$L69 (.IO_DRIVER_CODE:IO_DO_ResetProtection)
000b102c  local     $C$L7 (.IO_DRIVER_CODE:IO_DO_WriteOutput)
00000110  local     $C$L70 (.IO_DRIVER_CODE:IO_DO_ResetProtection)
00000180  local     $C$L71 (.IO_DRIVER_CODE:IO_DO_ResetProtection)
00000188  local     $C$L72 (.IO_DRIVER_CODE:IO_DO_ResetProtection)
00000190  local     $C$L73 (.IO_DRIVER_CODE:IO_DO_ResetProtection)
000001a0  local     $C$L74 (.IO_DRIVER_CODE:IO_DO_ResetProtection)
000001c0  local     $C$L75 (.IO_DRIVER_CODE:IO_DO_ResetProtection)
000001d8  local     $C$L76 (.IO_DRIVER_CODE:IO_DO_ResetProtection)
000001e0  local     $C$L77 (.IO_DRIVER_CODE:IO_DO_ResetProtection)
00000230  local     $C$L78 (.IO_DRIVER_CODE:IO_DO_ResetProtection)
00000238  local     $C$L79 (.IO_DRIVER_CODE:IO_DO_ResetProtection)
000b1040  local     $C$L8 (.IO_DRIVER_CODE:IO_DO_WriteOutput)
00000240  local     $C$L80 (.IO_DRIVER_CODE:IO_DO_ResetProtection)
00000250  local     $C$L81 (.IO_DRIVER_CODE:IO_DO_ResetProtection)
000b960c  local     $C$L82 (.IO_DRIVER_CODE:IO_DO_CheckOutputState)
000b9620  local     $C$L83 (.IO_DRIVER_CODE:IO_DO_CheckOutputState)
000b962c  local     $C$L84 (.IO_DRIVER_CODE:IO_DO_CheckOutputState)
000c4aa8  local     $C$L85 (.IO_DRIVER_CODE:IO_DO_CheckCurProtLimit)
000c4abc  local     $C$L86 (.IO_DRIVER_CODE:IO_DO_CheckCurProtLimit)
000c4aec  local     $C$L87 (.IO_DRIVER_CODE:IO_DO_CheckCurProtLimit)
000c4af8  local     $C$L88 (.IO_DRIVER_CODE:IO_DO_CheckCurProtLimit)
000c4b00  local     $C$L89 (.IO_DRIVER_CODE:IO_DO_CheckCurProtLimit)
000b1080  local     $C$L9 (.IO_DRIVER_CODE:IO_DO_WriteOutput)
000c4b04  local     $C$L90 (.IO_DRIVER_CODE:IO_DO_CheckCurProtLimit)
000c4b60  local     $C$L91 (.IO_DRIVER_CODE:IO_DO_ProtectionTask)
000c4bd8  local     $C$L92 (.IO_DRIVER_CODE:IO_DO_ProtectionTask)
000c4be0  local     $C$L93 (.IO_DRIVER_CODE:IO_DO_ProtectionTask)
000c4c20  local     $C$L94 (.IO_DRIVER_CODE:IO_DO_ProtectionTask)
000c4c2c  local     $C$L95 (.IO_DRIVER_CODE:IO_DO_ProtectionTask)
000c4c90  local     $C$L96 (.IO_DRIVER_CODE:IO_DO_ProtectionTask)
000c4cc0  local     $C$L97 (.IO_DRIVER_CODE:IO_DO_ProtectionTask)
000c4d20  local     $C$L98 (.IO_DRIVER_CODE:IO_DO_ProtectionTask)
000c4d80  local     $C$L99 (.IO_DRIVER_CODE:IO_DO_ProtectionTask)
000b0ef0  local     $a (.IO_DRIVER_CODE:IO_DO_WriteOutput)
00000000  local     $a (.IO_DRIVER_CODE:IO_DO_AnalogDiag)
00000000  local     $a (.IO_DRIVER_CODE:IO_DO_DigitalDiag)
00000000  local     $a (.IO_DRIVER_CODE:IO_DO_SafetyStep)
00000000  local     $a (.IO_DRIVER_CODE:IO_DO_Set)
00000000  local     $a (.IO_DRIVER_CODE:IO_DO_ResetProtection)
000b95a0  local     $a (.IO_DRIVER_CODE:IO_DO_CheckOutputState)
000c4a40  local     $a (.IO_DRIVER_CODE:IO_DO_CheckCurProtLimit)
000c4b10  local     $a (.IO_DRIVER_CODE:IO_DO_ProtectionTask)
00000000  local     $a (.IO_DRIVER_CODE:IO_DO_CheckSafetyConf)
00000000  local     $a (.IO_DRIVER_CODE:IO_DO_SafetyInit)
00000000  local     $a (.IO_DRIVER_CODE:IO_DO_Init)
000b9660  local     $a (.IO_DRIVER_CODE:IO_DO_GetVoltage_Int)
000b9720  local     $a (.IO_DRIVER_CODE:IO_DO_GetVoltage_Int)
000b97b0  local     $a (.IO_DRIVER_CODE:IO_DO_GetVoltage_Int)
00000000  local     $a (.IO_DRIVER_CODE:IO_DO_GetVoltage)
00000000  local     $a (.IO_DRIVER_CODE:IO_DO_GetCur)
00000108  local     $a (.IO_DRIVER_CODE:IO_DO_GetCur)
000001b4  local     $a (.IO_DRIVER_CODE:IO_DO_GetCur)
000001d4  local     $a (.IO_DRIVER_CODE:IO_DO_GetCur)
000002ac  local     $a (.IO_DRIVER_CODE:IO_DO_GetCur)
00000378  local     $a (.IO_DRIVER_CODE:IO_DO_GetCur)
00000000  local     $a (.IO_DRIVER_CODE:IO_DO_SafetyDeInit)
00000000  local     $a (.IO_DRIVER_CODE:IO_DO_DeInit)
000bef50  local     $a (.IO_DRIVER_CODE:IO_DO_CheckCurrent)
00000000  local     $a (.IO_DRIVER_CODE:IO_DI_Init)
00000000  local     $a (.IO_DRIVER_CODE:IO_DI_Evaluate)
00000000  local     $a (.IO_DRIVER_CODE:IO_DI_Get)
00000000  local     $a (.IO_DRIVER_CODE:IO_DI_DeInit)
0803d5f4  local     $d (.IO_DRIVER_DATA_NORMAL)
00000000  local     $d (.IO_DRIVER_CONST)
000b9718  local     $t (.IO_DRIVER_CODE:IO_DO_GetVoltage_Int)
000b97a8  local     $t (.IO_DRIVER_CODE:IO_DO_GetVoltage_Int)
00000100  local     $t (.IO_DRIVER_CODE:IO_DO_GetCur)
000001ac  local     $t (.IO_DRIVER_CODE:IO_DO_GetCur)
000001cc  local     $t (.IO_DRIVER_CODE:IO_DO_GetCur)
000002a4  local     $t (.IO_DRIVER_CODE:IO_DO_GetCur)
00000370  local     $t (.IO_DRIVER_CODE:IO_DO_GetCur)
00000000  local     .IO_DRIVER_CODE:IO_DI_DeInit (.IO_DRIVER_CODE:IO_DI_DeInit)
00000000  local     .IO_DRIVER_CODE:IO_DI_Evaluate (.IO_DRIVER_CODE:IO_DI_Evaluate)
00000000  local     .IO_DRIVER_CODE:IO_DI_Get (.IO_DRIVER_CODE:IO_DI_Get)
00000000  local     .IO_DRIVER_CODE:IO_DI_Init (.IO_DRIVER_CODE:IO_DI_Init)
00000000  local     .IO_DRIVER_CODE:IO_DO_AnalogDiag (.IO_DRIVER_CODE:IO_DO_AnalogDiag)
000c4a40  local     .IO_DRIVER_CODE:IO_DO_CheckCurProtLimit (.IO_DRIVER_CODE:IO_DO_CheckCurProtLimit)
000bef50  local     .IO_DRIVER_CODE:IO_DO_CheckCurrent (.IO_DRIVER_CODE:IO_DO_CheckCurrent)
000b95a0  local     .IO_DRIVER_CODE:IO_DO_CheckOutputState (.IO_DRIVER_CODE:IO_DO_CheckOutputState)
00000000  local     .IO_DRIVER_CODE:IO_DO_CheckSafetyConf (.IO_DRIVER_CODE:IO_DO_CheckSafetyConf)
00000000  local     .IO_DRIVER_CODE:IO_DO_DeInit (.IO_DRIVER_CODE:IO_DO_DeInit)
00000000  local     .IO_DRIVER_CODE:IO_DO_DigitalDiag (.IO_DRIVER_CODE:IO_DO_DigitalDiag)
00000000  local     .IO_DRIVER_CODE:IO_DO_GetCur (.IO_DRIVER_CODE:IO_DO_GetCur)
00000000  local     .IO_DRIVER_CODE:IO_DO_GetVoltage (.IO_DRIVER_CODE:IO_DO_GetVoltage)
000b9660  local     .IO_DRIVER_CODE:IO_DO_GetVoltage_Int (.IO_DRIVER_CODE:IO_DO_GetVoltage_Int)
00000000  local     .IO_DRIVER_CODE:IO_DO_Init (.IO_DRIVER_CODE:IO_DO_Init)
000c4b10  local     .IO_DRIVER_CODE:IO_DO_ProtectionTask (.IO_DRIVER_CODE:IO_DO_ProtectionTask)
00000000  local     .IO_DRIVER_CODE:IO_DO_ResetProtection (.IO_DRIVER_CODE:IO_DO_ResetProtection)
00000000  local     .IO_DRIVER_CODE:IO_DO_SafetyDeInit (.IO_DRIVER_CODE:IO_DO_SafetyDeInit)
00000000  local     .IO_DRIVER_CODE:IO_DO_SafetyInit (.IO_DRIVER_CODE:IO_DO_SafetyInit)
00000000  local     .IO_DRIVER_CODE:IO_DO_SafetyStep (.IO_DRIVER_CODE:IO_DO_SafetyStep)
00000000  local     .IO_DRIVER_CODE:IO_DO_Set (.IO_DRIVER_CODE:IO_DO_Set)
000b0ef0  local     .IO_DRIVER_CODE:IO_DO_WriteOutput (.IO_DRIVER_CODE:IO_DO_WriteOutput)
00000000  local     .IO_DRIVER_CONST (.IO_DRIVER_CONST)
0803d5f4  local     .IO_DRIVER_DATA_NORMAL (.IO_DRIVER_DATA_NORMAL)
00000000  local     .text (.text)
00000000  local     IO_DIO_Default_Limits (.IO_DRIVER_CONST)
00000000  global    IO_DI_DeInit (.IO_DRIVER_CODE:IO_DI_DeInit)
00000000  local     IO_DI_Evaluate (.IO_DRIVER_CODE:IO_DI_Evaluate)
00000000  global    IO_DI_Get (.IO_DRIVER_CODE:IO_DI_Get)
00000000  global    IO_DI_Init (.IO_DRIVER_CODE:IO_DI_Init)
00000000  local     IO_DO_AnalogDiag (.IO_DRIVER_CODE:IO_DO_AnalogDiag)
000c4a40  global    IO_DO_CheckCurProtLimit (.IO_DRIVER_CODE:IO_DO_CheckCurProtLimit)
000bef50  global    IO_DO_CheckCurrent (.IO_DRIVER_CODE:IO_DO_CheckCurrent)
000b95a0  global    IO_DO_CheckOutputState (.IO_DRIVER_CODE:IO_DO_CheckOutputState)
00000000  local     IO_DO_CheckSafetyConf (.IO_DRIVER_CODE:IO_DO_CheckSafetyConf)
00000000  global    IO_DO_DeInit (.IO_DRIVER_CODE:IO_DO_DeInit)
00000000  local     IO_DO_DigitalDiag (.IO_DRIVER_CODE:IO_DO_DigitalDiag)
00000000  global    IO_DO_GetCur (.IO_DRIVER_CODE:IO_DO_GetCur)
00000000  global    IO_DO_GetVoltage (.IO_DRIVER_CODE:IO_DO_GetVoltage)
000b9660  global    IO_DO_GetVoltage_Int (.IO_DRIVER_CODE:IO_DO_GetVoltage_Int)
00000000  global    IO_DO_Init (.IO_DRIVER_CODE:IO_DO_Init)
000c4b10  global    IO_DO_ProtectionTask (.IO_DRIVER_CODE:IO_DO_ProtectionTask)
00000000  global    IO_DO_ResetProtection (.IO_DRIVER_CODE:IO_DO_ResetProtection)
00000000  local     IO_DO_SafetyDeInit (.IO_DRIVER_CODE:IO_DO_SafetyDeInit)
00000000  local     IO_DO_SafetyInit (.IO_DRIVER_CODE:IO_DO_SafetyInit)
00000000  local     IO_DO_SafetyStep (.IO_DRIVER_CODE:IO_DO_SafetyStep)
00000000  global    IO_DO_Set (.IO_DRIVER_CODE:IO_DO_Set)
000b0ef0  global    IO_DO_WriteOutput (.IO_DRIVER_CODE:IO_DO_WriteOutput)
0803d5f4  global    io_do_stat_tb (.IO_DRIVER_DATA_NORMAL)


================================================================================

ttc500.lib : drv_IO_Driver.obj

Run/Load            
Value     Binding   Name (Section)
--------  --------  ---------------
000b8a18  local     $C$L1 (.IO_DRIVER_CODE:IO_INT_Driver_TaskBegin)
000b0ab8  local     $C$L10 (.IO_DRIVER_CODE:IO_Driver_Enter_Critical_IRQ)
000b0b20  local     $C$L11 (.IO_DRIVER_CODE:IO_Driver_Leave_Critical_IRQ)
000b7e3c  local     $C$L12 (.IO_DRIVER_CODE:IO_Driver_SetFPUHandler)
000b7e54  local     $C$L13 (.IO_DRIVER_CODE:IO_Driver_SetFPUHandler)
000b7e5c  local     $C$L14 (.IO_DRIVER_CODE:IO_Driver_SetFPUHandler)
00000090  local     $C$L15 (.IO_DRIVER_CODE:IO_Driver_SetCommandPeriod)
000000cc  local     $C$L16 (.IO_DRIVER_CODE:IO_Driver_SetCommandPeriod)
00000110  local     $C$L17 (.IO_DRIVER_CODE:IO_Driver_SetCommandPeriod)
00000144  local     $C$L18 (.IO_DRIVER_CODE:IO_Driver_SetCommandPeriod)
00000164  local     $C$L19 (.IO_DRIVER_CODE:IO_Driver_SetCommandPeriod)
000baf8c  local     $C$L2 (.IO_DRIVER_CODE:IO_Driver_TaskEnd)
00000168  local     $C$L20 (.IO_DRIVER_CODE:IO_Driver_SetCommandPeriod)
0000016c  local     $C$L21 (.IO_DRIVER_CODE:IO_Driver_SetCommandPeriod)
000b0750  local     $C$L22 (.IO_DRIVER_CODE:IO_Driver_CheckSafetyConf)
000b0760  local     $C$L23 (.IO_DRIVER_CODE:IO_Driver_CheckSafetyConf)
000b2c0c  local     $C$L24 (.IO_DRIVER_CODE:IO_Driver_VEC_Init)
000b3d84  local     $C$L25 (.IO_DRIVER_CODE:IO_Driver_DMA_Init)
000b6340  local     $C$L26 (.IO_DRIVER_CODE:IO_Driver_NHET_InitStart)
000b6380  local     $C$L27 (.IO_DRIVER_CODE:IO_Driver_NHET_InitStart)
000b64b0  local     $C$L28 (.IO_DRIVER_CODE:IO_Driver_NHET_InitEnd)
000b6500  local     $C$L29 (.IO_DRIVER_CODE:IO_Driver_SHIFT_InitEnd)
000b08c0  local     $C$L3 (.IO_DRIVER_CODE:IO_Driver_Enter_Critical_All)
000b6534  local     $C$L30 (.IO_DRIVER_CODE:IO_Driver_SHIFT_InitEnd)
000b6540  local     $C$L31 (.IO_DRIVER_CODE:IO_Driver_SHIFT_InitEnd)
000b7b48  local     $C$L32 (.IO_DRIVER_CODE:IO_Driver_VEC_ConfigRuntime)
000b7bf0  local     $C$L33 (.IO_DRIVER_CODE:IO_Driver_Init)
000b7c2c  local     $C$L34 (.IO_DRIVER_CODE:IO_Driver_Init)
000b7c38  local     $C$L35 (.IO_DRIVER_CODE:IO_Driver_Init)
000b7dc4  local     $C$L36 (.IO_DRIVER_CODE:IO_Driver_Init)
000b7dd4  local     $C$L37 (.IO_DRIVER_CODE:IO_Driver_Init)
00000060  local     $C$L38 (.IO_DRIVER_CODE:IO_Driver_GetVersionOfFPGA)
00000070  local     $C$L39 (.IO_DRIVER_CODE:IO_Driver_GetVersionOfFPGA)
000b08c8  local     $C$L4 (.IO_DRIVER_CODE:IO_Driver_Enter_Critical_All)
000000e8  local     $C$L40 (.IO_DRIVER_CODE:IO_Driver_GetVersionOfFPGA)
00000058  local     $C$L41 (.IO_DRIVER_CODE:IO_Driver_GetVersionOfBootloader)
000c7ee0  local     $C$L42 (.IO_DRIVER_CODE:IO_Driver_FPU_InterruptHandler)
000b08fc  local     $C$L5 (.IO_DRIVER_CODE:IO_Driver_Enter_Critical_All)
000b0d50  local     $C$L6 (.IO_DRIVER_CODE:IO_Driver_Leave_Critical_All)
000b0d64  local     $C$L7 (.IO_DRIVER_CODE:IO_Driver_Leave_Critical_All)
000b0db0  local     $C$L8 (.IO_DRIVER_CODE:IO_Driver_Leave_Critical_All)
0000003c  local     $C$L9 (.IO_DRIVER_CODE:IO_Driver_SetIntegerDivisionByZeroException)
000b89a0  local     $a (.IO_DRIVER_CODE:IO_INT_Driver_TaskBegin)
000baf60  local     $a (.IO_DRIVER_CODE:IO_Driver_TaskEnd)
000b8bf0  local     $a (.IO_DRIVER_CODE:IO_Driver_TaskBegin)
000b0870  local     $a (.IO_DRIVER_CODE:IO_Driver_Enter_Critical_All)
000b0d00  local     $a (.IO_DRIVER_CODE:IO_Driver_Leave_Critical_All)
00000000  local     $a (.IO_DRIVER_CODE:IO_Driver_SetIntegerDivisionByZeroException)
000b0a70  local     $a (.IO_DRIVER_CODE:IO_Driver_Enter_Critical_IRQ)
000b0ad0  local     $a (.IO_DRIVER_CODE:IO_Driver_Leave_Critical_IRQ)
000b7de0  local     $a (.IO_DRIVER_CODE:IO_Driver_SetFPUHandler)
00000000  local     $a (.IO_DRIVER_CODE:IO_Driver_SetCommandPeriod)
00000000  local     $a (.IO_DRIVER_CODE:IO_Driver_Reset)
000b06f0  local     $a (.IO_DRIVER_CODE:IO_Driver_CheckSafetyConf)
000b2b90  local     $a (.IO_DRIVER_CODE:IO_Driver_VEC_Init)
000b34a0  local     $a (.IO_DRIVER_CODE:IO_Driver_EnableInterrupts)
000b3d40  local     $a (.IO_DRIVER_CODE:IO_Driver_DMA_Init)
000b4770  local     $a (.IO_DRIVER_CODE:IO_Driver_DMA_EnableADCHwTrigger)
000b62f0  local     $a (.IO_DRIVER_CODE:IO_Driver_NHET_InitStart)
000b6480  local     $a (.IO_DRIVER_CODE:IO_Driver_NHET_InitEnd)
000b64d0  local     $a (.IO_DRIVER_CODE:IO_Driver_SHIFT_InitEnd)
000b7b10  local     $a (.IO_DRIVER_CODE:IO_Driver_VEC_ConfigRuntime)
000b7b60  local     $a (.IO_DRIVER_CODE:IO_Driver_Init)
00000000  local     $a (.IO_DRIVER_CODE:IO_Driver_GetVersionOfFPGA)
00000000  local     $a (.IO_DRIVER_CODE:IO_Driver_GetVersionOfDriver)
00000000  local     $a (.IO_DRIVER_CODE:IO_Driver_GetVersionOfBootloader)
00000000  local     $a (.IO_DRIVER_CODE:IO_Driver_GetSerialNumber)
00000000  local     $a (.IO_DRIVER_CODE:IO_Driver_GetProdCode)
00000000  local     $a (.IO_DRIVER_CODE:IO_Driver_GetMacAddress)
000c8830  local     $a (.IO_DRIVER_CODE:IO_Driver_GetFPUExceptionFlags)
000c7e90  local     $a (.IO_DRIVER_CODE:IO_Driver_FPU_InterruptHandler)
0803db4c  local     $d (.IO_DRIVER_DATA_NORMAL)
0803db4d  local     $d (.IO_DRIVER_DATA_NORMAL)
0803db50  local     $d (.IO_DRIVER_DATA_NORMAL)
0803db54  local     $d (.IO_DRIVER_DATA_NORMAL)
0803db58  local     $d (.IO_DRIVER_DATA_NORMAL)
0803db5c  local     $d (.IO_DRIVER_DATA_NORMAL)
0803db5d  local     $d (.IO_DRIVER_DATA_NORMAL)
0803db60  local     $d (.IO_DRIVER_DATA_NORMAL)
0803db64  local     $d (.IO_DRIVER_DATA_NORMAL)
000b06f0  local     .IO_DRIVER_CODE:IO_Driver_CheckSafetyConf (.IO_DRIVER_CODE:IO_Driver_CheckSafetyConf)
000b4770  local     .IO_DRIVER_CODE:IO_Driver_DMA_EnableADCHwTrigger (.IO_DRIVER_CODE:IO_Driver_DMA_EnableADCHwTrigger)
000b3d40  local     .IO_DRIVER_CODE:IO_Driver_DMA_Init (.IO_DRIVER_CODE:IO_Driver_DMA_Init)
000b34a0  local     .IO_DRIVER_CODE:IO_Driver_EnableInterrupts (.IO_DRIVER_CODE:IO_Driver_EnableInterrupts)
000b0870  local     .IO_DRIVER_CODE:IO_Driver_Enter_Critical_All (.IO_DRIVER_CODE:IO_Driver_Enter_Critical_All)
000b0a70  local     .IO_DRIVER_CODE:IO_Driver_Enter_Critical_IRQ (.IO_DRIVER_CODE:IO_Driver_Enter_Critical_IRQ)
000c7e90  local     .IO_DRIVER_CODE:IO_Driver_FPU_InterruptHandler (.IO_DRIVER_CODE:IO_Driver_FPU_InterruptHandler)
000c8830  local     .IO_DRIVER_CODE:IO_Driver_GetFPUExceptionFlags (.IO_DRIVER_CODE:IO_Driver_GetFPUExceptionFlags)
00000000  local     .IO_DRIVER_CODE:IO_Driver_GetMacAddress (.IO_DRIVER_CODE:IO_Driver_GetMacAddress)
00000000  local     .IO_DRIVER_CODE:IO_Driver_GetProdCode (.IO_DRIVER_CODE:IO_Driver_GetProdCode)
00000000  local     .IO_DRIVER_CODE:IO_Driver_GetSerialNumber (.IO_DRIVER_CODE:IO_Driver_GetSerialNumber)
00000000  local     .IO_DRIVER_CODE:IO_Driver_GetVersionOfBootloader (.IO_DRIVER_CODE:IO_Driver_GetVersionOfBootloader)
00000000  local     .IO_DRIVER_CODE:IO_Driver_GetVersionOfDriver (.IO_DRIVER_CODE:IO_Driver_GetVersionOfDriver)
00000000  local     .IO_DRIVER_CODE:IO_Driver_GetVersionOfFPGA (.IO_DRIVER_CODE:IO_Driver_GetVersionOfFPGA)
000b7b60  local     .IO_DRIVER_CODE:IO_Driver_Init (.IO_DRIVER_CODE:IO_Driver_Init)
000b0d00  local     .IO_DRIVER_CODE:IO_Driver_Leave_Critical_All (.IO_DRIVER_CODE:IO_Driver_Leave_Critical_All)
000b0ad0  local     .IO_DRIVER_CODE:IO_Driver_Leave_Critical_IRQ (.IO_DRIVER_CODE:IO_Driver_Leave_Critical_IRQ)
000b6480  local     .IO_DRIVER_CODE:IO_Driver_NHET_InitEnd (.IO_DRIVER_CODE:IO_Driver_NHET_InitEnd)
000b62f0  local     .IO_DRIVER_CODE:IO_Driver_NHET_InitStart (.IO_DRIVER_CODE:IO_Driver_NHET_InitStart)
00000000  local     .IO_DRIVER_CODE:IO_Driver_Reset (.IO_DRIVER_CODE:IO_Driver_Reset)
000b64d0  local     .IO_DRIVER_CODE:IO_Driver_SHIFT_InitEnd (.IO_DRIVER_CODE:IO_Driver_SHIFT_InitEnd)
00000000  local     .IO_DRIVER_CODE:IO_Driver_SetCommandPeriod (.IO_DRIVER_CODE:IO_Driver_SetCommandPeriod)
000b7de0  local     .IO_DRIVER_CODE:IO_Driver_SetFPUHandler (.IO_DRIVER_CODE:IO_Driver_SetFPUHandler)
00000000  local     .IO_DRIVER_CODE:IO_Driver_SetIntegerDivisionByZeroException (.IO_DRIVER_CODE:IO_Driver_SetIntegerDivisionByZeroException)
000b8bf0  local     .IO_DRIVER_CODE:IO_Driver_TaskBegin (.IO_DRIVER_CODE:IO_Driver_TaskBegin)
000baf60  local     .IO_DRIVER_CODE:IO_Driver_TaskEnd (.IO_DRIVER_CODE:IO_Driver_TaskEnd)
000b7b10  local     .IO_DRIVER_CODE:IO_Driver_VEC_ConfigRuntime (.IO_DRIVER_CODE:IO_Driver_VEC_ConfigRuntime)
000b2b90  local     .IO_DRIVER_CODE:IO_Driver_VEC_Init (.IO_DRIVER_CODE:IO_Driver_VEC_Init)
000b89a0  local     .IO_DRIVER_CODE:IO_INT_Driver_TaskBegin (.IO_DRIVER_CODE:IO_INT_Driver_TaskBegin)
0803db4c  local     .IO_DRIVER_DATA_NORMAL (.IO_DRIVER_DATA_NORMAL)
00000000  local     .text (.text)
000b06f0  local     IO_Driver_CheckSafetyConf (.IO_DRIVER_CODE:IO_Driver_CheckSafetyConf)
000b4770  local     IO_Driver_DMA_EnableADCHwTrigger (.IO_DRIVER_CODE:IO_Driver_DMA_EnableADCHwTrigger)
000b3d40  local     IO_Driver_DMA_Init (.IO_DRIVER_CODE:IO_Driver_DMA_Init)
000b34a0  local     IO_Driver_EnableInterrupts (.IO_DRIVER_CODE:IO_Driver_EnableInterrupts)
000b0870  global    IO_Driver_Enter_Critical_All (.IO_DRIVER_CODE:IO_Driver_Enter_Critical_All)
000b0a70  global    IO_Driver_Enter_Critical_IRQ (.IO_DRIVER_CODE:IO_Driver_Enter_Critical_IRQ)
000c7e90  global    IO_Driver_FPU_InterruptHandler (.IO_DRIVER_CODE:IO_Driver_FPU_InterruptHandler)
0803db58  local     IO_Driver_Fpu_handler (.IO_DRIVER_DATA_NORMAL)
000c8830  local     IO_Driver_GetFPUExceptionFlags (.IO_DRIVER_CODE:IO_Driver_GetFPUExceptionFlags)
00000000  global    IO_Driver_GetMacAddress (.IO_DRIVER_CODE:IO_Driver_GetMacAddress)
00000000  global    IO_Driver_GetProdCode (.IO_DRIVER_CODE:IO_Driver_GetProdCode)
00000000  global    IO_Driver_GetSerialNumber (.IO_DRIVER_CODE:IO_Driver_GetSerialNumber)
00000000  global    IO_Driver_GetVersionOfBootloader (.IO_DRIVER_CODE:IO_Driver_GetVersionOfBootloader)
00000000  global    IO_Driver_GetVersionOfDriver (.IO_DRIVER_CODE:IO_Driver_GetVersionOfDriver)
00000000  global    IO_Driver_GetVersionOfFPGA (.IO_DRIVER_CODE:IO_Driver_GetVersionOfFPGA)
000b7b60  global    IO_Driver_Init (.IO_DRIVER_CODE:IO_Driver_Init)
000b0d00  global    IO_Driver_Leave_Critical_All (.IO_DRIVER_CODE:IO_Driver_Leave_Critical_All)
000b0ad0  global    IO_Driver_Leave_Critical_IRQ (.IO_DRIVER_CODE:IO_Driver_Leave_Critical_IRQ)
000b6480  local     IO_Driver_NHET_InitEnd (.IO_DRIVER_CODE:IO_Driver_NHET_InitEnd)
000b62f0  local     IO_Driver_NHET_InitStart (.IO_DRIVER_CODE:IO_Driver_NHET_InitStart)
00000000  global    IO_Driver_Reset (.IO_DRIVER_CODE:IO_Driver_Reset)
000b64d0  local     IO_Driver_SHIFT_InitEnd (.IO_DRIVER_CODE:IO_Driver_SHIFT_InitEnd)
00000000  global    IO_Driver_SetCommandPeriod (.IO_DRIVER_CODE:IO_Driver_SetCommandPeriod)
000b7de0  global    IO_Driver_SetFPUHandler (.IO_DRIVER_CODE:IO_Driver_SetFPUHandler)
00000000  global    IO_Driver_SetIntegerDivisionByZeroException (.IO_DRIVER_CODE:IO_Driver_SetIntegerDivisionByZeroException)
000b8bf0  global    IO_Driver_TaskBegin (.IO_DRIVER_CODE:IO_Driver_TaskBegin)
000baf60  global    IO_Driver_TaskEnd (.IO_DRIVER_CODE:IO_Driver_TaskEnd)
000b7b10  local     IO_Driver_VEC_ConfigRuntime (.IO_DRIVER_CODE:IO_Driver_VEC_ConfigRuntime)
000b2b90  local     IO_Driver_VEC_Init (.IO_DRIVER_CODE:IO_Driver_VEC_Init)
000b89a0  global    IO_INT_Driver_TaskBegin (.IO_DRIVER_CODE:IO_INT_Driver_TaskBegin)
0803db54  global    io_driver_comp_threshold (.IO_DRIVER_DATA_NORMAL)
0803db5d  local     io_driver_critical_fiq_nesting (.IO_DRIVER_DATA_NORMAL)
0803db5c  local     io_driver_critical_irq_nesting (.IO_DRIVER_DATA_NORMAL)
0803db50  global    io_driver_nhet_start (.IO_DRIVER_DATA_NORMAL)
0803db60  local     io_driver_save_cpsr (.IO_DRIVER_DATA_NORMAL)
0803db64  local     io_driver_save_fiq (.IO_DRIVER_DATA_NORMAL)
0803db4d  global    io_driver_task_cycle (.IO_DRIVER_DATA_NORMAL)
0803db4c  global    io_driver_use_safety (.IO_DRIVER_DATA_NORMAL)


================================================================================

ttc500.lib : drv_IO_INT_VariantCfg.obj

Run/Load            
Value     Binding   Name (Section)
--------  --------  ---------------
000c8950  local     $d (.IO_DRIVER_CONST)
000c8cf8  local     $d (.IO_DRIVER_CONST)
000c8950  local     .IO_DRIVER_CONST (.IO_DRIVER_CONST)
00000000  local     .text (.text)
000c8950  global    IO_VariantCfg_HW (.IO_DRIVER_CONST)
000c8cf8  global    IO_VariantCfg_SW (.IO_DRIVER_CONST)


================================================================================

ttc500.lib : drv_csm_spi_cfg.obj

Run/Load            
Value     Binding   Name (Section)
--------  --------  ---------------
000c8750  local     $C$L1 (.IO_DRIVER_CODE:Csm_Spi_WaitSendbuffer_1_3)
000c8758  local     $C$L2 (.IO_DRIVER_CODE:Csm_Spi_WaitSendbuffer_1_3)
000c8510  local     $C$L3 (.IO_DRIVER_CODE:Csm_Spi_WaitInit_3)
000c8518  local     $C$L4 (.IO_DRIVER_CODE:Csm_Spi_WaitInit_3)
000c8534  local     $C$L5 (.IO_DRIVER_CODE:Csm_Spi_WaitInit_3)
000c84c0  local     $C$L6 (.IO_DRIVER_CODE:Csm_Spi_WaitInit_1)
000c84c8  local     $C$L7 (.IO_DRIVER_CODE:Csm_Spi_WaitInit_1)
000c84e4  local     $C$L8 (.IO_DRIVER_CODE:Csm_Spi_WaitInit_1)
000c8730  local     $a (.IO_DRIVER_CODE:Csm_Spi_WaitSendbuffer_1_3)
000c84f0  local     $a (.IO_DRIVER_CODE:Csm_Spi_WaitInit_3)
000c84a0  local     $a (.IO_DRIVER_CODE:Csm_Spi_WaitInit_1)
0803dc54  local     $d (.IO_DRIVER_DATA_NORMAL)
000ca708  local     $d (.IO_DRIVER_CONST)
000ca712  local     $d (.IO_DRIVER_CONST)
000ca72c  local     $d (.IO_DRIVER_CONST)
000ca72e  local     $d (.IO_DRIVER_CONST)
000ca730  local     $d (.IO_DRIVER_CONST)
000ca734  local     $d (.IO_DRIVER_CONST)
000ca7b8  local     $d (.IO_DRIVER_CONST)
000ca83c  local     $d (.IO_DRIVER_CONST)
000ca840  local     $d (.IO_DRIVER_CONST)
000ca870  local     $d (.IO_DRIVER_CONST)
000c84a0  local     .IO_DRIVER_CODE:Csm_Spi_WaitInit_1 (.IO_DRIVER_CODE:Csm_Spi_WaitInit_1)
000c84f0  local     .IO_DRIVER_CODE:Csm_Spi_WaitInit_3 (.IO_DRIVER_CODE:Csm_Spi_WaitInit_3)
000c8730  local     .IO_DRIVER_CODE:Csm_Spi_WaitSendbuffer_1_3 (.IO_DRIVER_CODE:Csm_Spi_WaitSendbuffer_1_3)
000ca708  local     .IO_DRIVER_CONST (.IO_DRIVER_CONST)
0803dc54  local     .IO_DRIVER_DATA_NORMAL (.IO_DRIVER_DATA_NORMAL)
00000000  local     .text (.text)
000ca72c  local     Csm_Spi_EepromTransmitConfig (.IO_DRIVER_CONST)
000ca83c  global    Csm_Spi_EscTransmitConfig (.IO_DRIVER_CONST)
000ca730  local     Csm_Spi_RtcTransmitConfig (.IO_DRIVER_CONST)
000ca72e  local     Csm_Spi_ShiftTransmitConfig (.IO_DRIVER_CONST)
000c84a0  local     Csm_Spi_WaitInit_1 (.IO_DRIVER_CODE:Csm_Spi_WaitInit_1)
000c84f0  local     Csm_Spi_WaitInit_3 (.IO_DRIVER_CODE:Csm_Spi_WaitInit_3)
000c8730  local     Csm_Spi_WaitSendbuffer_1_3 (.IO_DRIVER_CODE:Csm_Spi_WaitSendbuffer_1_3)
000ca870  global    IO_INT_SPI_ChannelConfigs (.IO_DRIVER_CONST)
0803dc54  global    IO_INT_SPI_First_Transfer (.IO_DRIVER_DATA_NORMAL)
000ca840  global    IO_INT_SPI_TransferConfigs (.IO_DRIVER_CONST)
000ca734  global    IO_SPI_CH1_Config (.IO_DRIVER_CONST)
000ca708  local     IO_SPI_CH1_TransferGroups (.IO_DRIVER_CONST)
000ca7b8  global    IO_SPI_CH3_Config (.IO_DRIVER_CONST)
000ca712  local     IO_SPI_CH3_TransferGroups (.IO_DRIVER_CONST)


================================================================================

ttc500.lib : drv_csm_adc_cfg.obj

Run/Load            
Value     Binding   Name (Section)
--------  --------  ---------------
000caf20  local     $d (.IO_DRIVER_CONST)
000caf80  local     $d (.IO_DRIVER_CONST)
000caf20  local     .IO_DRIVER_CONST (.IO_DRIVER_CONST)
00000000  local     .text (.text)
000caf80  global    Csm_Adc_Config (.IO_DRIVER_CONST)
000caf20  local     Csm_Adc_Groups (.IO_DRIVER_CONST)


================================================================================

ttc500.lib : drv_csm_dio_cfg.obj

Run/Load            
Value     Binding   Name (Section)
--------  --------  ---------------
000c9e70  local     $d (.IO_DRIVER_CONST)
000ca098  local     $d (.IO_DRIVER_CONST)
000ca110  local     $d (.IO_DRIVER_CONST)
000c9e70  local     .IO_DRIVER_CONST (.IO_DRIVER_CONST)
00000000  local     .text (.text)
000c9e70  local     Csm_Dio_ChannelConfig (.IO_DRIVER_CONST)
000ca110  global    Csm_Dio_Config (.IO_DRIVER_CONST)
000ca098  global    Csm_Dio_PortConfig (.IO_DRIVER_CONST)


================================================================================

ttc500.lib : drv_csm_esm_cfg.obj

Run/Load            
Value     Binding   Name (Section)
--------  --------  ---------------
000cb0bc  local     $d (.IO_DRIVER_CONST)
000cb0e0  local     $d (.IO_DRIVER_CONST)
000cb0bc  local     .IO_DRIVER_CONST (.IO_DRIVER_CONST)
00000000  local     .text (.text)
000cb0e0  global    Csm_Esm_NonSafeConfig (.IO_DRIVER_CONST)
000cb0bc  global    Csm_Esm_SafeConfig (.IO_DRIVER_CONST)


================================================================================

ttc500.lib : drv_csm_esc_cfg.obj

Run/Load            
Value     Binding   Name (Section)
--------  --------  ---------------
000c8710  local     $C$L1 (.IO_DRIVER_CODE:Csm_Esc_WaitTG0)
000c8718  local     $C$L2 (.IO_DRIVER_CODE:Csm_Esc_WaitTG0)
000c86d0  local     $C$L3 (.IO_DRIVER_CODE:Csm_Esc_WaitEepromCrcCheck)
000c86d8  local     $C$L4 (.IO_DRIVER_CODE:Csm_Esc_WaitEepromCrcCheck)
000c8690  local     $C$L5 (.IO_DRIVER_CODE:Csm_Esc_WaitCfgCrcCheck)
000c8698  local     $C$L6 (.IO_DRIVER_CODE:Csm_Esc_WaitCfgCrcCheck)
000c86f0  local     $a (.IO_DRIVER_CODE:Csm_Esc_WaitTG0)
000c86b0  local     $a (.IO_DRIVER_CODE:Csm_Esc_WaitEepromCrcCheck)
000c8670  local     $a (.IO_DRIVER_CODE:Csm_Esc_WaitCfgCrcCheck)
0803dacc  local     $d (.IO_DRIVER_DATA_NORMAL)
000c8670  local     .IO_DRIVER_CODE:Csm_Esc_WaitCfgCrcCheck (.IO_DRIVER_CODE:Csm_Esc_WaitCfgCrcCheck)
000c86b0  local     .IO_DRIVER_CODE:Csm_Esc_WaitEepromCrcCheck (.IO_DRIVER_CODE:Csm_Esc_WaitEepromCrcCheck)
000c86f0  local     .IO_DRIVER_CODE:Csm_Esc_WaitTG0 (.IO_DRIVER_CODE:Csm_Esc_WaitTG0)
0803dacc  local     .IO_DRIVER_DATA_NORMAL (.IO_DRIVER_DATA_NORMAL)
00000000  local     .text (.text)
0803dacc  global    Csm_Esc_Config (.IO_DRIVER_DATA_NORMAL)
000c8670  local     Csm_Esc_WaitCfgCrcCheck (.IO_DRIVER_CODE:Csm_Esc_WaitCfgCrcCheck)
000c86b0  local     Csm_Esc_WaitEepromCrcCheck (.IO_DRIVER_CODE:Csm_Esc_WaitEepromCrcCheck)
000c86f0  local     Csm_Esc_WaitTG0 (.IO_DRIVER_CODE:Csm_Esc_WaitTG0)


================================================================================

ttc500.lib : drv_csm_dcc_cfg.obj

Run/Load            
Value     Binding   Name (Section)
--------  --------  ---------------
000cb134  local     $d (.IO_DRIVER_CONST)
000cb148  local     $d (.IO_DRIVER_CONST)
000cb134  local     .IO_DRIVER_CONST (.IO_DRIVER_CONST)
00000000  local     .text (.text)
000cb134  global    Csm_Dcc0_Config (.IO_DRIVER_CONST)
000cb148  global    Csm_Dcc1_Config (.IO_DRIVER_CONST)


================================================================================

ttc500.lib : drv_csm_can_cfg.obj

Run/Load            
Value     Binding   Name (Section)
--------  --------  ---------------
0803dc20  local     $d (.IO_DRIVER_DATA_NORMAL)
000cae10  local     $d (.IO_DRIVER_CONST)
000cae10  local     .IO_DRIVER_CONST (.IO_DRIVER_CONST)
0803dc20  local     .IO_DRIVER_DATA_NORMAL (.IO_DRIVER_DATA_NORMAL)
00000000  local     .text (.text)
0803dc20  global    Csm_bit_cfg_CAN (.IO_DRIVER_DATA_NORMAL)
000cae10  global    Csm_ch_cfg_CAN (.IO_DRIVER_CONST)


================================================================================

ttc500.lib : drv_csm_vim_cfg.obj

Run/Load            
Value     Binding   Name (Section)
--------  --------  ---------------
000c7f98  local     $C$L1 (.IO_DRIVER_CODE:Csm_Vim_PhantomInterruptCallback)
000c7f60  local     $a (.IO_DRIVER_CODE:Csm_Vim_PhantomInterruptCallback)
0803d0b8  local     $d (.IO_DRIVER_DATA_NORMAL)
000c7f60  local     .IO_DRIVER_CODE:Csm_Vim_PhantomInterruptCallback (.IO_DRIVER_CODE:Csm_Vim_PhantomInterruptCallback)
0803d0b8  local     .IO_DRIVER_DATA_NORMAL (.IO_DRIVER_DATA_NORMAL)
00000000  local     .text (.text)
0803d0b8  global    Csm_Vim_Config (.IO_DRIVER_DATA_NORMAL)
000c7f60  local     Csm_Vim_PhantomInterruptCallback (.IO_DRIVER_CODE:Csm_Vim_PhantomInterruptCallback)


================================================================================

ttc500.lib : drv_csm_mcu_cfg.obj

Run/Load            
Value     Binding   Name (Section)
--------  --------  ---------------
000c8940  local     $C$L1 (.IO_DRIVER_CODE:Csm_Mcu_EsmGroup3PowerUpError)
000c8940  local     $a (.IO_DRIVER_CODE:Csm_Mcu_EsmGroup3PowerUpError)
000ca330  local     $d (.IO_DRIVER_CONST)
000ca3ac  local     $d (.IO_DRIVER_CONST)
000ca464  local     $d (.IO_DRIVER_CONST)
000c8940  local     .IO_DRIVER_CODE:Csm_Mcu_EsmGroup3PowerUpError (.IO_DRIVER_CODE:Csm_Mcu_EsmGroup3PowerUpError)
000ca330  local     .IO_DRIVER_CONST (.IO_DRIVER_CONST)
0803fee0  local     .TI.bound:Csm_Mcu_SharedMem (.TI.bound:Csm_Mcu_SharedMem)
00000000  local     .text (.text)
000ca3ac  global    Csm_Mcu_Config (.IO_DRIVER_CONST)
000ca464  global    Csm_Mcu_ConfigBtld (.IO_DRIVER_CONST)
000c8940  local     Csm_Mcu_EsmGroup3PowerUpError (.IO_DRIVER_CODE:Csm_Mcu_EsmGroup3PowerUpError)
000ca330  local     Csm_Mcu_IommConfig (.IO_DRIVER_CONST)
0803fee0  global    Csm_Mcu_SharedMem (.TI.bound:Csm_Mcu_SharedMem)


================================================================================

ttc500.lib : drv_csm_dma_cfg.obj

Run/Load            
Value     Binding   Name (Section)
--------  --------  ---------------
000c8650  local     $C$L1 (.IO_DRIVER_CODE:Csm_Dma_Wait)
000c8658  local     $C$L2 (.IO_DRIVER_CODE:Csm_Dma_Wait)
000c8630  local     $a (.IO_DRIVER_CODE:Csm_Dma_Wait)
0803d734  local     $d (.IO_DRIVER_DATA_NORMAL)
000cabd4  local     $d (.IO_DRIVER_CONST)
000cac14  local     $d (.IO_DRIVER_CONST)
000cac54  local     $d (.IO_DRIVER_CONST)
000cac94  local     $d (.IO_DRIVER_CONST)
000c8630  local     .IO_DRIVER_CODE:Csm_Dma_Wait (.IO_DRIVER_CODE:Csm_Dma_Wait)
000cabd4  local     .IO_DRIVER_CONST (.IO_DRIVER_CONST)
0803d734  local     .IO_DRIVER_DATA_NORMAL (.IO_DRIVER_DATA_NORMAL)
00000000  local     .text (.text)
0803d734  global    Csm_Dma_ChannelConfig (.IO_DRIVER_DATA_NORMAL)
000cac94  global    Csm_Dma_Config (.IO_DRIVER_CONST)
000cabd4  global    Csm_Dma_MPConfig (.IO_DRIVER_CONST)
000cac54  global    Csm_Dma_TempMPConfig (.IO_DRIVER_CONST)
000cac14  global    Csm_Dma_TestMPConfig (.IO_DRIVER_CONST)
000c8630  global    Csm_Dma_Wait (.IO_DRIVER_CODE:Csm_Dma_Wait)


================================================================================

ttc500.lib : drv_csm_nhet_cfg.obj

Run/Load            
Value     Binding   Name (Section)
--------  --------  ---------------
00000020  local     $C$L1 (.IO_DRIVER_CODE:Csm_Nhet_WaitSwitch)
00000028  local     $C$L2 (.IO_DRIVER_CODE:Csm_Nhet_WaitSwitch)
00000000  local     $a (.IO_DRIVER_CODE:Csm_Nhet_WaitSwitch)
000cb008  local     $d (.IO_DRIVER_CONST)
000cb060  local     $d (.IO_DRIVER_CONST)
00000000  local     .IO_DRIVER_CODE:Csm_Nhet_WaitSwitch (.IO_DRIVER_CODE:Csm_Nhet_WaitSwitch)
000cb008  local     .IO_DRIVER_CONST (.IO_DRIVER_CONST)
00000000  local     .text (.text)
000cb060  global    Csm_Nhet_Config (.IO_DRIVER_CONST)
000cb008  local     Csm_Nhet_SingleConfig (.IO_DRIVER_CONST)
00000000  global    Csm_Nhet_WaitSwitch (.IO_DRIVER_CODE:Csm_Nhet_WaitSwitch)


================================================================================

ttc500.lib : drv_asm_IO_INT_VEC_swi_ASM.obj

Run/Load            
Value     Binding   Name (Section)
--------  --------  ---------------
000b0504  local     $a (.IO_DRIVER_CODE:_io_swi_handler)
000b0504  local     .IO_DRIVER_CODE:_io_swi_handler (.IO_DRIVER_CODE:_io_swi_handler)
00000000  local     .text (.text)
000b0504  global    _io_swi_handler (.IO_DRIVER_CODE:_io_swi_handler)
000b0508  local     endless_loop (.IO_DRIVER_CODE:_io_swi_handler)


================================================================================

ttc500.lib : drv_asm_IO_INT_FPU_ASM.obj

Run/Load            
Value     Binding   Name (Section)
--------  --------  ---------------
000c8850  local     $a (.IO_DRIVER_CODE:IO_INT_FPU_ISR)
000c8850  local     .IO_DRIVER_CODE:IO_INT_FPU_ISR (.IO_DRIVER_CODE:IO_INT_FPU_ISR)
00000000  local     .text (.text)
000c8850  global    IO_INT_FPU_ISR (.IO_DRIVER_CODE:IO_INT_FPU_ISR)


================================================================================

ttc500.lib : drv_asm_IO_INT_VEC_undef_ASM.obj

Run/Load            
Value     Binding   Name (Section)
--------  --------  ---------------
000c8450  local     $a (.IO_DRIVER_CODE:_io_undef_handler)
000c8444  local     $d (.IO_DRIVER_CODE:_io_undef_handler)
000c8444  local     .IO_DRIVER_CODE:_io_undef_handler (.IO_DRIVER_CODE:_io_undef_handler)
00000000  local     .text (.text)
000c8450  global    _io_undef_handler (.IO_DRIVER_CODE:_io_undef_handler)
000c8454  local     c_subhandler (.IO_DRIVER_CODE:_io_undef_handler)
000c8494  local     endless_loop (.IO_DRIVER_CODE:_io_undef_handler)
000c844c  local     handlerPointerOffset (.IO_DRIVER_CODE:_io_undef_handler)
000c8444  local     sharedMemoryAdr (.IO_DRIVER_CODE:_io_undef_handler)
000c8448  local     sharedMemoryOffset (.IO_DRIVER_CODE:_io_undef_handler)


================================================================================

ttc500.lib : drv_asm_IO_INT_MPU_ASM.obj

Run/Load            
Value     Binding   Name (Section)
--------  --------  ---------------
000aff1c  local     $a (.IO_DRIVER_CODE:_mpuEnable_)
000afe44  local     $a (.IO_DRIVER_CODE:_mpuDisable_)
000aff04  local     $a (.IO_DRIVER_CODE:_mpuEnableBackgroundRegion_)
000afe64  local     $a (.IO_DRIVER_CODE:_mpuDisableBackgroundRegion_)
000afe7c  local     $a (.IO_DRIVER_CODE:_mpuSetRegion_)
000afe84  local     $a (.IO_DRIVER_CODE:_mpuSetRegionBaseAddress_)
000afe8c  local     $a (.IO_DRIVER_CODE:_mpuSetRegionTypeAndPermission_)
000afe94  local     $a (.IO_DRIVER_CODE:_mpuSetRegionSizeAndEnable_)
000b0164  local     $a (.IO_DRIVER_CODE:_mpuGetRegionSizeAndEnable_)
000bb034  local     $a (.IO_DRIVER_CODE:_mpuReadState_)
000bb060  local     $a (.IO_DRIVER_CODE:_mpuWriteState_)
000bb104  local     $a (.IO_DRIVER_CODE:_mpuWriteStateDescend_)
000afe64  local     .IO_DRIVER_CODE:_mpuDisableBackgroundRegion_ (.IO_DRIVER_CODE:_mpuDisableBackgroundRegion_)
000afe44  local     .IO_DRIVER_CODE:_mpuDisable_ (.IO_DRIVER_CODE:_mpuDisable_)
000aff04  local     .IO_DRIVER_CODE:_mpuEnableBackgroundRegion_ (.IO_DRIVER_CODE:_mpuEnableBackgroundRegion_)
000aff1c  local     .IO_DRIVER_CODE:_mpuEnable_ (.IO_DRIVER_CODE:_mpuEnable_)
000b0164  local     .IO_DRIVER_CODE:_mpuGetRegionSizeAndEnable_ (.IO_DRIVER_CODE:_mpuGetRegionSizeAndEnable_)
000bb034  local     .IO_DRIVER_CODE:_mpuReadState_ (.IO_DRIVER_CODE:_mpuReadState_)
000afe84  local     .IO_DRIVER_CODE:_mpuSetRegionBaseAddress_ (.IO_DRIVER_CODE:_mpuSetRegionBaseAddress_)
000afe94  local     .IO_DRIVER_CODE:_mpuSetRegionSizeAndEnable_ (.IO_DRIVER_CODE:_mpuSetRegionSizeAndEnable_)
000afe8c  local     .IO_DRIVER_CODE:_mpuSetRegionTypeAndPermission_ (.IO_DRIVER_CODE:_mpuSetRegionTypeAndPermission_)
000afe7c  local     .IO_DRIVER_CODE:_mpuSetRegion_ (.IO_DRIVER_CODE:_mpuSetRegion_)
000bb104  local     .IO_DRIVER_CODE:_mpuWriteStateDescend_ (.IO_DRIVER_CODE:_mpuWriteStateDescend_)
000bb060  local     .IO_DRIVER_CODE:_mpuWriteState_ (.IO_DRIVER_CODE:_mpuWriteState_)
00000000  local     .text (.text)
000afe64  global    _mpuDisableBackgroundRegion_ (.IO_DRIVER_CODE:_mpuDisableBackgroundRegion_)
000afe44  global    _mpuDisable_ (.IO_DRIVER_CODE:_mpuDisable_)
000aff04  global    _mpuEnableBackgroundRegion_ (.IO_DRIVER_CODE:_mpuEnableBackgroundRegion_)
000aff1c  global    _mpuEnable_ (.IO_DRIVER_CODE:_mpuEnable_)
000b0164  global    _mpuGetRegionSizeAndEnable_ (.IO_DRIVER_CODE:_mpuGetRegionSizeAndEnable_)
000bb034  global    _mpuReadState_ (.IO_DRIVER_CODE:_mpuReadState_)
000bb040  local     _mpuReadState_mpuRegion (.IO_DRIVER_CODE:_mpuReadState_)
000afe84  global    _mpuSetRegionBaseAddress_ (.IO_DRIVER_CODE:_mpuSetRegionBaseAddress_)
000afe94  global    _mpuSetRegionSizeAndEnable_ (.IO_DRIVER_CODE:_mpuSetRegionSizeAndEnable_)
000afe8c  global    _mpuSetRegionTypeAndPermission_ (.IO_DRIVER_CODE:_mpuSetRegionTypeAndPermission_)
000afe7c  global    _mpuSetRegion_ (.IO_DRIVER_CODE:_mpuSetRegion_)
000bb104  global    _mpuWriteStateDescend_ (.IO_DRIVER_CODE:_mpuWriteStateDescend_)
000bb10c  local     _mpuWriteStateDescend_mpuRegion (.IO_DRIVER_CODE:_mpuWriteStateDescend_)
000bb060  global    _mpuWriteState_ (.IO_DRIVER_CODE:_mpuWriteState_)
000bb068  local     _mpuWriteState_mpuRegion (.IO_DRIVER_CODE:_mpuWriteState_)


================================================================================

ttc500.lib : drv_asm_IO_INT_DEBUG_ASM.obj

Run/Load            
Value     Binding   Name (Section)
--------  --------  ---------------
000b350c  local     $a (.IO_DRIVER_CODE:IO_INT_DEBUG_ReadDbgBaseAddr)
000b350c  local     .IO_DRIVER_CODE:IO_INT_DEBUG_ReadDbgBaseAddr (.IO_DRIVER_CODE:IO_INT_DEBUG_ReadDbgBaseAddr)
00000000  local     .text (.text)
000b350c  global    IO_INT_DEBUG_ReadDbgBaseAddr (.IO_DRIVER_CODE:IO_INT_DEBUG_ReadDbgBaseAddr)


================================================================================

ttc500.lib : drv_asm_IO_INT_VEC_prefetch_ASM.obj

Run/Load            
Value     Binding   Name (Section)
--------  --------  ---------------
000c83f0  local     $a (.IO_DRIVER_CODE:_io_prefetch_handler)
000c83e4  local     $d (.IO_DRIVER_CODE:_io_prefetch_handler)
000c83e4  local     .IO_DRIVER_CODE:_io_prefetch_handler (.IO_DRIVER_CODE:_io_prefetch_handler)
00000000  local     .text (.text)
000c83f0  global    _io_prefetch_handler (.IO_DRIVER_CODE:_io_prefetch_handler)
000c83f4  local     c_subhandler (.IO_DRIVER_CODE:_io_prefetch_handler)
000c843c  local     endless_loop (.IO_DRIVER_CODE:_io_prefetch_handler)
000c83ec  local     handlerPointerOffset (.IO_DRIVER_CODE:_io_prefetch_handler)
000c83e4  local     sharedMemoryAdr (.IO_DRIVER_CODE:_io_prefetch_handler)
000c83e8  local     sharedMemoryOffset (.IO_DRIVER_CODE:_io_prefetch_handler)


================================================================================

ttc500.lib : drv_asm_IO_INT_ESM_ASM.obj

Run/Load            
Value     Binding   Name (Section)
--------  --------  ---------------
000bb15c  local     $a (.IO_DRIVER_CODE:IO_INT_ESM_HL_ISR)
000bb15c  local     .IO_DRIVER_CODE:IO_INT_ESM_HL_ISR (.IO_DRIVER_CODE:IO_INT_ESM_HL_ISR)
00000000  local     .text (.text)
000bb15c  global    IO_INT_ESM_HL_ISR (.IO_DRIVER_CODE:IO_INT_ESM_HL_ISR)


================================================================================

ttc500.lib : drv_asm_IO_INT_VEC_data_ASM.obj

Run/Load            
Value     Binding   Name (Section)
--------  --------  ---------------
000c8218  local     $a (.IO_DRIVER_CODE:_io_data_handler)
000c81f4  local     $d (.IO_DRIVER_CODE:_io_data_handler)
000c81f4  local     .IO_DRIVER_CODE:_io_data_handler (.IO_DRIVER_CODE:_io_data_handler)
00000000  local     .text (.text)
000c8208  local     DataAbortFlagOffset (.IO_DRIVER_CODE:_io_data_handler)
000c8204  local     L2L3Testrunningoffset (.IO_DRIVER_CODE:_io_data_handler)
000c82f8  local     L2L3continue (.IO_DRIVER_CODE:_io_data_handler)
000c8358  global    _io_data_handler_runtime (.IO_DRIVER_CODE:_io_data_handler)
000c8218  global    _io_data_handler_startup (.IO_DRIVER_CODE:_io_data_handler)
000c8308  local     c_subhandler (.IO_DRIVER_CODE:_io_data_handler)
000c8350  local     endless_loop (.IO_DRIVER_CODE:_io_data_handler)
000c81f4  local     esmSR3 (.IO_DRIVER_CODE:_io_data_handler)
000c8200  local     flashBASE (.IO_DRIVER_CODE:_io_data_handler)
000c82bc  local     flashErrorFound (.IO_DRIVER_CODE:_io_data_handler)
000c82f4  local     flashErrorReal (.IO_DRIVER_CODE:_io_data_handler)
000c8214  local     handlerPointerOffset (.IO_DRIVER_CODE:_io_data_handler)
000c8288  local     jump1 (.IO_DRIVER_CODE:_io_data_handler)
000c81f8  local     ram1CTRL (.IO_DRIVER_CODE:_io_data_handler)
000c81fc  local     ram2CTRL (.IO_DRIVER_CODE:_io_data_handler)
000c8264  local     ramAErrorFound (.IO_DRIVER_CODE:_io_data_handler)
000c8278  local     ramBErrorFound (.IO_DRIVER_CODE:_io_data_handler)
000c82b8  local     ramErrorReal (.IO_DRIVER_CODE:_io_data_handler)
000c820c  local     sharedMemoryAdr (.IO_DRIVER_CODE:_io_data_handler)
000c8210  local     sharedMemoryOffset (.IO_DRIVER_CODE:_io_data_handler)


================================================================================

ttc500.lib : drv_asm_IO_PWM_ASM.obj

Run/Load            
Value     Binding   Name (Section)
--------  --------  ---------------
000bbf70  local     $a (.IO_DRIVER_CODE:IO_PWM_N2HETx_ISR)
000bbf70  local     .IO_DRIVER_CODE:IO_PWM_N2HETx_ISR (.IO_DRIVER_CODE:IO_PWM_N2HETx_ISR)
00000000  local     .text (.text)
000bbf70  global    IO_PWM_N2HETx_ISR (.IO_DRIVER_CODE:IO_PWM_N2HETx_ISR)


================================================================================

ttc500.lib : drv_Csm_Esc.obj

Run/Load            
Value     Binding   Name (Section)
--------  --------  ---------------
000aa1c0  local     $C$L1 (.CSM_CODE:.CSM_CODE_TRIGGERWATCHDOG:Csm_Esc_CheckDevStatusFlags)
000aa8ec  local     $C$L10 (.CSM_CODE:.CSM_CODE_TRIGGERWATCHDOG:Csm_Esc_direct_wav)
000aa8f4  local     $C$L11 (.CSM_CODE:.CSM_CODE_TRIGGERWATCHDOG:Csm_Esc_direct_wav)
000aafb0  local     $C$L12 (.CSM_CODE:.CSM_CODE_TRIGGERWATCHDOG:Csm_Esc_TrigWdt_StartNewTokenSeqRun)
000aaff8  local     $C$L13 (.CSM_CODE:.CSM_CODE_TRIGGERWATCHDOG:Csm_Esc_TrigWdt_To_TooLate)
000ab040  local     $C$L14 (.CSM_CODE:.CSM_CODE_TRIGGERWATCHDOG:Csm_Esc_TrigWdt_To_BorderToOrTooEarly)
000ab054  local     $C$L15 (.CSM_CODE:.CSM_CODE_TRIGGERWATCHDOG:Csm_Esc_TrigWdt_To_BorderToOrTooEarly)
000ab150  local     $C$L16 (.CSM_CODE:.CSM_CODE_TRIGGERWATCHDOG:Csm_Esc_TriggerWatchdog)
000ab1d8  local     $C$L17 (.CSM_CODE:.CSM_CODE_TRIGGERWATCHDOG:Csm_Esc_TriggerWatchdog)
000ab1dc  local     $C$L18 (.CSM_CODE:.CSM_CODE_TRIGGERWATCHDOG:Csm_Esc_TriggerWatchdog)
0000009c  local     $C$L19 (.CSM_CODE:Csm_Esc_SelectDiagChannel)
000aa1e8  local     $C$L2 (.CSM_CODE:.CSM_CODE_TRIGGERWATCHDOG:Csm_Esc_CheckDevStatusFlags)
000000d0  local     $C$L20 (.CSM_CODE:Csm_Esc_SelectDiagChannel)
000000d4  local     $C$L21 (.CSM_CODE:Csm_Esc_SelectDiagChannel)
000aec20  local     $C$L22 (.CSM_CODE:Csm_Esc_PowerDown_ClrCANWUL)
000aa0c4  local     $C$L23 (.CSM_CODE:Csm_Esc_setup_transfer_group)
000aa2b8  local     $C$L24 (.CSM_CODE:Csm_Esc_Init)
000aa354  local     $C$L25 (.CSM_CODE:Csm_Esc_Init)
000aa374  local     $C$L26 (.CSM_CODE:Csm_Esc_Init)
000aa380  local     $C$L27 (.CSM_CODE:Csm_Esc_Init)
000aa388  local     $C$L28 (.CSM_CODE:Csm_Esc_Init)
000aec60  local     $C$L29 (.CSM_CODE:Csm_Esc_ForceTpsReset)
000aa5e0  local     $C$L3 (.CSM_CODE:Csm_Esc_UpdateStatus)
000aec90  local     $C$L30 (.CSM_CODE:Csm_Esc_ForceTpsReset)
000ab988  local     $C$L31 (.CSM_CODE:Csm_Esc_DriverEnable)
000ab98c  local     $C$L32 (.CSM_CODE:Csm_Esc_DriverEnable)
000aae4c  local     $C$L33 (.CSM_CODE:Csm_Esc_DisableDiagnosticModeTimeout)
000ab274  local     $C$L34 (.CSM_CODE:Csm_Esc_DecrementWdtFailureCounter)
000ab278  local     $C$L35 (.CSM_CODE:Csm_Esc_DecrementWdtFailureCounter)
000ab284  local     $C$L36 (.CSM_CODE:Csm_Esc_DecrementWdtFailureCounter)
000ab2ec  local     $C$L37 (.CSM_CODE:Csm_Esc_DecrementWdtFailureCounter)
000ab2f4  local     $C$L38 (.CSM_CODE:Csm_Esc_DecrementWdtFailureCounter)
000ab2f8  local     $C$L39 (.CSM_CODE:Csm_Esc_DecrementWdtFailureCounter)
000aa670  local     $C$L4 (.CSM_CODE:Csm_Esc_UpdateStatus)
000ab304  local     $C$L40 (.CSM_CODE:Csm_Esc_DecrementWdtFailureCounter)
000aaa44  local     $C$L41 (.CSM_CODE:Csm_Esc_Configure)
000aac74  local     $C$L42 (.CSM_CODE:Csm_Esc_Configure)
000aac84  local     $C$L43 (.CSM_CODE:Csm_Esc_Configure)
000aac88  local     $C$L44 (.CSM_CODE:Csm_Esc_Configure)
000aade4  local     $C$L45 (.CSM_CODE:Csm_Esc_ClearErrors)
000aade8  local     $C$L46 (.CSM_CODE:Csm_Esc_ClearErrors)
000ab388  local     $C$L47 (.CSM_CODE:Csm_Esc_GetNext8BitOfDataStream)
000ab4b0  local     $C$L48 (.CSM_CODE:Csm_Esc_calculateDevCfgCrcChecksum)
000ab538  local     $C$L49 (.CSM_CODE:Csm_Esc_SetBit_SAFETY_CHECK_CTRL__CFG_CRC_EN)
000aa894  local     $C$L5 (.CSM_CODE:Csm_Esc_UpdateStatus)
000ab5d8  local     $C$L50 (.CSM_CODE:Csm_Esc_SetBit_SAFETY_BIST_CTRL__EE_CRC_CHK)
000ab664  local     $C$L51 (.CSM_CODE:Csm_Esc_CheckEepromCrc)
000ab6a4  local     $C$L52 (.CSM_CODE:Csm_Esc_CalcAndCheckCrc)
000ab6e8  local     $C$L53 (.CSM_CODE:Csm_Esc_CalcAndCheckCrc)
000ab6f0  local     $C$L54 (.CSM_CODE:Csm_Esc_CalcAndCheckCrc)
000ab6f8  local     $C$L55 (.CSM_CODE:Csm_Esc_CalcAndCheckCrc)
000ab708  local     $C$L56 (.CSM_CODE:Csm_Esc_CalcAndCheckCrc)
000ab728  local     $C$L57 (.CSM_CODE:Csm_Esc_CalcAndCheckCrc)
000ab734  local     $C$L58 (.CSM_CODE:Csm_Esc_CalcAndCheckCrc)
00000074  local     $C$L59 (.CSM_CODE:Csm_Esc_ActivateBist)
000aa898  local     $C$L6 (.CSM_CODE:Csm_Esc_UpdateStatus)
0000007c  local     $C$L60 (.CSM_CODE:Csm_Esc_ActivateBist)
000000a0  local     $C$L61 (.CSM_CODE:Csm_Esc_ActivateBist)
000000a4  local     $C$L62 (.CSM_CODE:Csm_Esc_ActivateBist)
000ab34c  local     $C$L63 (.CSM_CODE:Csm_Esc_SetWdtFailureFunc)
000ab850  local     $C$L64 (.CSM_CODE:Csm_Esc_Activate)
000ab85c  local     $C$L65 (.CSM_CODE:Csm_Esc_Activate)
000aa130  local     $C$L7 (.CSM_CODE:.CSM_CODE_TRIGGERWATCHDOG:Csm_Esc_TxSingleCmd_WaitTxComplete)
000aa174  local     $C$L8 (.CSM_CODE:.CSM_CODE_TRIGGERWATCHDOG:Csm_Esc_TxSingleCmd_WaitTxComplete)
000aa184  local     $C$L9 (.CSM_CODE:.CSM_CODE_TRIGGERWATCHDOG:Csm_Esc_TxSingleCmd_WaitTxComplete)
000aa190  local     $a (.CSM_CODE:.CSM_CODE_TRIGGERWATCHDOG:Csm_Esc_CheckDevStatusFlags)
000aa560  local     $a (.CSM_CODE:Csm_Esc_UpdateStatus)
000aa0d0  local     $a (.CSM_CODE:.CSM_CODE_TRIGGERWATCHDOG:Csm_Esc_TxSingleCmd_WaitTxComplete)
000aa1f0  local     $a (.CSM_CODE:.CSM_CODE_TRIGGERWATCHDOG:Csm_Esc_TransmitTgSingleCmd)
000aaf30  local     $a (.CSM_CODE:.CSM_CODE_TRIGGERWATCHDOG:Csm_Esc_TrigWdt_CheckForCorrectValue)
000aa8a0  local     $a (.CSM_CODE:.CSM_CODE_TRIGGERWATCHDOG:Csm_Esc_direct_wav)
000aaea0  local     $a (.CSM_CODE:.CSM_CODE_TRIGGERWATCHDOG:Csm_Esc_SendWdtTokenResp0to2)
000aaf40  local     $a (.CSM_CODE:.CSM_CODE_TRIGGERWATCHDOG:Csm_Esc_TrigWdt_StartNewTokenSeqRun)
000aafc0  local     $a (.CSM_CODE:.CSM_CODE_TRIGGERWATCHDOG:Csm_Esc_TrigWdt_To_TooLate)
000ab020  local     $a (.CSM_CODE:.CSM_CODE_TRIGGERWATCHDOG:Csm_Esc_TrigWdt_To_BorderToOrTooEarly)
000ab060  local     $a (.CSM_CODE:.CSM_CODE_TRIGGERWATCHDOG:Csm_Esc_TriggerWatchdog)
00000000  local     $a (.CSM_CODE:Csm_Esc_SelectDiagChannel)
000aec00  local     $a (.CSM_CODE:Csm_Esc_PowerDown_ClrCANWUL)
000a9f90  local     $a (.CSM_CODE:Csm_Esc_setup_transfer_group)
000aa270  local     $a (.CSM_CODE:Csm_Esc_Init)
00000000  local     $a (.CSM_CODE:Csm_Esc_GetVersionInfo)
000aec30  local     $a (.CSM_CODE:Csm_Esc_ForceTpsReset)
000ab920  local     $a (.CSM_CODE:Csm_Esc_DriverEnable)
000aadf0  local     $a (.CSM_CODE:Csm_Esc_DisableDiagnosticModeTimeout)
000aae50  local     $a (.CSM_CODE:Csm_Esc_Set_Reg_Win1_Win2)
000ab1e0  local     $a (.CSM_CODE:Csm_Esc_DecrementWdtFailureCounter)
000aa900  local     $a (.CSM_CODE:Csm_Esc_Configure)
000aad50  local     $a (.CSM_CODE:Csm_Esc_ClearErrors)
000ab360  local     $a (.CSM_CODE:Csm_Esc_GetNext8BitOfDataStream)
000ab390  local     $a (.CSM_CODE:Csm_Esc_calculateDevCfgCrcChecksum)
000ab4f0  local     $a (.CSM_CODE:Csm_Esc_SetBit_SAFETY_CHECK_CTRL__CFG_CRC_EN)
000ab540  local     $a (.CSM_CODE:Csm_Esc_CheckDevCfgCrc)
000ab590  local     $a (.CSM_CODE:Csm_Esc_SetBit_SAFETY_BIST_CTRL__EE_CRC_CHK)
000ab5e0  local     $a (.CSM_CODE:Csm_Esc_CheckEepromCrc)
000ab670  local     $a (.CSM_CODE:Csm_Esc_CalcAndCheckCrc)
00000000  local     $a (.CSM_CODE:Csm_Esc_CheckCrcs)
000ab740  local     $a (.CSM_CODE:Csm_Esc_ActivateWriteAccessLockProtection)
00000000  local     $a (.CSM_CODE:Csm_Esc_ActivateBist)
000ab310  local     $a (.CSM_CODE:Csm_Esc_SetWdtFailureFunc)
000ab770  local     $a (.CSM_CODE:Csm_Esc_Activate)
000afba0  local     $d (.CSM_CONST:.CSM_CONST_TRIGGERWATCHDOG)
000af850  local     $d (.CSM_CONST)
000aa190  local     .CSM_CODE:.CSM_CODE_TRIGGERWATCHDOG:Csm_Esc_CheckDevStatusFlags (.CSM_CODE:.CSM_CODE_TRIGGERWATCHDOG:Csm_Esc_CheckDevStatusFlags)
000aaea0  local     .CSM_CODE:.CSM_CODE_TRIGGERWATCHDOG:Csm_Esc_SendWdtTokenResp0to2 (.CSM_CODE:.CSM_CODE_TRIGGERWATCHDOG:Csm_Esc_SendWdtTokenResp0to2)
000aa1f0  local     .CSM_CODE:.CSM_CODE_TRIGGERWATCHDOG:Csm_Esc_TransmitTgSingleCmd (.CSM_CODE:.CSM_CODE_TRIGGERWATCHDOG:Csm_Esc_TransmitTgSingleCmd)
000aaf30  local     .CSM_CODE:.CSM_CODE_TRIGGERWATCHDOG:Csm_Esc_TrigWdt_CheckForCorrectValue (.CSM_CODE:.CSM_CODE_TRIGGERWATCHDOG:Csm_Esc_TrigWdt_CheckForCorrectValue)
000aaf40  local     .CSM_CODE:.CSM_CODE_TRIGGERWATCHDOG:Csm_Esc_TrigWdt_StartNewTokenSeqRun (.CSM_CODE:.CSM_CODE_TRIGGERWATCHDOG:Csm_Esc_TrigWdt_StartNewTokenSeqRun)
000ab020  local     .CSM_CODE:.CSM_CODE_TRIGGERWATCHDOG:Csm_Esc_TrigWdt_To_BorderToOrTooEarly (.CSM_CODE:.CSM_CODE_TRIGGERWATCHDOG:Csm_Esc_TrigWdt_To_BorderToOrTooEarly)
000aafc0  local     .CSM_CODE:.CSM_CODE_TRIGGERWATCHDOG:Csm_Esc_TrigWdt_To_TooLate (.CSM_CODE:.CSM_CODE_TRIGGERWATCHDOG:Csm_Esc_TrigWdt_To_TooLate)
000ab060  local     .CSM_CODE:.CSM_CODE_TRIGGERWATCHDOG:Csm_Esc_TriggerWatchdog (.CSM_CODE:.CSM_CODE_TRIGGERWATCHDOG:Csm_Esc_TriggerWatchdog)
000aa0d0  local     .CSM_CODE:.CSM_CODE_TRIGGERWATCHDOG:Csm_Esc_TxSingleCmd_WaitTxComplete (.CSM_CODE:.CSM_CODE_TRIGGERWATCHDOG:Csm_Esc_TxSingleCmd_WaitTxComplete)
000aa8a0  local     .CSM_CODE:.CSM_CODE_TRIGGERWATCHDOG:Csm_Esc_direct_wav (.CSM_CODE:.CSM_CODE_TRIGGERWATCHDOG:Csm_Esc_direct_wav)
000ab770  local     .CSM_CODE:Csm_Esc_Activate (.CSM_CODE:Csm_Esc_Activate)
00000000  local     .CSM_CODE:Csm_Esc_ActivateBist (.CSM_CODE:Csm_Esc_ActivateBist)
000ab740  local     .CSM_CODE:Csm_Esc_ActivateWriteAccessLockProtection (.CSM_CODE:Csm_Esc_ActivateWriteAccessLockProtection)
000ab670  local     .CSM_CODE:Csm_Esc_CalcAndCheckCrc (.CSM_CODE:Csm_Esc_CalcAndCheckCrc)
00000000  local     .CSM_CODE:Csm_Esc_CheckCrcs (.CSM_CODE:Csm_Esc_CheckCrcs)
000ab540  local     .CSM_CODE:Csm_Esc_CheckDevCfgCrc (.CSM_CODE:Csm_Esc_CheckDevCfgCrc)
000ab5e0  local     .CSM_CODE:Csm_Esc_CheckEepromCrc (.CSM_CODE:Csm_Esc_CheckEepromCrc)
000aad50  local     .CSM_CODE:Csm_Esc_ClearErrors (.CSM_CODE:Csm_Esc_ClearErrors)
000aa900  local     .CSM_CODE:Csm_Esc_Configure (.CSM_CODE:Csm_Esc_Configure)
000ab1e0  local     .CSM_CODE:Csm_Esc_DecrementWdtFailureCounter (.CSM_CODE:Csm_Esc_DecrementWdtFailureCounter)
000aadf0  local     .CSM_CODE:Csm_Esc_DisableDiagnosticModeTimeout (.CSM_CODE:Csm_Esc_DisableDiagnosticModeTimeout)
000ab920  local     .CSM_CODE:Csm_Esc_DriverEnable (.CSM_CODE:Csm_Esc_DriverEnable)
000aec30  local     .CSM_CODE:Csm_Esc_ForceTpsReset (.CSM_CODE:Csm_Esc_ForceTpsReset)
000ab360  local     .CSM_CODE:Csm_Esc_GetNext8BitOfDataStream (.CSM_CODE:Csm_Esc_GetNext8BitOfDataStream)
00000000  local     .CSM_CODE:Csm_Esc_GetVersionInfo (.CSM_CODE:Csm_Esc_GetVersionInfo)
000aa270  local     .CSM_CODE:Csm_Esc_Init (.CSM_CODE:Csm_Esc_Init)
000aec00  local     .CSM_CODE:Csm_Esc_PowerDown_ClrCANWUL (.CSM_CODE:Csm_Esc_PowerDown_ClrCANWUL)
00000000  local     .CSM_CODE:Csm_Esc_SelectDiagChannel (.CSM_CODE:Csm_Esc_SelectDiagChannel)
000ab590  local     .CSM_CODE:Csm_Esc_SetBit_SAFETY_BIST_CTRL__EE_CRC_CHK (.CSM_CODE:Csm_Esc_SetBit_SAFETY_BIST_CTRL__EE_CRC_CHK)
000ab4f0  local     .CSM_CODE:Csm_Esc_SetBit_SAFETY_CHECK_CTRL__CFG_CRC_EN (.CSM_CODE:Csm_Esc_SetBit_SAFETY_CHECK_CTRL__CFG_CRC_EN)
000ab310  local     .CSM_CODE:Csm_Esc_SetWdtFailureFunc (.CSM_CODE:Csm_Esc_SetWdtFailureFunc)
000aae50  local     .CSM_CODE:Csm_Esc_Set_Reg_Win1_Win2 (.CSM_CODE:Csm_Esc_Set_Reg_Win1_Win2)
000aa560  local     .CSM_CODE:Csm_Esc_UpdateStatus (.CSM_CODE:Csm_Esc_UpdateStatus)
000ab390  local     .CSM_CODE:Csm_Esc_calculateDevCfgCrcChecksum (.CSM_CODE:Csm_Esc_calculateDevCfgCrcChecksum)
000a9f90  local     .CSM_CODE:Csm_Esc_setup_transfer_group (.CSM_CODE:Csm_Esc_setup_transfer_group)
000af850  local     .CSM_CONST (.CSM_CONST)
000afba0  local     .CSM_CONST:.CSM_CONST_TRIGGERWATCHDOG (.CSM_CONST:.CSM_CONST_TRIGGERWATCHDOG)
08038000  local     .CSM_VAR_ZERO_INIT_UNSPECIFIED (.CSM_VAR_ZERO_INIT_UNSPECIFIED)
00000000  local     .text (.text)
000ab770  global    Csm_Esc_Activate (.CSM_CODE:Csm_Esc_Activate)
00000000  global    Csm_Esc_ActivateBist (.CSM_CODE:Csm_Esc_ActivateBist)
000ab740  global    Csm_Esc_ActivateWriteAccessLockProtection (.CSM_CODE:Csm_Esc_ActivateWriteAccessLockProtection)
000ab670  local     Csm_Esc_CalcAndCheckCrc (.CSM_CODE:Csm_Esc_CalcAndCheckCrc)
00000000  global    Csm_Esc_CheckCrcs (.CSM_CODE:Csm_Esc_CheckCrcs)
000ab540  local     Csm_Esc_CheckDevCfgCrc (.CSM_CODE:Csm_Esc_CheckDevCfgCrc)
000aa190  local     Csm_Esc_CheckDevStatusFlags (.CSM_CODE:.CSM_CODE_TRIGGERWATCHDOG:Csm_Esc_CheckDevStatusFlags)
000ab5e0  local     Csm_Esc_CheckEepromCrc (.CSM_CODE:Csm_Esc_CheckEepromCrc)
000aad50  global    Csm_Esc_ClearErrors (.CSM_CODE:Csm_Esc_ClearErrors)
000aa900  global    Csm_Esc_Configure (.CSM_CODE:Csm_Esc_Configure)
000ab1e0  global    Csm_Esc_DecrementWdtFailureCounter (.CSM_CODE:Csm_Esc_DecrementWdtFailureCounter)
000aadf0  global    Csm_Esc_DisableDiagnosticModeTimeout (.CSM_CODE:Csm_Esc_DisableDiagnosticModeTimeout)
000ab920  global    Csm_Esc_DriverEnable (.CSM_CODE:Csm_Esc_DriverEnable)
000aec30  global    Csm_Esc_ForceTpsReset (.CSM_CODE:Csm_Esc_ForceTpsReset)
000ab360  local     Csm_Esc_GetNext8BitOfDataStream (.CSM_CODE:Csm_Esc_GetNext8BitOfDataStream)
00000000  global    Csm_Esc_GetVersionInfo (.CSM_CODE:Csm_Esc_GetVersionInfo)
000aa270  global    Csm_Esc_Init (.CSM_CODE:Csm_Esc_Init)
000aec00  global    Csm_Esc_PowerDown_ClrCANWUL (.CSM_CODE:Csm_Esc_PowerDown_ClrCANWUL)
00000000  global    Csm_Esc_SelectDiagChannel (.CSM_CODE:Csm_Esc_SelectDiagChannel)
000aaea0  local     Csm_Esc_SendWdtTokenResp0to2 (.CSM_CODE:.CSM_CODE_TRIGGERWATCHDOG:Csm_Esc_SendWdtTokenResp0to2)
000ab590  local     Csm_Esc_SetBit_SAFETY_BIST_CTRL__EE_CRC_CHK (.CSM_CODE:Csm_Esc_SetBit_SAFETY_BIST_CTRL__EE_CRC_CHK)
000ab4f0  local     Csm_Esc_SetBit_SAFETY_CHECK_CTRL__CFG_CRC_EN (.CSM_CODE:Csm_Esc_SetBit_SAFETY_CHECK_CTRL__CFG_CRC_EN)
000ab310  local     Csm_Esc_SetWdtFailureFunc (.CSM_CODE:Csm_Esc_SetWdtFailureFunc)
000aae50  local     Csm_Esc_Set_Reg_Win1_Win2 (.CSM_CODE:Csm_Esc_Set_Reg_Win1_Win2)
000aa1f0  local     Csm_Esc_TransmitTgSingleCmd (.CSM_CODE:.CSM_CODE_TRIGGERWATCHDOG:Csm_Esc_TransmitTgSingleCmd)
000aaf30  local     Csm_Esc_TrigWdt_CheckForCorrectValue (.CSM_CODE:.CSM_CODE_TRIGGERWATCHDOG:Csm_Esc_TrigWdt_CheckForCorrectValue)
000aaf40  local     Csm_Esc_TrigWdt_StartNewTokenSeqRun (.CSM_CODE:.CSM_CODE_TRIGGERWATCHDOG:Csm_Esc_TrigWdt_StartNewTokenSeqRun)
000ab020  local     Csm_Esc_TrigWdt_To_BorderToOrTooEarly (.CSM_CODE:.CSM_CODE_TRIGGERWATCHDOG:Csm_Esc_TrigWdt_To_BorderToOrTooEarly)
000aafc0  local     Csm_Esc_TrigWdt_To_TooLate (.CSM_CODE:.CSM_CODE_TRIGGERWATCHDOG:Csm_Esc_TrigWdt_To_TooLate)
000ab060  global    Csm_Esc_TriggerWatchdog (.CSM_CODE:.CSM_CODE_TRIGGERWATCHDOG:Csm_Esc_TriggerWatchdog)
000aa0d0  local     Csm_Esc_TxSingleCmd_WaitTxComplete (.CSM_CODE:.CSM_CODE_TRIGGERWATCHDOG:Csm_Esc_TxSingleCmd_WaitTxComplete)
000aa560  global    Csm_Esc_UpdateStatus (.CSM_CODE:Csm_Esc_UpdateStatus)
000ab390  local     Csm_Esc_calculateDevCfgCrcChecksum (.CSM_CODE:Csm_Esc_calculateDevCfgCrcChecksum)
000aa8a0  local     Csm_Esc_direct_wav (.CSM_CODE:.CSM_CODE_TRIGGERWATCHDOG:Csm_Esc_direct_wav)
000a9f90  local     Csm_Esc_setup_transfer_group (.CSM_CODE:Csm_Esc_setup_transfer_group)
08038000  local     Csm_Esc_state (.CSM_VAR_ZERO_INIT_UNSPECIFIED)
000af850  local     DevCfg_crcTable_u8 (.CSM_CONST)
000afba0  local     TpsWdResponses_u16 (.CSM_CONST:.CSM_CONST_TRIGGERWATCHDOG)


================================================================================

ttc500.lib : drv_Csm_Dcc.obj

Run/Load            
Value     Binding   Name (Section)
--------  --------  ---------------
00000024  local     $C$L1 (.CSM_CODE:Csm_Dcc_SetSeed)
000a51a8  local     $C$L10 (.CSM_CODE:Csm_Dcc_SelfTest)
000a51cc  local     $C$L11 (.CSM_CODE:Csm_Dcc_SelfTest)
000a70a0  local     $C$L12 (.CSM_CODE:Csm_Dcc_CheckClockSource)
000a70e0  local     $C$L13 (.CSM_CODE:Csm_Dcc_CheckClockSource)
000a70ec  local     $C$L14 (.CSM_CODE:Csm_Dcc_CheckClockSource)
000a70f4  local     $C$L15 (.CSM_CODE:Csm_Dcc_CheckClockSource)
000a70f8  local     $C$L16 (.CSM_CODE:Csm_Dcc_CheckClockSource)
0000003c  local     $C$L17 (.CSM_CODE:Csm_Dcc_SelectClockSource)
00000054  local     $C$L18 (.CSM_CODE:Csm_Dcc_SelectClockSource)
000a7160  local     $C$L19 (.CSM_CODE:Csm_Dcc_Init)
00000028  local     $C$L2 (.CSM_CODE:Csm_Dcc_SetSeed)
000a7194  local     $C$L20 (.CSM_CODE:Csm_Dcc_Init)
000a7210  local     $C$L21 (.CSM_CODE:Csm_Dcc_Init)
000a7218  local     $C$L22 (.CSM_CODE:Csm_Dcc_Init)
00000030  local     $C$L23 (.CSM_CODE:Csm_Dcc_GetErrStatus)
00000034  local     $C$L24 (.CSM_CODE:Csm_Dcc_GetErrStatus)
00000024  local     $C$L25 (.CSM_CODE:Csm_Dcc_Enable)
00000028  local     $C$L26 (.CSM_CODE:Csm_Dcc_Enable)
00000064  local     $C$L27 (.CSM_CODE:Csm_Dcc_Enable)
00000024  local     $C$L28 (.CSM_CODE:Csm_Dcc_Disable)
00000028  local     $C$L29 (.CSM_CODE:Csm_Dcc_Disable)
0000005c  local     $C$L3 (.CSM_CODE:Csm_Dcc_SetSeed)
00000064  local     $C$L4 (.CSM_CODE:Csm_Dcc_SetSeed)
000a50c0  local     $C$L5 (.CSM_CODE:Csm_Dcc_SelfTest)
000a50d0  local     $C$L6 (.CSM_CODE:Csm_Dcc_SelfTest)
000a5194  local     $C$L7 (.CSM_CODE:Csm_Dcc_SelfTest)
000a519c  local     $C$L8 (.CSM_CODE:Csm_Dcc_SelfTest)
000a51a0  local     $C$L9 (.CSM_CODE:Csm_Dcc_SelfTest)
00000000  local     $a (.CSM_CODE:Csm_Dcc_SetSeed)
000a5080  local     $a (.CSM_CODE:Csm_Dcc_SelfTest)
000a7070  local     $a (.CSM_CODE:Csm_Dcc_CheckClockSource)
00000000  local     $a (.CSM_CODE:Csm_Dcc_SelectClockSource)
000a7100  local     $a (.CSM_CODE:Csm_Dcc_Init)
00000000  local     $a (.CSM_CODE:Csm_Dcc_GetVersionInfo)
00000000  local     $a (.CSM_CODE:Csm_Dcc_GetErrStatus)
00000000  local     $a (.CSM_CODE:Csm_Dcc_Enable)
00000000  local     $a (.CSM_CODE:Csm_Dcc_Disable)
000a7070  local     .CSM_CODE:Csm_Dcc_CheckClockSource (.CSM_CODE:Csm_Dcc_CheckClockSource)
00000000  local     .CSM_CODE:Csm_Dcc_Disable (.CSM_CODE:Csm_Dcc_Disable)
00000000  local     .CSM_CODE:Csm_Dcc_Enable (.CSM_CODE:Csm_Dcc_Enable)
00000000  local     .CSM_CODE:Csm_Dcc_GetErrStatus (.CSM_CODE:Csm_Dcc_GetErrStatus)
00000000  local     .CSM_CODE:Csm_Dcc_GetVersionInfo (.CSM_CODE:Csm_Dcc_GetVersionInfo)
000a7100  local     .CSM_CODE:Csm_Dcc_Init (.CSM_CODE:Csm_Dcc_Init)
00000000  local     .CSM_CODE:Csm_Dcc_SelectClockSource (.CSM_CODE:Csm_Dcc_SelectClockSource)
000a5080  local     .CSM_CODE:Csm_Dcc_SelfTest (.CSM_CODE:Csm_Dcc_SelfTest)
00000000  local     .CSM_CODE:Csm_Dcc_SetSeed (.CSM_CODE:Csm_Dcc_SetSeed)
00000000  local     .text (.text)
000a7070  local     Csm_Dcc_CheckClockSource (.CSM_CODE:Csm_Dcc_CheckClockSource)
00000000  global    Csm_Dcc_Disable (.CSM_CODE:Csm_Dcc_Disable)
00000000  global    Csm_Dcc_Enable (.CSM_CODE:Csm_Dcc_Enable)
00000000  global    Csm_Dcc_GetErrStatus (.CSM_CODE:Csm_Dcc_GetErrStatus)
00000000  global    Csm_Dcc_GetVersionInfo (.CSM_CODE:Csm_Dcc_GetVersionInfo)
000a7100  global    Csm_Dcc_Init (.CSM_CODE:Csm_Dcc_Init)
00000000  global    Csm_Dcc_SelectClockSource (.CSM_CODE:Csm_Dcc_SelectClockSource)
000a5080  global    Csm_Dcc_SelfTest (.CSM_CODE:Csm_Dcc_SelfTest)
00000000  global    Csm_Dcc_SetSeed (.CSM_CODE:Csm_Dcc_SetSeed)


================================================================================

ttc500.lib : drv_Csm_Can.obj

Run/Load            
Value     Binding   Name (Section)
--------  --------  ---------------
000a6ff0  local     $C$L1 (.CSM_CODE:selectChannel)
000ac374  local     $C$L10 (.CSM_CODE:check_Data_Frame)
000abbd0  local     $C$L100 (.CSM_CODE:Csm_Can_TestRamSection)
000abbd8  local     $C$L101 (.CSM_CODE:Csm_Can_TestRamSection)
000abbe0  local     $C$L102 (.CSM_CODE:Csm_Can_TestRamSection)
000abc10  local     $C$L103 (.CSM_CODE:Csm_Can_InitRamSection)
000abc18  local     $C$L104 (.CSM_CODE:Csm_Can_InitRamSection)
000abc20  local     $C$L105 (.CSM_CODE:Csm_Can_InitRamSection)
000abc70  local     $C$L106 (.CSM_CODE:Csm_Can_ClearMsgVal)
000abc90  local     $C$L107 (.CSM_CODE:Csm_Can_ClearMsgVal)
000abca0  local     $C$L108 (.CSM_CODE:Csm_Can_ClearMsgVal)
000abce0  local     $C$L109 (.CSM_CODE:Csm_Can_ClearMsgVal)
000ac4a0  local     $C$L11 (.CSM_CODE:Csm_Can_WriteMsgReadData)
000abce4  local     $C$L110 (.CSM_CODE:Csm_Can_ClearMsgVal)
000abce8  local     $C$L111 (.CSM_CODE:Csm_Can_ClearMsgVal)
000abe68  local     $C$L112 (.CSM_CODE:Csm_Can_Init)
000abee4  local     $C$L113 (.CSM_CODE:Csm_Can_Init)
000abf38  local     $C$L114 (.CSM_CODE:Csm_Can_Init)
000abf3c  local     $C$L115 (.CSM_CODE:Csm_Can_Init)
00000040  local     $C$L116 (.CSM_CODE:Csm_Can_FifoStatus_CheckResult)
00000050  local     $C$L117 (.CSM_CODE:Csm_Can_FifoStatus_CheckResult)
000000a0  local     $C$L118 (.CSM_CODE:Csm_Can_FifoStatus)
000001c4  local     $C$L119 (.CSM_CODE:Csm_Can_FifoStatus)
000ac4b4  local     $C$L12 (.CSM_CODE:Csm_Can_WriteMsgReadData)
000001e0  local     $C$L120 (.CSM_CODE:Csm_Can_FifoStatus)
0000025c  local     $C$L121 (.CSM_CODE:Csm_Can_FifoStatus)
00000260  local     $C$L122 (.CSM_CODE:Csm_Can_FifoStatus)
0000026c  local     $C$L123 (.CSM_CODE:Csm_Can_FifoStatus)
00000278  local     $C$L124 (.CSM_CODE:Csm_Can_FifoStatus)
000a7064  local     $C$L125 (.CSM_CODE:Csm_Can_EnterInitMode)
000a7068  local     $C$L126 (.CSM_CODE:Csm_Can_EnterInitMode)
00000040  local     $C$L127 (.CSM_CODE:Csm_Can_DeInitMsg)
00000048  local     $C$L128 (.CSM_CODE:Csm_Can_DeInitMsg)
000000c0  local     $C$L129 (.CSM_CODE:Csm_Can_DeInitMsg)
000ac4c0  local     $C$L13 (.CSM_CODE:Csm_Can_WriteMsgReadData)
000000c4  local     $C$L130 (.CSM_CODE:Csm_Can_DeInitMsg)
00000060  local     $C$L131 (.CSM_CODE:Csm_Can_DeInitFifo)
000000c4  local     $C$L132 (.CSM_CODE:Csm_Can_DeInitFifo)
000000d0  local     $C$L133 (.CSM_CODE:Csm_Can_DeInitFifo)
000000d8  local     $C$L134 (.CSM_CODE:Csm_Can_DeInitFifo)
00000088  local     $C$L135 (.CSM_CODE:Csm_Can_DeInit)
0000007c  local     $C$L136 (.CSM_CODE:Csm_Can_AcknowledgeInterrupt)
00000080  local     $C$L137 (.CSM_CODE:Csm_Can_AcknowledgeInterrupt)
000ac4d0  local     $C$L14 (.CSM_CODE:Csm_Can_WriteMsgReadData)
000ac4e0  local     $C$L15 (.CSM_CODE:Csm_Can_WriteMsgReadData)
000ac554  local     $C$L16 (.CSM_CODE:Csm_Can_WriteMsgUpdateHw)
000ac560  local     $C$L17 (.CSM_CODE:Csm_Can_WriteMsgUpdateHw)
000ac5fc  local     $C$L18 (.CSM_CODE:Csm_Can_WriteMsg)
000ac678  local     $C$L19 (.CSM_CODE:Csm_Can_WriteTransmitMsg)
000a6ff8  local     $C$L2 (.CSM_CODE:selectChannel)
00000124  local     $C$L20 (.CSM_CODE:Csm_Can_ReadMsg)
0000013c  local     $C$L21 (.CSM_CODE:Csm_Can_ReadMsg)
00000058  local     $C$L22 (.CSM_CODE:Csm_Can_Test_IOLoopback)
0000005c  local     $C$L23 (.CSM_CODE:Csm_Can_Test_IOLoopback)
000000e0  local     $C$L24 (.CSM_CODE:Csm_Can_Test_IOLoopback)
00000118  local     $C$L25 (.CSM_CODE:Csm_Can_Test_IOLoopback)
0000011c  local     $C$L26 (.CSM_CODE:Csm_Can_Test_IOLoopback)
00000120  local     $C$L27 (.CSM_CODE:Csm_Can_Test_IOLoopback)
00000144  local     $C$L28 (.CSM_CODE:Csm_Can_Test_IOLoopback)
00000148  local     $C$L29 (.CSM_CODE:Csm_Can_Test_IOLoopback)
000ac20c  local     $C$L3 (.CSM_CODE:Csm_Can_CheckCommon)
0000014c  local     $C$L30 (.CSM_CODE:Csm_Can_Test_IOLoopback)
00000020  local     $C$L31 (.CSM_CODE:selectCanParityDef)
000abb20  local     $C$L32 (.CSM_CODE:Csm_Can_EnterPowerDownMode)
000abb38  local     $C$L33 (.CSM_CODE:Csm_Can_EnterPowerDownMode)
000abb68  local     $C$L34 (.CSM_CODE:Csm_Can_EnterPowerDownMode)
000abb70  local     $C$L35 (.CSM_CODE:Csm_Can_EnterPowerDownMode)
000abb9c  local     $C$L36 (.CSM_CODE:Csm_Can_EnterInitializationMode)
00000120  local     $C$L37 (.CSM_CODE:Csm_Can_TestRamParity)
00000138  local     $C$L38 (.CSM_CODE:Csm_Can_TestRamParity)
00000144  local     $C$L39 (.CSM_CODE:Csm_Can_TestRamParity)
000ac214  local     $C$L4 (.CSM_CODE:Csm_Can_CheckCommon)
00000148  local     $C$L40 (.CSM_CODE:Csm_Can_TestRamParity)
000000a4  local     $C$L41 (.CSM_CODE:Csm_Can_Status)
00000078  local     $C$L42 (.CSM_CODE:Csm_Can_StartBusOffRecovery)
0000005c  local     $C$L43 (.CSM_CODE:Csm_Can_FifoCheckCommon)
00000064  local     $C$L44 (.CSM_CODE:Csm_Can_FifoCheckCommon)
00000060  local     $C$L45 (.CSM_CODE:Csm_Can_SendRequestFifo)
00000094  local     $C$L46 (.CSM_CODE:Csm_Can_SendRequestFifo)
000000e8  local     $C$L47 (.CSM_CODE:Csm_Can_SendRequestFifo)
000000f0  local     $C$L48 (.CSM_CODE:Csm_Can_SendRequestFifo)
0000011c  local     $C$L49 (.CSM_CODE:Csm_Can_SendRequestFifo)
000ac21c  local     $C$L5 (.CSM_CODE:Csm_Can_CheckCommon)
00000120  local     $C$L50 (.CSM_CODE:Csm_Can_SendRequestFifo)
00000094  local     $C$L51 (.CSM_CODE:Csm_Can_SendRequest)
000000a0  local     $C$L52 (.CSM_CODE:Csm_Can_SendRequest)
000000d4  local     $C$L53 (.CSM_CODE:Csm_Can_SendRequest)
000000d4  local     $C$L54 (.CSM_CODE:Csm_Can_ReadMessageFifo)
000000e0  local     $C$L55 (.CSM_CODE:Csm_Can_ReadMessageFifo)
000000a0  local     $C$L56 (.CSM_CODE:Csm_Can_ReadFifo)
00000138  local     $C$L57 (.CSM_CODE:Csm_Can_ReadFifo)
0000013c  local     $C$L58 (.CSM_CODE:Csm_Can_ReadFifo)
0000014c  local     $C$L59 (.CSM_CODE:Csm_Can_ReadFifo)
000ac224  local     $C$L6 (.CSM_CODE:Csm_Can_CheckCommon)
00000024  local     $C$L60 (.CSM_CODE:Csm_Can_ReadBusyBit)
0000002c  local     $C$L61 (.CSM_CODE:Csm_Can_ReadBusyBit)
0000005c  local     $C$L62 (.CSM_CODE:Csm_Can_ReadBusyBit)
00000160  local     $C$L63 (.CSM_CODE:Csm_Can_ReadBackCfg)
00000188  local     $C$L64 (.CSM_CODE:Csm_Can_ReadBackCfg)
000001fc  local     $C$L65 (.CSM_CODE:Csm_Can_ReadBackCfg)
000ac2d8  local     $C$L66 (.CSM_CODE:Csm_Can_MsgStatus)
000ac2e0  local     $C$L67 (.CSM_CODE:Csm_Can_MsgStatus)
000ac310  local     $C$L68 (.CSM_CODE:Csm_Can_MsgStatus)
000abf80  local     $C$L69 (.CSM_CODE:check_ArbId_Mask)
000ac22c  local     $C$L7 (.CSM_CODE:Csm_Can_CheckCommon)
000abf90  local     $C$L70 (.CSM_CODE:check_ArbId_Mask)
000abfec  local     $C$L71 (.CSM_CODE:check_Message_Config)
000abff4  local     $C$L72 (.CSM_CODE:check_Message_Config)
000ac018  local     $C$L73 (.CSM_CODE:check_Message_Config)
000ac020  local     $C$L74 (.CSM_CODE:check_Message_Config)
000ac034  local     $C$L75 (.CSM_CODE:check_Message_Config)
000ac070  local     $C$L76 (.CSM_CODE:Csm_Can_SetFormat)
000ac090  local     $C$L77 (.CSM_CODE:Csm_Can_SetFormat)
000ac12c  local     $C$L78 (.CSM_CODE:Csm_Can_InitMsg)
000ac1c4  local     $C$L79 (.CSM_CODE:Csm_Can_InitMsg)
000ac360  local     $C$L8 (.CSM_CODE:check_Data_Frame)
00000050  local     $C$L80 (.CSM_CODE:check_Fifo_Config)
00000058  local     $C$L81 (.CSM_CODE:check_Fifo_Config)
00000080  local     $C$L82 (.CSM_CODE:check_Fifo_Config)
00000088  local     $C$L83 (.CSM_CODE:check_Fifo_Config)
0000009c  local     $C$L84 (.CSM_CODE:check_Fifo_Config)
00000070  local     $C$L85 (.CSM_CODE:Csm_Can_InitFifo)
00000130  local     $C$L86 (.CSM_CODE:Csm_Can_InitFifo)
00000150  local     $C$L87 (.CSM_CODE:Csm_Can_InitFifo)
000001c0  local     $C$L88 (.CSM_CODE:Csm_Can_InitFifo)
000001d8  local     $C$L89 (.CSM_CODE:Csm_Can_InitFifo)
000ac36c  local     $C$L9 (.CSM_CODE:check_Data_Frame)
000001e8  local     $C$L90 (.CSM_CODE:Csm_Can_InitFifo)
000001ec  local     $C$L91 (.CSM_CODE:Csm_Can_InitFifo)
00000200  local     $C$L92 (.CSM_CODE:Csm_Can_InitFifo)
000aba24  local     $C$L93 (.CSM_CODE:check_BitTiming_Config)
000aba28  local     $C$L94 (.CSM_CODE:check_BitTiming_Config)
000aba40  local     $C$L95 (.CSM_CODE:check_BitTiming_Config)
000aba44  local     $C$L96 (.CSM_CODE:check_BitTiming_Config)
000aba5c  local     $C$L97 (.CSM_CODE:check_BitTiming_Config)
000abaa0  local     $C$L98 (.CSM_CODE:check_Can_Config)
000abab0  local     $C$L99 (.CSM_CODE:check_Can_Config)
000a6fc0  local     $a (.CSM_CODE:selectChannel)
000ac1d0  local     $a (.CSM_CODE:Csm_Can_CheckCommon)
000ac230  local     $a (.CSM_CODE:Csm_Can_CheckCommonMsg)
000ac320  local     $a (.CSM_CODE:check_Data_Frame)
000ac380  local     $a (.CSM_CODE:Csm_Can_CheckMessageConfigured)
000abc30  local     $a (.CSM_CODE:Csm_Can_GetIF12)
000ac3b0  local     $a (.CSM_CODE:Csm_Can_WriteMsgReadData)
000ac4f0  local     $a (.CSM_CODE:Csm_Can_WriteMsgUpdateHw)
000ac570  local     $a (.CSM_CODE:Csm_Can_WriteMsg)
000ac610  local     $a (.CSM_CODE:Csm_Can_WriteTransmitMsg)
00000000  local     $a (.CSM_CODE:Csm_Can_CopyRxData)
00000000  local     $a (.CSM_CODE:Csm_Can_ReadMsg)
00000000  local     $a (.CSM_CODE:Csm_Can_Test_IOLoopback)
00000000  local     $a (.CSM_CODE:selectCanParityDef)
000abae0  local     $a (.CSM_CODE:Csm_Can_EnterPowerDownMode)
000abb80  local     $a (.CSM_CODE:Csm_Can_EnterInitializationMode)
00000000  local     $a (.CSM_CODE:Csm_Can_TestRamParity)
00000000  local     $a (.CSM_CODE:Csm_Can_Status)
00000000  local     $a (.CSM_CODE:Csm_Can_StartBusOffRecovery)
00000000  local     $a (.CSM_CODE:Csm_Can_FifoCheckCommon)
00000000  local     $a (.CSM_CODE:Csm_Can_SendRequestFifo)
00000000  local     $a (.CSM_CODE:Csm_Can_SendRequest)
00000000  local     $a (.CSM_CODE:Csm_Can_ReadInterruptRegister)
00000000  local     $a (.CSM_CODE:Csm_Can_ReadFifoCheck)
00000000  local     $a (.CSM_CODE:Csm_Can_ReadMessageFifo)
00000000  local     $a (.CSM_CODE:Csm_Can_ReadFifo)
00000000  local     $a (.CSM_CODE:Csm_Can_ReadBusyBit)
00000000  local     $a (.CSM_CODE:Csm_Can_ReadBackCfg)
000ac250  local     $a (.CSM_CODE:Csm_Can_MsgStatus)
000abf50  local     $a (.CSM_CODE:check_ArbId_Mask)
000abfa0  local     $a (.CSM_CODE:check_Message_Config)
000ac040  local     $a (.CSM_CODE:Csm_Can_SetFormat)
000ac0b0  local     $a (.CSM_CODE:Csm_Can_InitMsg)
00000000  local     $a (.CSM_CODE:check_Fifo_Config)
00000000  local     $a (.CSM_CODE:Csm_Can_InitFifo)
000ab9d0  local     $a (.CSM_CODE:check_BitTiming_Config)
000aba60  local     $a (.CSM_CODE:check_Can_Config)
000abbb0  local     $a (.CSM_CODE:Csm_Can_TestRamSection)
000abbf0  local     $a (.CSM_CODE:Csm_Can_InitRamSection)
000abc40  local     $a (.CSM_CODE:Csm_Can_ClearMsgVal)
000abd00  local     $a (.CSM_CODE:Csm_Can_SetupBitTiming)
000abd60  local     $a (.CSM_CODE:Csm_Can_Init)
00000000  local     $a (.CSM_CODE:Csm_Can_GetVersionInfo)
00000000  local     $a (.CSM_CODE:Csm_Can_GetParityError)
00000000  local     $a (.CSM_CODE:Csm_Can_StatusFifoCheck)
00000000  local     $a (.CSM_CODE:Csm_Can_FifoStatus_CheckResult)
00000000  local     $a (.CSM_CODE:Csm_Can_FifoStatus)
000a7000  local     $a (.CSM_CODE:Csm_Can_EnterInitMode)
00000000  local     $a (.CSM_CODE:Csm_Can_DeInitMsg)
00000000  local     $a (.CSM_CODE:Csm_Can_DeInitFifo)
00000000  local     $a (.CSM_CODE:Csm_Can_DeInit)
00000000  local     $a (.CSM_CODE:Csm_Can_AcknowledgeInterrupt)
00000000  local     $d (.CSM_CONST)
00000000  local     .CSM_CODE:Csm_Can_AcknowledgeInterrupt (.CSM_CODE:Csm_Can_AcknowledgeInterrupt)
000ac1d0  local     .CSM_CODE:Csm_Can_CheckCommon (.CSM_CODE:Csm_Can_CheckCommon)
000ac230  local     .CSM_CODE:Csm_Can_CheckCommonMsg (.CSM_CODE:Csm_Can_CheckCommonMsg)
000ac380  local     .CSM_CODE:Csm_Can_CheckMessageConfigured (.CSM_CODE:Csm_Can_CheckMessageConfigured)
000abc40  local     .CSM_CODE:Csm_Can_ClearMsgVal (.CSM_CODE:Csm_Can_ClearMsgVal)
00000000  local     .CSM_CODE:Csm_Can_CopyRxData (.CSM_CODE:Csm_Can_CopyRxData)
00000000  local     .CSM_CODE:Csm_Can_DeInit (.CSM_CODE:Csm_Can_DeInit)
00000000  local     .CSM_CODE:Csm_Can_DeInitFifo (.CSM_CODE:Csm_Can_DeInitFifo)
00000000  local     .CSM_CODE:Csm_Can_DeInitMsg (.CSM_CODE:Csm_Can_DeInitMsg)
000a7000  local     .CSM_CODE:Csm_Can_EnterInitMode (.CSM_CODE:Csm_Can_EnterInitMode)
000abb80  local     .CSM_CODE:Csm_Can_EnterInitializationMode (.CSM_CODE:Csm_Can_EnterInitializationMode)
000abae0  local     .CSM_CODE:Csm_Can_EnterPowerDownMode (.CSM_CODE:Csm_Can_EnterPowerDownMode)
00000000  local     .CSM_CODE:Csm_Can_FifoCheckCommon (.CSM_CODE:Csm_Can_FifoCheckCommon)
00000000  local     .CSM_CODE:Csm_Can_FifoStatus (.CSM_CODE:Csm_Can_FifoStatus)
00000000  local     .CSM_CODE:Csm_Can_FifoStatus_CheckResult (.CSM_CODE:Csm_Can_FifoStatus_CheckResult)
000abc30  local     .CSM_CODE:Csm_Can_GetIF12 (.CSM_CODE:Csm_Can_GetIF12)
00000000  local     .CSM_CODE:Csm_Can_GetParityError (.CSM_CODE:Csm_Can_GetParityError)
00000000  local     .CSM_CODE:Csm_Can_GetVersionInfo (.CSM_CODE:Csm_Can_GetVersionInfo)
000abd60  local     .CSM_CODE:Csm_Can_Init (.CSM_CODE:Csm_Can_Init)
00000000  local     .CSM_CODE:Csm_Can_InitFifo (.CSM_CODE:Csm_Can_InitFifo)
000ac0b0  local     .CSM_CODE:Csm_Can_InitMsg (.CSM_CODE:Csm_Can_InitMsg)
000abbf0  local     .CSM_CODE:Csm_Can_InitRamSection (.CSM_CODE:Csm_Can_InitRamSection)
000ac250  local     .CSM_CODE:Csm_Can_MsgStatus (.CSM_CODE:Csm_Can_MsgStatus)
00000000  local     .CSM_CODE:Csm_Can_ReadBackCfg (.CSM_CODE:Csm_Can_ReadBackCfg)
00000000  local     .CSM_CODE:Csm_Can_ReadBusyBit (.CSM_CODE:Csm_Can_ReadBusyBit)
00000000  local     .CSM_CODE:Csm_Can_ReadFifo (.CSM_CODE:Csm_Can_ReadFifo)
00000000  local     .CSM_CODE:Csm_Can_ReadFifoCheck (.CSM_CODE:Csm_Can_ReadFifoCheck)
00000000  local     .CSM_CODE:Csm_Can_ReadInterruptRegister (.CSM_CODE:Csm_Can_ReadInterruptRegister)
00000000  local     .CSM_CODE:Csm_Can_ReadMessageFifo (.CSM_CODE:Csm_Can_ReadMessageFifo)
00000000  local     .CSM_CODE:Csm_Can_ReadMsg (.CSM_CODE:Csm_Can_ReadMsg)
00000000  local     .CSM_CODE:Csm_Can_SendRequest (.CSM_CODE:Csm_Can_SendRequest)
00000000  local     .CSM_CODE:Csm_Can_SendRequestFifo (.CSM_CODE:Csm_Can_SendRequestFifo)
000ac040  local     .CSM_CODE:Csm_Can_SetFormat (.CSM_CODE:Csm_Can_SetFormat)
000abd00  local     .CSM_CODE:Csm_Can_SetupBitTiming (.CSM_CODE:Csm_Can_SetupBitTiming)
00000000  local     .CSM_CODE:Csm_Can_StartBusOffRecovery (.CSM_CODE:Csm_Can_StartBusOffRecovery)
00000000  local     .CSM_CODE:Csm_Can_Status (.CSM_CODE:Csm_Can_Status)
00000000  local     .CSM_CODE:Csm_Can_StatusFifoCheck (.CSM_CODE:Csm_Can_StatusFifoCheck)
00000000  local     .CSM_CODE:Csm_Can_TestRamParity (.CSM_CODE:Csm_Can_TestRamParity)
000abbb0  local     .CSM_CODE:Csm_Can_TestRamSection (.CSM_CODE:Csm_Can_TestRamSection)
00000000  local     .CSM_CODE:Csm_Can_Test_IOLoopback (.CSM_CODE:Csm_Can_Test_IOLoopback)
000ac570  local     .CSM_CODE:Csm_Can_WriteMsg (.CSM_CODE:Csm_Can_WriteMsg)
000ac3b0  local     .CSM_CODE:Csm_Can_WriteMsgReadData (.CSM_CODE:Csm_Can_WriteMsgReadData)
000ac4f0  local     .CSM_CODE:Csm_Can_WriteMsgUpdateHw (.CSM_CODE:Csm_Can_WriteMsgUpdateHw)
000ac610  local     .CSM_CODE:Csm_Can_WriteTransmitMsg (.CSM_CODE:Csm_Can_WriteTransmitMsg)
000abf50  local     .CSM_CODE:check_ArbId_Mask (.CSM_CODE:check_ArbId_Mask)
000ab9d0  local     .CSM_CODE:check_BitTiming_Config (.CSM_CODE:check_BitTiming_Config)
000aba60  local     .CSM_CODE:check_Can_Config (.CSM_CODE:check_Can_Config)
000ac320  local     .CSM_CODE:check_Data_Frame (.CSM_CODE:check_Data_Frame)
00000000  local     .CSM_CODE:check_Fifo_Config (.CSM_CODE:check_Fifo_Config)
000abfa0  local     .CSM_CODE:check_Message_Config (.CSM_CODE:check_Message_Config)
00000000  local     .CSM_CODE:selectCanParityDef (.CSM_CODE:selectCanParityDef)
000a6fc0  local     .CSM_CODE:selectChannel (.CSM_CODE:selectChannel)
00000000  local     .CSM_CONST (.CSM_CONST)
080380a0  local     .CSM_VAR_ZERO_INIT_UNSPECIFIED (.CSM_VAR_ZERO_INIT_UNSPECIFIED)
00000000  local     .text (.text)
00000000  local     CAN_PARITY (.CSM_CONST)
080380a0  local     CanInitFlag_ba (.CSM_VAR_ZERO_INIT_UNSPECIFIED)
00000000  global    Csm_Can_AcknowledgeInterrupt (.CSM_CODE:Csm_Can_AcknowledgeInterrupt)
000ac1d0  local     Csm_Can_CheckCommon (.CSM_CODE:Csm_Can_CheckCommon)
000ac230  local     Csm_Can_CheckCommonMsg (.CSM_CODE:Csm_Can_CheckCommonMsg)
000ac380  local     Csm_Can_CheckMessageConfigured (.CSM_CODE:Csm_Can_CheckMessageConfigured)
000abc40  local     Csm_Can_ClearMsgVal (.CSM_CODE:Csm_Can_ClearMsgVal)
00000000  local     Csm_Can_CopyRxData (.CSM_CODE:Csm_Can_CopyRxData)
00000000  global    Csm_Can_DeInit (.CSM_CODE:Csm_Can_DeInit)
00000000  global    Csm_Can_DeInitFifo (.CSM_CODE:Csm_Can_DeInitFifo)
00000000  global    Csm_Can_DeInitMsg (.CSM_CODE:Csm_Can_DeInitMsg)
000a7000  global    Csm_Can_EnterInitMode (.CSM_CODE:Csm_Can_EnterInitMode)
000abb80  local     Csm_Can_EnterInitializationMode (.CSM_CODE:Csm_Can_EnterInitializationMode)
000abae0  local     Csm_Can_EnterPowerDownMode (.CSM_CODE:Csm_Can_EnterPowerDownMode)
00000000  local     Csm_Can_FifoCheckCommon (.CSM_CODE:Csm_Can_FifoCheckCommon)
00000000  global    Csm_Can_FifoStatus (.CSM_CODE:Csm_Can_FifoStatus)
00000000  local     Csm_Can_FifoStatus_CheckResult (.CSM_CODE:Csm_Can_FifoStatus_CheckResult)
000abc30  local     Csm_Can_GetIF12 (.CSM_CODE:Csm_Can_GetIF12)
00000000  global    Csm_Can_GetParityError (.CSM_CODE:Csm_Can_GetParityError)
00000000  global    Csm_Can_GetVersionInfo (.CSM_CODE:Csm_Can_GetVersionInfo)
000abd60  global    Csm_Can_Init (.CSM_CODE:Csm_Can_Init)
00000000  global    Csm_Can_InitFifo (.CSM_CODE:Csm_Can_InitFifo)
000ac0b0  global    Csm_Can_InitMsg (.CSM_CODE:Csm_Can_InitMsg)
000abbf0  local     Csm_Can_InitRamSection (.CSM_CODE:Csm_Can_InitRamSection)
000ac250  global    Csm_Can_MsgStatus (.CSM_CODE:Csm_Can_MsgStatus)
00000000  global    Csm_Can_ReadBackCfg (.CSM_CODE:Csm_Can_ReadBackCfg)
00000000  global    Csm_Can_ReadBusyBit (.CSM_CODE:Csm_Can_ReadBusyBit)
00000000  global    Csm_Can_ReadFifo (.CSM_CODE:Csm_Can_ReadFifo)
00000000  local     Csm_Can_ReadFifoCheck (.CSM_CODE:Csm_Can_ReadFifoCheck)
00000000  global    Csm_Can_ReadInterruptRegister (.CSM_CODE:Csm_Can_ReadInterruptRegister)
00000000  local     Csm_Can_ReadMessageFifo (.CSM_CODE:Csm_Can_ReadMessageFifo)
00000000  global    Csm_Can_ReadMsg (.CSM_CODE:Csm_Can_ReadMsg)
00000000  global    Csm_Can_SendRequest (.CSM_CODE:Csm_Can_SendRequest)
00000000  global    Csm_Can_SendRequestFifo (.CSM_CODE:Csm_Can_SendRequestFifo)
000ac040  local     Csm_Can_SetFormat (.CSM_CODE:Csm_Can_SetFormat)
000abd00  local     Csm_Can_SetupBitTiming (.CSM_CODE:Csm_Can_SetupBitTiming)
00000000  global    Csm_Can_StartBusOffRecovery (.CSM_CODE:Csm_Can_StartBusOffRecovery)
00000000  global    Csm_Can_Status (.CSM_CODE:Csm_Can_Status)
00000000  local     Csm_Can_StatusFifoCheck (.CSM_CODE:Csm_Can_StatusFifoCheck)
00000000  global    Csm_Can_TestRamParity (.CSM_CODE:Csm_Can_TestRamParity)
000abbb0  local     Csm_Can_TestRamSection (.CSM_CODE:Csm_Can_TestRamSection)
00000000  global    Csm_Can_Test_IOLoopback (.CSM_CODE:Csm_Can_Test_IOLoopback)
000ac570  global    Csm_Can_WriteMsg (.CSM_CODE:Csm_Can_WriteMsg)
000ac3b0  local     Csm_Can_WriteMsgReadData (.CSM_CODE:Csm_Can_WriteMsgReadData)
000ac4f0  local     Csm_Can_WriteMsgUpdateHw (.CSM_CODE:Csm_Can_WriteMsgUpdateHw)
000ac610  global    Csm_Can_WriteTransmitMsg (.CSM_CODE:Csm_Can_WriteTransmitMsg)
000abf50  local     check_ArbId_Mask (.CSM_CODE:check_ArbId_Mask)
000ab9d0  local     check_BitTiming_Config (.CSM_CODE:check_BitTiming_Config)
000aba60  local     check_Can_Config (.CSM_CODE:check_Can_Config)
000ac320  local     check_Data_Frame (.CSM_CODE:check_Data_Frame)
00000000  local     check_Fifo_Config (.CSM_CODE:check_Fifo_Config)
000abfa0  local     check_Message_Config (.CSM_CODE:check_Message_Config)
00000000  local     selectCanParityDef (.CSM_CODE:selectCanParityDef)
000a6fc0  local     selectChannel (.CSM_CODE:selectChannel)


================================================================================

ttc500.lib : drv_Csm_Vim.obj

Run/Load            
Value     Binding   Name (Section)
--------  --------  ---------------
000af390  local     $C$L1 (.CSM_CODE:Csm_Vim_WriteInterruptVectorTable)
000a2528  local     $C$L10 (.CSM_CODE:Csm_Vim_TestRamParity)
000a252c  local     $C$L11 (.CSM_CODE:Csm_Vim_TestRamParity)
000ad460  local     $C$L12 (.CSM_CODE:Csm_Vim_ReadBackCfg)
000ad470  local     $C$L13 (.CSM_CODE:Csm_Vim_ReadBackCfg)
000ad48c  local     $C$L14 (.CSM_CODE:Csm_Vim_ReadBackCfg)
000ad498  local     $C$L15 (.CSM_CODE:Csm_Vim_ReadBackCfg)
000ad4cc  local     $C$L16 (.CSM_CODE:Csm_Vim_ReadBackCfg)
000ad4d0  local     $C$L17 (.CSM_CODE:Csm_Vim_ReadBackCfg)
000ad4e0  local     $C$L18 (.CSM_CODE:Csm_Vim_ReadBackCfg)
000ad4f0  local     $C$L19 (.CSM_CODE:Csm_Vim_ReadBackCfg)
000af3bc  local     $C$L2 (.CSM_CODE:Csm_Vim_WriteInterruptVectorTable)
000ad514  local     $C$L20 (.CSM_CODE:Csm_Vim_ReadBackCfg)
000ad51c  local     $C$L21 (.CSM_CODE:Csm_Vim_ReadBackCfg)
000ad53c  local     $C$L22 (.CSM_CODE:Csm_Vim_ReadBackCfg)
000a18e4  local     $C$L23 (.CSM_CODE:Csm_Vim_Init)
000a1908  local     $C$L24 (.CSM_CODE:Csm_Vim_Init)
000a1914  local     $C$L25 (.CSM_CODE:Csm_Vim_Init)
000a1918  local     $C$L26 (.CSM_CODE:Csm_Vim_Init)
000a1970  local     $C$L27 (.CSM_CODE:Csm_Vim_Init)
000a1998  local     $C$L28 (.CSM_CODE:Csm_Vim_Init)
000a19a0  local     $C$L29 (.CSM_CODE:Csm_Vim_Init)
000af400  local     $C$L3 (.CSM_CODE:Csm_Vim_GetParityError)
000a1e6c  local     $C$L30 (.CSM_CODE:Csm_Vim_EnableInterrupt)
000ab9bc  local     $C$L31 (.CSM_CODE:Csm_Vim_DisableInterrupt)
000af4d4  local     $C$L4 (.CSM_CODE:Csm_Vim_TestRamParityFallback)
000af4e0  local     $C$L5 (.CSM_CODE:Csm_Vim_TestRamParityFallback)
000af4e8  local     $C$L6 (.CSM_CODE:Csm_Vim_TestRamParityFallback)
000af4ec  local     $C$L7 (.CSM_CODE:Csm_Vim_TestRamParityFallback)
000a2514  local     $C$L8 (.CSM_CODE:Csm_Vim_TestRamParity)
000a2518  local     $C$L9 (.CSM_CODE:Csm_Vim_TestRamParity)
000af350  local     $a (.CSM_CODE:Csm_Vim_WriteInterruptVectorTable)
000af3c0  local     $a (.CSM_CODE:Csm_Vim_GetParityError)
000af410  local     $a (.CSM_CODE:Csm_Vim_TestRamParityFallback)
000af4f0  local     $a (.CSM_CODE:Csm_Vim_TestRamParityFb_ISR)
000a2450  local     $a (.CSM_CODE:Csm_Vim_TestRamParity)
00000000  local     $a (.CSM_CODE:Csm_Vim_SetInterruptHandler)
00000000  local     $a (.CSM_CODE:Csm_Vim_ReadIRQInterruptIndex)
00000000  local     $a (.CSM_CODE:Csm_Vim_ReadFIQInterruptIndex)
000ad3f0  local     $a (.CSM_CODE:Csm_Mcu_Vim_Read_HW_Vec_Mode)
000ad400  local     $a (.CSM_CODE:Csm_Vim_ReadBackCfg)
000ae1c0  local     $a (.CSM_CODE:Csm_Vim_PhantomInterrupt)
000ae1f0  local     $a (.CSM_CODE:Csm_Vim_PhantomInterrupt_ISR)
000a1870  local     $a (.CSM_CODE:Csm_Mcu_Vim_Enable_HW_Vec_Mode)
000a1890  local     $a (.CSM_CODE:Csm_Mcu_Vim_Disable_HW_Vec_Mode)
000a18a0  local     $a (.CSM_CODE:Csm_Vim_Init)
00000000  local     $a (.CSM_CODE:Csm_Vim_GetVersionInfo)
00000000  local     $a (.CSM_CODE:Csm_Vim_Enable_IRQ_FIQ)
000a1e40  local     $a (.CSM_CODE:Csm_Vim_EnableInterrupt)
00000000  local     $a (.CSM_CODE:Csm_Vim_Disable_IRQ_FIQ)
000ab990  local     $a (.CSM_CODE:Csm_Vim_DisableInterrupt)
000a1890  local     .CSM_CODE:Csm_Mcu_Vim_Disable_HW_Vec_Mode (.CSM_CODE:Csm_Mcu_Vim_Disable_HW_Vec_Mode)
000a1870  local     .CSM_CODE:Csm_Mcu_Vim_Enable_HW_Vec_Mode (.CSM_CODE:Csm_Mcu_Vim_Enable_HW_Vec_Mode)
000ad3f0  local     .CSM_CODE:Csm_Mcu_Vim_Read_HW_Vec_Mode (.CSM_CODE:Csm_Mcu_Vim_Read_HW_Vec_Mode)
000ab990  local     .CSM_CODE:Csm_Vim_DisableInterrupt (.CSM_CODE:Csm_Vim_DisableInterrupt)
00000000  local     .CSM_CODE:Csm_Vim_Disable_IRQ_FIQ (.CSM_CODE:Csm_Vim_Disable_IRQ_FIQ)
000a1e40  local     .CSM_CODE:Csm_Vim_EnableInterrupt (.CSM_CODE:Csm_Vim_EnableInterrupt)
00000000  local     .CSM_CODE:Csm_Vim_Enable_IRQ_FIQ (.CSM_CODE:Csm_Vim_Enable_IRQ_FIQ)
000af3c0  local     .CSM_CODE:Csm_Vim_GetParityError (.CSM_CODE:Csm_Vim_GetParityError)
00000000  local     .CSM_CODE:Csm_Vim_GetVersionInfo (.CSM_CODE:Csm_Vim_GetVersionInfo)
000a18a0  local     .CSM_CODE:Csm_Vim_Init (.CSM_CODE:Csm_Vim_Init)
000ae1c0  local     .CSM_CODE:Csm_Vim_PhantomInterrupt (.CSM_CODE:Csm_Vim_PhantomInterrupt)
000ae1f0  local     .CSM_CODE:Csm_Vim_PhantomInterrupt_ISR (.CSM_CODE:Csm_Vim_PhantomInterrupt_ISR)
000ad400  local     .CSM_CODE:Csm_Vim_ReadBackCfg (.CSM_CODE:Csm_Vim_ReadBackCfg)
00000000  local     .CSM_CODE:Csm_Vim_ReadFIQInterruptIndex (.CSM_CODE:Csm_Vim_ReadFIQInterruptIndex)
00000000  local     .CSM_CODE:Csm_Vim_ReadIRQInterruptIndex (.CSM_CODE:Csm_Vim_ReadIRQInterruptIndex)
00000000  local     .CSM_CODE:Csm_Vim_SetInterruptHandler (.CSM_CODE:Csm_Vim_SetInterruptHandler)
000a2450  local     .CSM_CODE:Csm_Vim_TestRamParity (.CSM_CODE:Csm_Vim_TestRamParity)
000af410  local     .CSM_CODE:Csm_Vim_TestRamParityFallback (.CSM_CODE:Csm_Vim_TestRamParityFallback)
000af4f0  local     .CSM_CODE:Csm_Vim_TestRamParityFb_ISR (.CSM_CODE:Csm_Vim_TestRamParityFb_ISR)
000af350  local     .CSM_CODE:Csm_Vim_WriteInterruptVectorTable (.CSM_CODE:Csm_Vim_WriteInterruptVectorTable)
08038070  local     .CSM_VAR_ZERO_INIT_UNSPECIFIED (.CSM_VAR_ZERO_INIT_UNSPECIFIED)
00000000  local     .text (.text)
000a1890  local     Csm_Mcu_Vim_Disable_HW_Vec_Mode (.CSM_CODE:Csm_Mcu_Vim_Disable_HW_Vec_Mode)
000a1870  local     Csm_Mcu_Vim_Enable_HW_Vec_Mode (.CSM_CODE:Csm_Mcu_Vim_Enable_HW_Vec_Mode)
000ad3f0  local     Csm_Mcu_Vim_Read_HW_Vec_Mode (.CSM_CODE:Csm_Mcu_Vim_Read_HW_Vec_Mode)
000ab990  global    Csm_Vim_DisableInterrupt (.CSM_CODE:Csm_Vim_DisableInterrupt)
00000000  global    Csm_Vim_Disable_IRQ_FIQ (.CSM_CODE:Csm_Vim_Disable_IRQ_FIQ)
000a1e40  global    Csm_Vim_EnableInterrupt (.CSM_CODE:Csm_Vim_EnableInterrupt)
00000000  global    Csm_Vim_Enable_IRQ_FIQ (.CSM_CODE:Csm_Vim_Enable_IRQ_FIQ)
000af3c0  global    Csm_Vim_GetParityError (.CSM_CODE:Csm_Vim_GetParityError)
00000000  global    Csm_Vim_GetVersionInfo (.CSM_CODE:Csm_Vim_GetVersionInfo)
000a18a0  global    Csm_Vim_Init (.CSM_CODE:Csm_Vim_Init)
000ae1c0  local     Csm_Vim_PhantomInterrupt (.CSM_CODE:Csm_Vim_PhantomInterrupt)
000ae1f0  global    Csm_Vim_PhantomInterrupt_ISR (.CSM_CODE:Csm_Vim_PhantomInterrupt_ISR)
000ad400  global    Csm_Vim_ReadBackCfg (.CSM_CODE:Csm_Vim_ReadBackCfg)
00000000  global    Csm_Vim_ReadFIQInterruptIndex (.CSM_CODE:Csm_Vim_ReadFIQInterruptIndex)
00000000  global    Csm_Vim_ReadIRQInterruptIndex (.CSM_CODE:Csm_Vim_ReadIRQInterruptIndex)
00000000  global    Csm_Vim_SetInterruptHandler (.CSM_CODE:Csm_Vim_SetInterruptHandler)
000a2450  global    Csm_Vim_TestRamParity (.CSM_CODE:Csm_Vim_TestRamParity)
000af410  local     Csm_Vim_TestRamParityFallback (.CSM_CODE:Csm_Vim_TestRamParityFallback)
000af4f0  local     Csm_Vim_TestRamParityFb_ISR (.CSM_CODE:Csm_Vim_TestRamParityFb_ISR)
000af350  global    Csm_Vim_WriteInterruptVectorTable (.CSM_CODE:Csm_Vim_WriteInterruptVectorTable)
08038070  local     csm_vim_configPtr (.CSM_VAR_ZERO_INIT_UNSPECIFIED)
08038084  local     csm_vim_fallback_interrupt (.CSM_VAR_ZERO_INIT_UNSPECIFIED)
08038074  local     csm_vim_save_cpsr (.CSM_VAR_ZERO_INIT_UNSPECIFIED)
08038078  local     csm_vim_save_reqenaclr0 (.CSM_VAR_ZERO_INIT_UNSPECIFIED)
0803807c  local     csm_vim_save_reqenaclr1 (.CSM_VAR_ZERO_INIT_UNSPECIFIED)
08038080  local     csm_vim_save_reqenaclr2 (.CSM_VAR_ZERO_INIT_UNSPECIFIED)


================================================================================

ttc500.lib : drv_Csm_Mcu.obj

Run/Load            
Value     Binding   Name (Section)
--------  --------  ---------------
000a2834  local     $C$L1 (.CSM_CODE:Csm_Mcu_TesteFuseStuckZero)
000a2988  local     $C$L10 (.CSM_CODE:Csm_Mcu_TesteFuseECC)
00000074  local     $C$L100 (.CSM_CODE:Csm_Mcu_ReadBackResetCfg)
0000009c  local     $C$L101 (.CSM_CODE:Csm_Mcu_ReadBackResetCfg)
000000b0  local     $C$L102 (.CSM_CODE:Csm_Mcu_ReadBackResetCfg)
000000f8  local     $C$L103 (.CSM_CODE:Csm_Mcu_ReadBackResetCfg)
00000120  local     $C$L104 (.CSM_CODE:Csm_Mcu_ReadBackResetCfg)
00000180  local     $C$L105 (.CSM_CODE:Csm_Mcu_ReadBackResetCfg)
000001b0  local     $C$L106 (.CSM_CODE:Csm_Mcu_ReadBackResetCfg)
000001c0  local     $C$L107 (.CSM_CODE:Csm_Mcu_ReadBackResetCfg)
000001cc  local     $C$L108 (.CSM_CODE:Csm_Mcu_ReadBackResetCfg)
000001d0  local     $C$L109 (.CSM_CODE:Csm_Mcu_ReadBackResetCfg)
000a29b0  local     $C$L11 (.CSM_CODE:Csm_Mcu_TesteFuseECC)
000002b0  local     $C$L110 (.CSM_CODE:Csm_Mcu_ReadBackResetCfg)
000002c4  local     $C$L111 (.CSM_CODE:Csm_Mcu_ReadBackResetCfg)
000ad2cc  local     $C$L112 (.CSM_CODE:Csm_Mcu_ReadBackCfg_Flash)
000ad2d4  local     $C$L113 (.CSM_CODE:Csm_Mcu_ReadBackCfg_Flash)
000acefc  local     $C$L114 (.CSM_CODE:Csm_Mcu_ReadBackPllConfig)
000acf08  local     $C$L115 (.CSM_CODE:Csm_Mcu_ReadBackPllConfig)
000acf60  local     $C$L116 (.CSM_CODE:Csm_Mcu_ReadBackPllConfig)
000acf68  local     $C$L117 (.CSM_CODE:Csm_Mcu_ReadBackPllConfig)
000ad000  local     $C$L118 (.CSM_CODE:Csm_Mcu_ReadBackPllConfig)
000ad004  local     $C$L119 (.CSM_CODE:Csm_Mcu_ReadBackPllConfig)
000a29b4  local     $C$L12 (.CSM_CODE:Csm_Mcu_TesteFuseECC)
000ad030  local     $C$L120 (.CSM_CODE:Csm_Mcu_ReadBackIommCfg)
000ad05c  local     $C$L121 (.CSM_CODE:Csm_Mcu_ReadBackIommCfg)
000ad1a8  local     $C$L122 (.CSM_CODE:Csm_Mcu_ReadBackCfg_Base)
000ad1b4  local     $C$L123 (.CSM_CODE:Csm_Mcu_ReadBackCfg_Base)
000ad1b8  local     $C$L124 (.CSM_CODE:Csm_Mcu_ReadBackCfg_Base)
000ad1bc  local     $C$L125 (.CSM_CODE:Csm_Mcu_ReadBackCfg_Base)
000ad1e4  local     $C$L126 (.CSM_CODE:Csm_Mcu_ReadBackCfg_Base)
000ad200  local     $C$L127 (.CSM_CODE:Csm_Mcu_ReadBackCfg_Base)
000ad21c  local     $C$L128 (.CSM_CODE:Csm_Mcu_ReadBackCfg_Base)
000ad248  local     $C$L129 (.CSM_CODE:Csm_Mcu_ReadBackCfg_Base)
00000010  local     $C$L13 (.CSM_CODE:Csm_Mcu_delay)
000ad24c  local     $C$L130 (.CSM_CODE:Csm_Mcu_ReadBackCfg_Base)
000a3f0c  local     $C$L131 (.CSM_CODE:Csm_Mcu_PSCONSelfTestDo)
000a3f10  local     $C$L132 (.CSM_CODE:Csm_Mcu_PSCONSelfTestDo)
000a3f74  local     $C$L133 (.CSM_CODE:Csm_Mcu_PSCONSelfTest)
000a3f94  local     $C$L134 (.CSM_CODE:Csm_Mcu_PSCONSelfTest)
000a3fa8  local     $C$L135 (.CSM_CODE:Csm_Mcu_PSCONSelfTest)
000a3fac  local     $C$L136 (.CSM_CODE:Csm_Mcu_PSCONSelfTest)
000a3ffc  local     $C$L137 (.CSM_CODE:Csm_Mcu_PSCONSelfTest)
000a4020  local     $C$L138 (.CSM_CODE:Csm_Mcu_PSCONSelfTest)
000a4034  local     $C$L139 (.CSM_CODE:Csm_Mcu_PSCONSelfTest)
00000018  local     $C$L14 (.CSM_CODE:Csm_Mcu_delay)
000a4040  local     $C$L140 (.CSM_CODE:Csm_Mcu_PSCONSelfTest)
000a404c  local     $C$L141 (.CSM_CODE:Csm_Mcu_PSCONSelfTest)
00000020  local     $C$L142 (.CSM_CODE:Csm_Mcu_IommGetErrorAndFaultStatus)
00000030  local     $C$L143 (.CSM_CODE:Csm_Mcu_IommGetErrorAndFaultStatus)
0000000c  local     $C$L144 (.CSM_CODE:Csm_Mcu_IntegerDivisionByZero)
00000044  local     $C$L145 (.CSM_CODE:Csm_Mcu_InitCosmoSharedMemory)
000a7e90  local     $C$L146 (.CSM_CODE:Csm_Mcu_I_Bit_Count)
000a7ea4  local     $C$L147 (.CSM_CODE:Csm_Mcu_I_Bit_Count)
00000060  local     $C$L148 (.CSM_CODE:Csm_Mcu_GetRamStatus)
00000084  local     $C$L149 (.CSM_CODE:Csm_Mcu_GetRamStatus)
00000094  local     $C$L15 (.CSM_CODE:Csm_Mcu_voltage_monitor_test_open_drain)
000000bc  local     $C$L150 (.CSM_CODE:Csm_Mcu_GetRamStatus)
000000d4  local     $C$L151 (.CSM_CODE:Csm_Mcu_GetRamStatus)
000000ec  local     $C$L152 (.CSM_CODE:Csm_Mcu_GetRamStatus)
00000104  local     $C$L153 (.CSM_CODE:Csm_Mcu_GetRamStatus)
0000011c  local     $C$L154 (.CSM_CODE:Csm_Mcu_GetRamStatus)
00000138  local     $C$L155 (.CSM_CODE:Csm_Mcu_GetRamStatus)
00000030  local     $C$L156 (.CSM_CODE:Csm_Mcu_GetRamErrorCount)
00000034  local     $C$L157 (.CSM_CODE:Csm_Mcu_GetRamErrorCount)
000a1be8  local     $C$L158 (.CSM_CODE:Csm_Mcu_GetRamErrorAddress)
000a1bec  local     $C$L159 (.CSM_CODE:Csm_Mcu_GetRamErrorAddress)
0000009c  local     $C$L16 (.CSM_CODE:Csm_Mcu_voltage_monitor_test_open_drain)
00000030  local     $C$L160 (.CSM_CODE:Csm_Mcu_GetPSCONStatusCalculateResult)
0000006c  local     $C$L161 (.CSM_CODE:Csm_Mcu_GetPSCONStatusCalculateResult)
00000088  local     $C$L162 (.CSM_CODE:Csm_Mcu_GetPSCONStatusCalculateResult)
00000034  local     $C$L163 (.CSM_CODE:Csm_Mcu_GetPSCONMode)
0000003c  local     $C$L164 (.CSM_CODE:Csm_Mcu_GetPSCONMode)
00000044  local     $C$L165 (.CSM_CODE:Csm_Mcu_GetPSCONMode)
0000004c  local     $C$L166 (.CSM_CODE:Csm_Mcu_GetPSCONMode)
00000054  local     $C$L167 (.CSM_CODE:Csm_Mcu_GetPSCONMode)
000000a0  local     $C$L168 (.CSM_CODE:Csm_Mcu_GetFlashStatus)
000000b8  local     $C$L169 (.CSM_CODE:Csm_Mcu_GetFlashStatus)
000000b0  local     $C$L17 (.CSM_CODE:Csm_Mcu_voltage_monitor_test_open_drain)
000000d0  local     $C$L170 (.CSM_CODE:Csm_Mcu_GetFlashStatus)
000000e8  local     $C$L171 (.CSM_CODE:Csm_Mcu_GetFlashStatus)
00000100  local     $C$L172 (.CSM_CODE:Csm_Mcu_GetFlashStatus)
00000118  local     $C$L173 (.CSM_CODE:Csm_Mcu_GetFlashStatus)
00000130  local     $C$L174 (.CSM_CODE:Csm_Mcu_GetFlashStatus)
00000148  local     $C$L175 (.CSM_CODE:Csm_Mcu_GetFlashStatus)
00000160  local     $C$L176 (.CSM_CODE:Csm_Mcu_GetFlashStatus)
00000178  local     $C$L177 (.CSM_CODE:Csm_Mcu_GetFlashStatus)
00000190  local     $C$L178 (.CSM_CODE:Csm_Mcu_GetFlashStatus)
000001a8  local     $C$L179 (.CSM_CODE:Csm_Mcu_GetFlashStatus)
00000090  local     $C$L18 (.CSM_CODE:Csm_Mcu_voltage_monitor_test_enable)
00000034  local     $C$L180 (.CSM_CODE:Csm_Mcu_GetCCMMode)
0000003c  local     $C$L181 (.CSM_CODE:Csm_Mcu_GetCCMMode)
00000044  local     $C$L182 (.CSM_CODE:Csm_Mcu_GetCCMMode)
0000004c  local     $C$L183 (.CSM_CODE:Csm_Mcu_GetCCMMode)
00000054  local     $C$L184 (.CSM_CODE:Csm_Mcu_GetCCMMode)
000a1b94  local     $C$L185 (.CSM_CODE:Csm_Mcu_ClearRamErrorCount)
000a1b98  local     $C$L186 (.CSM_CODE:Csm_Mcu_ClearRamErrorCount)
000a40fc  local     $C$L187 (.CSM_CODE:Csm_Mcu_CCMSelfTestDo)
000a4108  local     $C$L188 (.CSM_CODE:Csm_Mcu_CCMSelfTestDo)
000a4178  local     $C$L189 (.CSM_CODE:Csm_Mcu_CCMSelfTest)
00000098  local     $C$L19 (.CSM_CODE:Csm_Mcu_voltage_monitor_test_enable)
000a417c  local     $C$L190 (.CSM_CODE:Csm_Mcu_CCMSelfTest)
000a41b8  local     $C$L191 (.CSM_CODE:Csm_Mcu_CCMSelfTest)
000a41d4  local     $C$L192 (.CSM_CODE:Csm_Mcu_CCMSelfTest)
000a41e8  local     $C$L193 (.CSM_CODE:Csm_Mcu_CCMSelfTest)
000a41ec  local     $C$L194 (.CSM_CODE:Csm_Mcu_CCMSelfTest)
000a41f8  local     $C$L195 (.CSM_CODE:Csm_Mcu_CCMSelfTest)
000a283c  local     $C$L2 (.CSM_CODE:Csm_Mcu_TesteFuseStuckZero)
000000a0  local     $C$L20 (.CSM_CODE:Csm_Mcu_voltage_monitor_test_enable)
00000050  local     $C$L21 (.CSM_CODE:Csm_Mcu_TestVoltageMonitor)
00000074  local     $C$L22 (.CSM_CODE:Csm_Mcu_TestVoltageMonitor)
000000a0  local     $C$L23 (.CSM_CODE:Csm_Mcu_TestVoltageMonitor)
000a47bc  local     $C$L24 (.CSM_CODE:Csm_Mcu_TestRamECCDo)
000a47c4  local     $C$L25 (.CSM_CODE:Csm_Mcu_TestRamECCDo)
000a47cc  local     $C$L26 (.CSM_CODE:Csm_Mcu_TestRamECCDo)
000a4830  local     $C$L27 (.CSM_CODE:Csm_Mcu_TestRamECC)
000a4858  local     $C$L28 (.CSM_CODE:Csm_Mcu_TestRamECC)
000a4910  local     $C$L29 (.CSM_CODE:Csm_Mcu_TestRamECC)
000a2850  local     $C$L3 (.CSM_CODE:Csm_Mcu_TesteFuseStuckZero)
000a4918  local     $C$L30 (.CSM_CODE:Csm_Mcu_TestRamECC)
000a4964  local     $C$L31 (.CSM_CODE:Csm_Mcu_TestRamECC)
000a496c  local     $C$L32 (.CSM_CODE:Csm_Mcu_TestRamECC)
000a4974  local     $C$L33 (.CSM_CODE:Csm_Mcu_TestRamECC)
000a4978  local     $C$L34 (.CSM_CODE:Csm_Mcu_TestRamECC)
000a4b44  local     $C$L35 (.CSM_CODE:Csm_Mcu_InequalityTest)
000a4b50  local     $C$L36 (.CSM_CODE:Csm_Mcu_InequalityTest)
000a4b84  local     $C$L37 (.CSM_CODE:Csm_Mcu_InequalityTest)
000a4b90  local     $C$L38 (.CSM_CODE:Csm_Mcu_InequalityTest)
000a4bb4  local     $C$L39 (.CSM_CODE:Csm_Mcu_InequalityTest)
000a2854  local     $C$L4 (.CSM_CODE:Csm_Mcu_TesteFuseStuckZero)
000a4bb8  local     $C$L40 (.CSM_CODE:Csm_Mcu_InequalityTest)
000a4bc0  local     $C$L41 (.CSM_CODE:Csm_Mcu_InequalityTest)
000a4c38  local     $C$L42 (.CSM_CODE:Csm_Mcu_EqualityTest)
000a4c98  local     $C$L43 (.CSM_CODE:Csm_Mcu_TestRamAddressDecode)
000a4ca4  local     $C$L44 (.CSM_CODE:Csm_Mcu_TestRamAddressDecode)
000a49d0  local     $C$L45 (.CSM_CODE:Csm_Mcu_TestRamAddressBusParity)
000a49e0  local     $C$L46 (.CSM_CODE:Csm_Mcu_TestRamAddressBusParity)
000a4a58  local     $C$L47 (.CSM_CODE:Csm_Mcu_TestRamAddressBusParity)
000a4a70  local     $C$L48 (.CSM_CODE:Csm_Mcu_TestRamAddressBusParity)
000a4a8c  local     $C$L49 (.CSM_CODE:Csm_Mcu_TestRamAddressBusParity)
000a2900  local     $C$L5 (.CSM_CODE:Csm_Mcu_eFuseSelfTest)
000a4a90  local     $C$L50 (.CSM_CODE:Csm_Mcu_TestRamAddressBusParity)
000a4240  local     $C$L51 (.CSM_CODE:Csm_Mcu_ConditionalWait)
000a4268  local     $C$L52 (.CSM_CODE:Csm_Mcu_ConditionalWait)
000a4270  local     $C$L53 (.CSM_CODE:Csm_Mcu_ConditionalWait)
000000e8  local     $C$L54 (.CSM_CODE:Csm_Mcu_TestPll2Slip)
000000ec  local     $C$L55 (.CSM_CODE:Csm_Mcu_TestPll2Slip)
00000118  local     $C$L56 (.CSM_CODE:Csm_Mcu_TestPll1Slip)
0000011c  local     $C$L57 (.CSM_CODE:Csm_Mcu_TestPll1Slip)
000a25b8  local     $C$L58 (.CSM_CODE:Csm_Mcu_TestL2L3interconnect)
000a25bc  local     $C$L59 (.CSM_CODE:Csm_Mcu_TestL2L3interconnect)
000a2908  local     $C$L6 (.CSM_CODE:Csm_Mcu_eFuseSelfTest)
000a25e0  local     $C$L60 (.CSM_CODE:Csm_Mcu_TestL2L3interconnect)
000a2678  local     $C$L61 (.CSM_CODE:Csm_Mcu_TestL2L3interconnect)
000a267c  local     $C$L62 (.CSM_CODE:Csm_Mcu_TestL2L3interconnect)
000a2680  local     $C$L63 (.CSM_CODE:Csm_Mcu_TestL2L3interconnect)
000a52a0  local     $C$L64 (.CSM_CODE:Csm_Mcu_TestIommAddrProtError)
000a52d4  local     $C$L65 (.CSM_CODE:Csm_Mcu_TestIommAddrProtError)
000a5300  local     $C$L66 (.CSM_CODE:Csm_Mcu_TestIommAddrProtError)
000a5304  local     $C$L67 (.CSM_CODE:Csm_Mcu_TestIommAddrProtError)
000a5318  local     $C$L68 (.CSM_CODE:Csm_Mcu_TestIommAddrProtError)
000a531c  local     $C$L69 (.CSM_CODE:Csm_Mcu_TestIommAddrProtError)
000a290c  local     $C$L7 (.CSM_CODE:Csm_Mcu_eFuseSelfTest)
000a2ac4  local     $C$L70 (.CSM_CODE:Csm_Mcu_TestFlashWrapperAddressECC)
000a2acc  local     $C$L71 (.CSM_CODE:Csm_Mcu_TestFlashWrapperAddressECC)
000a2ad0  local     $C$L72 (.CSM_CODE:Csm_Mcu_TestFlashWrapperAddressECC)
000a2ad8  local     $C$L73 (.CSM_CODE:Csm_Mcu_TestFlashWrapperAddressECC)
000a4d10  local     $C$L74 (.CSM_CODE:Csm_Mcu_TestFlashDataECC)
000a4d20  local     $C$L75 (.CSM_CODE:Csm_Mcu_TestFlashDataECC)
000a4d9c  local     $C$L76 (.CSM_CODE:Csm_Mcu_TestFlashDataECC)
000a4db4  local     $C$L77 (.CSM_CODE:Csm_Mcu_TestFlashDataECC)
000a4dbc  local     $C$L78 (.CSM_CODE:Csm_Mcu_TestFlashDataECC)
000a4e0c  local     $C$L79 (.CSM_CODE:Csm_Mcu_TestFlashDataECC)
000a2924  local     $C$L8 (.CSM_CODE:Csm_Mcu_eFuseSelfTest)
000a4e18  local     $C$L80 (.CSM_CODE:Csm_Mcu_TestFlashDataECC)
000a4e70  local     $C$L81 (.CSM_CODE:Csm_Mcu_TestFlashDataECC)
000a4e74  local     $C$L82 (.CSM_CODE:Csm_Mcu_TestFlashDataECC)
000a4e7c  local     $C$L83 (.CSM_CODE:Csm_Mcu_TestFlashDataECC)
000a4e80  local     $C$L84 (.CSM_CODE:Csm_Mcu_TestFlashDataECC)
000a4f54  local     $C$L85 (.CSM_CODE:Csm_Mcu_TestFlashAddressBus1Parity)
000a4f74  local     $C$L86 (.CSM_CODE:Csm_Mcu_TestFlashAddressBus1Parity)
000a4f8c  local     $C$L87 (.CSM_CODE:Csm_Mcu_TestFlashAddressBus1Parity)
000a4f9c  local     $C$L88 (.CSM_CODE:Csm_Mcu_TestFlashAddressBus1Parity)
000a4fa4  local     $C$L89 (.CSM_CODE:Csm_Mcu_TestFlashAddressBus1Parity)
000a2928  local     $C$L9 (.CSM_CODE:Csm_Mcu_eFuseSelfTest)
000a5064  local     $C$L90 (.CSM_CODE:Csm_Mcu_TestEepromECC)
000a5070  local     $C$L91 (.CSM_CODE:Csm_Mcu_TestEepromECC)
000a5074  local     $C$L92 (.CSM_CODE:Csm_Mcu_TestEepromECC)
000a4394  local     $C$L93 (.CSM_CODE:Csm_Mcu_TestClockMonitor)
000a4398  local     $C$L94 (.CSM_CODE:Csm_Mcu_TestClockMonitor)
00000054  local     $C$L95 (.CSM_CODE:Csm_Mcu_RestoreFlashCfg)
000a273c  local     $C$L96 (.CSM_CODE:Csm_Mcu_GetResetReason)
000a27a8  local     $C$L97 (.CSM_CODE:Csm_Mcu_GetResetReason)
000a27ac  local     $C$L98 (.CSM_CODE:Csm_Mcu_GetResetReason)
00000054  local     $C$L99 (.CSM_CODE:Csm_Mcu_ReadBackResetCfg)
000002e4  local     $C$LL1 (.CSM_CODE:Csm_Mcu_ReadBackResetCfg)
000002ec  local     $C$LL2 (.CSM_CODE:Csm_Mcu_ReadBackResetCfg)
000002f4  local     $C$LL3 (.CSM_CODE:Csm_Mcu_ReadBackResetCfg)
000002fc  local     $C$LL4 (.CSM_CODE:Csm_Mcu_ReadBackResetCfg)
00000304  local     $C$LL5 (.CSM_CODE:Csm_Mcu_ReadBackResetCfg)
0000030c  local     $C$LL6 (.CSM_CODE:Csm_Mcu_ReadBackResetCfg)
000a27b0  local     $a (.CSM_CODE:Csm_Mcu_TesteFuseStuckZero)
000a2860  local     $a (.CSM_CODE:Csm_Mcu_eFuseSelfTest)
000a2930  local     $a (.CSM_CODE:Csm_Mcu_TesteFuseECC)
00000000  local     $a (.CSM_CODE:Csm_Mcu_delay)
00000000  local     $a (.CSM_CODE:Csm_Mcu_voltage_monitor_test_open_drain)
00000000  local     $a (.CSM_CODE:Csm_Mcu_voltage_monitor_test_enable)
00000000  local     $a (.CSM_CODE:Csm_Mcu_TestVoltageMonitor)
00000000  local     $a (.CSM_CODE:Csm_Mcu_TestRamSection)
000a2530  local     $a (.CSM_CODE:Csm_Mcu_GetCosmoSharedMemory)
000a46f0  local     $a (.CSM_CODE:Csm_Mcu_TestRamECCDo)
000a47e0  local     $a (.CSM_CODE:Csm_Mcu_TestRamECC)
000a4050  local     $a (.CSM_CODE:Csm_Mcu_Get_CPSR)
000a4060  local     $a (.CSM_CODE:Csm_Mcu_GlobalInterruptEnable)
000a4aa0  local     $a (.CSM_CODE:Csm_Mcu_InequalityTest)
000a4bd0  local     $a (.CSM_CODE:Csm_Mcu_EqualityTest)
000a4c70  local     $a (.CSM_CODE:Csm_Mcu_TestRamAddressDecode)
000a4980  local     $a (.CSM_CODE:Csm_Mcu_TestRamAddressBusParity)
000a4200  local     $a (.CSM_CODE:Csm_Mcu_ConditionalWait)
00000000  local     $a (.CSM_CODE:Csm_Mcu_TestPll2Slip)
00000000  local     $a (.CSM_CODE:Csm_Mcu_TestPll1Slip)
00000000  local     $a (.CSM_CODE:Csm_Mcu_TestPBIST)
000a2540  local     $a (.CSM_CODE:Csm_Mcu_TestL2L3interconnect)
000a51e0  local     $a (.CSM_CODE:Csm_Mcu_TestIommLock)
000a5210  local     $a (.CSM_CODE:Csm_Mcu_IommClearErrorAndFaultStatus)
000a5250  local     $a (.CSM_CODE:Csm_Mcu_TestIommAddrProtError)
000a29c0  local     $a (.CSM_CODE:Csm_Mcu_TestFlashWrapperAddressECC)
000a4cc0  local     $a (.CSM_CODE:Csm_Mcu_TestFlashDataECC)
000a4e90  local     $a (.CSM_CODE:Csm_Mcu_TestFlashAddressBus1Parity)
000a4fb0  local     $a (.CSM_CODE:Csm_Mcu_TestEepromECC)
000a4290  local     $a (.CSM_CODE:Csm_Mcu_TestClockMonitor)
00000000  local     $a (.CSM_CODE:Csm_Mcu_SetMode)
00000000  local     $a (.CSM_CODE:Csm_Mcu_RestoreFlashCfg)
000a2690  local     $a (.CSM_CODE:Csm_Mcu_GetResetReason)
00000000  local     $a (.CSM_CODE:Csm_Mcu_ReadBackResetCfg)
000ad260  local     $a (.CSM_CODE:Csm_Mcu_ReadBackCfg_Flash)
000ace40  local     $a (.CSM_CODE:Csm_Mcu_ReadBackPllConfig)
000ad010  local     $a (.CSM_CODE:Csm_Mcu_ReadBackIommCfg)
000ad070  local     $a (.CSM_CODE:Csm_Mcu_ReadBackCfg_Base)
000ad2e0  local     $a (.CSM_CODE:Csm_Mcu_ReadBackCfg)
00000000  local     $a (.CSM_CODE:Csm_Mcu_PerformReset)
000a3ea0  local     $a (.CSM_CODE:Csm_Mcu_PSCONSelfTestDo)
000a3f20  local     $a (.CSM_CODE:Csm_Mcu_PSCONSelfTest)
000a2140  local     $a (.CSM_CODE:Csm_Mcu_LeaveCriticalSection)
00000000  local     $a (.CSM_CODE:Csm_Mcu_IommGetErrorAndFaultStatus)
00000000  local     $a (.CSM_CODE:Csm_Mcu_IntegerDivisionByZero)
00000000  local     $a (.CSM_CODE:Csm_Mcu_InitRamSection)
00000000  local     $a (.CSM_CODE:Csm_Mcu_InitCosmoSharedMemory)
000a7e80  local     $a (.CSM_CODE:Csm_Mcu_I_Bit_Count)
00000000  local     $a (.CSM_CODE:Csm_Mcu_GetVersionInfo)
00000000  local     $a (.CSM_CODE:Csm_Mcu_GetUserSharedMemory)
00000000  local     $a (.CSM_CODE:Csm_Mcu_GetRamStatus)
00000000  local     $a (.CSM_CODE:Csm_Mcu_GetRamErrorCount)
000a1bb0  local     $a (.CSM_CODE:Csm_Mcu_GetRamErrorAddress)
00000000  local     $a (.CSM_CODE:Csm_Mcu_GetPllStatus)
00000000  local     $a (.CSM_CODE:Csm_Mcu_GetPSCONStatusCalculateResult)
00000000  local     $a (.CSM_CODE:Csm_Mcu_GetPSCONStatus)
00000000  local     $a (.CSM_CODE:Csm_Mcu_GetPSCONMode)
00000000  local     $a (.CSM_CODE:Csm_Mcu_GetFlashStatus)
00000000  local     $a (.CSM_CODE:Csm_Mcu_GetFlashErrorCount)
000a1b30  local     $a (.CSM_CODE:Csm_Mcu_GetFlashErrorAddress)
00000000  local     $a (.CSM_CODE:Csm_Mcu_GetEepromStatus)
00000000  local     $a (.CSM_CODE:Csm_Mcu_GetEepromErrorCount)
000a1c30  local     $a (.CSM_CODE:Csm_Mcu_GetEepromErrorAddress)
00000000  local     $a (.CSM_CODE:Csm_Mcu_GetCCMStatus)
00000000  local     $a (.CSM_CODE:Csm_Mcu_GetCCMMode)
000a1e80  local     $a (.CSM_CODE:Csm_Mcu_EnterCriticalSection)
000a1b70  local     $a (.CSM_CODE:Csm_Mcu_ClearRamErrorCount)
000a1b10  local     $a (.CSM_CODE:Csm_Mcu_ClearFlashErrorCount)
000a1c10  local     $a (.CSM_CODE:Csm_Mcu_ClearEepromErrorCount)
000a4080  local     $a (.CSM_CODE:Csm_Mcu_CCMSelfTestDo)
000a4110  local     $a (.CSM_CODE:Csm_Mcu_CCMSelfTest)
00000000  local     $d (.CSM_CONST)
00000540  local     $d (.CSM_CONST)
000002e4  local     $d (.CSM_CODE:Csm_Mcu_ReadBackResetCfg)
000a4110  local     .CSM_CODE:Csm_Mcu_CCMSelfTest (.CSM_CODE:Csm_Mcu_CCMSelfTest)
000a4080  local     .CSM_CODE:Csm_Mcu_CCMSelfTestDo (.CSM_CODE:Csm_Mcu_CCMSelfTestDo)
000a1c10  local     .CSM_CODE:Csm_Mcu_ClearEepromErrorCount (.CSM_CODE:Csm_Mcu_ClearEepromErrorCount)
000a1b10  local     .CSM_CODE:Csm_Mcu_ClearFlashErrorCount (.CSM_CODE:Csm_Mcu_ClearFlashErrorCount)
000a1b70  local     .CSM_CODE:Csm_Mcu_ClearRamErrorCount (.CSM_CODE:Csm_Mcu_ClearRamErrorCount)
000a4200  local     .CSM_CODE:Csm_Mcu_ConditionalWait (.CSM_CODE:Csm_Mcu_ConditionalWait)
000a1e80  local     .CSM_CODE:Csm_Mcu_EnterCriticalSection (.CSM_CODE:Csm_Mcu_EnterCriticalSection)
000a4bd0  local     .CSM_CODE:Csm_Mcu_EqualityTest (.CSM_CODE:Csm_Mcu_EqualityTest)
00000000  local     .CSM_CODE:Csm_Mcu_GetCCMMode (.CSM_CODE:Csm_Mcu_GetCCMMode)
00000000  local     .CSM_CODE:Csm_Mcu_GetCCMStatus (.CSM_CODE:Csm_Mcu_GetCCMStatus)
000a2530  local     .CSM_CODE:Csm_Mcu_GetCosmoSharedMemory (.CSM_CODE:Csm_Mcu_GetCosmoSharedMemory)
000a1c30  local     .CSM_CODE:Csm_Mcu_GetEepromErrorAddress (.CSM_CODE:Csm_Mcu_GetEepromErrorAddress)
00000000  local     .CSM_CODE:Csm_Mcu_GetEepromErrorCount (.CSM_CODE:Csm_Mcu_GetEepromErrorCount)
00000000  local     .CSM_CODE:Csm_Mcu_GetEepromStatus (.CSM_CODE:Csm_Mcu_GetEepromStatus)
000a1b30  local     .CSM_CODE:Csm_Mcu_GetFlashErrorAddress (.CSM_CODE:Csm_Mcu_GetFlashErrorAddress)
00000000  local     .CSM_CODE:Csm_Mcu_GetFlashErrorCount (.CSM_CODE:Csm_Mcu_GetFlashErrorCount)
00000000  local     .CSM_CODE:Csm_Mcu_GetFlashStatus (.CSM_CODE:Csm_Mcu_GetFlashStatus)
00000000  local     .CSM_CODE:Csm_Mcu_GetPSCONMode (.CSM_CODE:Csm_Mcu_GetPSCONMode)
00000000  local     .CSM_CODE:Csm_Mcu_GetPSCONStatus (.CSM_CODE:Csm_Mcu_GetPSCONStatus)
00000000  local     .CSM_CODE:Csm_Mcu_GetPSCONStatusCalculateResult (.CSM_CODE:Csm_Mcu_GetPSCONStatusCalculateResult)
00000000  local     .CSM_CODE:Csm_Mcu_GetPllStatus (.CSM_CODE:Csm_Mcu_GetPllStatus)
000a1bb0  local     .CSM_CODE:Csm_Mcu_GetRamErrorAddress (.CSM_CODE:Csm_Mcu_GetRamErrorAddress)
00000000  local     .CSM_CODE:Csm_Mcu_GetRamErrorCount (.CSM_CODE:Csm_Mcu_GetRamErrorCount)
00000000  local     .CSM_CODE:Csm_Mcu_GetRamStatus (.CSM_CODE:Csm_Mcu_GetRamStatus)
000a2690  local     .CSM_CODE:Csm_Mcu_GetResetReason (.CSM_CODE:Csm_Mcu_GetResetReason)
00000000  local     .CSM_CODE:Csm_Mcu_GetUserSharedMemory (.CSM_CODE:Csm_Mcu_GetUserSharedMemory)
00000000  local     .CSM_CODE:Csm_Mcu_GetVersionInfo (.CSM_CODE:Csm_Mcu_GetVersionInfo)
000a4050  local     .CSM_CODE:Csm_Mcu_Get_CPSR (.CSM_CODE:Csm_Mcu_Get_CPSR)
000a4060  local     .CSM_CODE:Csm_Mcu_GlobalInterruptEnable (.CSM_CODE:Csm_Mcu_GlobalInterruptEnable)
000a7e80  local     .CSM_CODE:Csm_Mcu_I_Bit_Count (.CSM_CODE:Csm_Mcu_I_Bit_Count)
000a4aa0  local     .CSM_CODE:Csm_Mcu_InequalityTest (.CSM_CODE:Csm_Mcu_InequalityTest)
00000000  local     .CSM_CODE:Csm_Mcu_InitCosmoSharedMemory (.CSM_CODE:Csm_Mcu_InitCosmoSharedMemory)
00000000  local     .CSM_CODE:Csm_Mcu_InitRamSection (.CSM_CODE:Csm_Mcu_InitRamSection)
00000000  local     .CSM_CODE:Csm_Mcu_IntegerDivisionByZero (.CSM_CODE:Csm_Mcu_IntegerDivisionByZero)
000a5210  local     .CSM_CODE:Csm_Mcu_IommClearErrorAndFaultStatus (.CSM_CODE:Csm_Mcu_IommClearErrorAndFaultStatus)
00000000  local     .CSM_CODE:Csm_Mcu_IommGetErrorAndFaultStatus (.CSM_CODE:Csm_Mcu_IommGetErrorAndFaultStatus)
000a2140  local     .CSM_CODE:Csm_Mcu_LeaveCriticalSection (.CSM_CODE:Csm_Mcu_LeaveCriticalSection)
000a3f20  local     .CSM_CODE:Csm_Mcu_PSCONSelfTest (.CSM_CODE:Csm_Mcu_PSCONSelfTest)
000a3ea0  local     .CSM_CODE:Csm_Mcu_PSCONSelfTestDo (.CSM_CODE:Csm_Mcu_PSCONSelfTestDo)
00000000  local     .CSM_CODE:Csm_Mcu_PerformReset (.CSM_CODE:Csm_Mcu_PerformReset)
000ad2e0  local     .CSM_CODE:Csm_Mcu_ReadBackCfg (.CSM_CODE:Csm_Mcu_ReadBackCfg)
000ad070  local     .CSM_CODE:Csm_Mcu_ReadBackCfg_Base (.CSM_CODE:Csm_Mcu_ReadBackCfg_Base)
000ad260  local     .CSM_CODE:Csm_Mcu_ReadBackCfg_Flash (.CSM_CODE:Csm_Mcu_ReadBackCfg_Flash)
000ad010  local     .CSM_CODE:Csm_Mcu_ReadBackIommCfg (.CSM_CODE:Csm_Mcu_ReadBackIommCfg)
000ace40  local     .CSM_CODE:Csm_Mcu_ReadBackPllConfig (.CSM_CODE:Csm_Mcu_ReadBackPllConfig)
00000000  local     .CSM_CODE:Csm_Mcu_ReadBackResetCfg (.CSM_CODE:Csm_Mcu_ReadBackResetCfg)
00000000  local     .CSM_CODE:Csm_Mcu_RestoreFlashCfg (.CSM_CODE:Csm_Mcu_RestoreFlashCfg)
00000000  local     .CSM_CODE:Csm_Mcu_SetMode (.CSM_CODE:Csm_Mcu_SetMode)
000a4290  local     .CSM_CODE:Csm_Mcu_TestClockMonitor (.CSM_CODE:Csm_Mcu_TestClockMonitor)
000a4fb0  local     .CSM_CODE:Csm_Mcu_TestEepromECC (.CSM_CODE:Csm_Mcu_TestEepromECC)
000a4e90  local     .CSM_CODE:Csm_Mcu_TestFlashAddressBus1Parity (.CSM_CODE:Csm_Mcu_TestFlashAddressBus1Parity)
000a4cc0  local     .CSM_CODE:Csm_Mcu_TestFlashDataECC (.CSM_CODE:Csm_Mcu_TestFlashDataECC)
000a29c0  local     .CSM_CODE:Csm_Mcu_TestFlashWrapperAddressECC (.CSM_CODE:Csm_Mcu_TestFlashWrapperAddressECC)
000a5250  local     .CSM_CODE:Csm_Mcu_TestIommAddrProtError (.CSM_CODE:Csm_Mcu_TestIommAddrProtError)
000a51e0  local     .CSM_CODE:Csm_Mcu_TestIommLock (.CSM_CODE:Csm_Mcu_TestIommLock)
000a2540  local     .CSM_CODE:Csm_Mcu_TestL2L3interconnect (.CSM_CODE:Csm_Mcu_TestL2L3interconnect)
00000000  local     .CSM_CODE:Csm_Mcu_TestPBIST (.CSM_CODE:Csm_Mcu_TestPBIST)
00000000  local     .CSM_CODE:Csm_Mcu_TestPll1Slip (.CSM_CODE:Csm_Mcu_TestPll1Slip)
00000000  local     .CSM_CODE:Csm_Mcu_TestPll2Slip (.CSM_CODE:Csm_Mcu_TestPll2Slip)
000a4980  local     .CSM_CODE:Csm_Mcu_TestRamAddressBusParity (.CSM_CODE:Csm_Mcu_TestRamAddressBusParity)
000a4c70  local     .CSM_CODE:Csm_Mcu_TestRamAddressDecode (.CSM_CODE:Csm_Mcu_TestRamAddressDecode)
000a47e0  local     .CSM_CODE:Csm_Mcu_TestRamECC (.CSM_CODE:Csm_Mcu_TestRamECC)
000a46f0  local     .CSM_CODE:Csm_Mcu_TestRamECCDo (.CSM_CODE:Csm_Mcu_TestRamECCDo)
00000000  local     .CSM_CODE:Csm_Mcu_TestRamSection (.CSM_CODE:Csm_Mcu_TestRamSection)
00000000  local     .CSM_CODE:Csm_Mcu_TestVoltageMonitor (.CSM_CODE:Csm_Mcu_TestVoltageMonitor)
000a2930  local     .CSM_CODE:Csm_Mcu_TesteFuseECC (.CSM_CODE:Csm_Mcu_TesteFuseECC)
000a27b0  local     .CSM_CODE:Csm_Mcu_TesteFuseStuckZero (.CSM_CODE:Csm_Mcu_TesteFuseStuckZero)
00000000  local     .CSM_CODE:Csm_Mcu_delay (.CSM_CODE:Csm_Mcu_delay)
000a2860  local     .CSM_CODE:Csm_Mcu_eFuseSelfTest (.CSM_CODE:Csm_Mcu_eFuseSelfTest)
00000000  local     .CSM_CODE:Csm_Mcu_voltage_monitor_test_enable (.CSM_CODE:Csm_Mcu_voltage_monitor_test_enable)
00000000  local     .CSM_CODE:Csm_Mcu_voltage_monitor_test_open_drain (.CSM_CODE:Csm_Mcu_voltage_monitor_test_open_drain)
00000000  local     .CSM_CONST (.CSM_CONST)
080380b0  local     .CSM_VAR_NO_INIT_UNSPECIFIED (.CSM_VAR_NO_INIT_UNSPECIFIED)
00000000  local     .text (.text)
00000000  local     CSM_MCU_RESET_REG_ADDR (.CSM_CONST)
00000540  local     CSM_MCU_RESET_REG_ADDR_MULTI (.CSM_CONST)
000a4110  global    Csm_Mcu_CCMSelfTest (.CSM_CODE:Csm_Mcu_CCMSelfTest)
000a4080  local     Csm_Mcu_CCMSelfTestDo (.CSM_CODE:Csm_Mcu_CCMSelfTestDo)
000a1c10  global    Csm_Mcu_ClearEepromErrorCount (.CSM_CODE:Csm_Mcu_ClearEepromErrorCount)
000a1b10  global    Csm_Mcu_ClearFlashErrorCount (.CSM_CODE:Csm_Mcu_ClearFlashErrorCount)
000a1b70  global    Csm_Mcu_ClearRamErrorCount (.CSM_CODE:Csm_Mcu_ClearRamErrorCount)
000a4200  local     Csm_Mcu_ConditionalWait (.CSM_CODE:Csm_Mcu_ConditionalWait)
000a1e80  global    Csm_Mcu_EnterCriticalSection (.CSM_CODE:Csm_Mcu_EnterCriticalSection)
000a4bd0  local     Csm_Mcu_EqualityTest (.CSM_CODE:Csm_Mcu_EqualityTest)
00000000  global    Csm_Mcu_GetCCMMode (.CSM_CODE:Csm_Mcu_GetCCMMode)
00000000  global    Csm_Mcu_GetCCMStatus (.CSM_CODE:Csm_Mcu_GetCCMStatus)
000a2530  global    Csm_Mcu_GetCosmoSharedMemory (.CSM_CODE:Csm_Mcu_GetCosmoSharedMemory)
000a1c30  global    Csm_Mcu_GetEepromErrorAddress (.CSM_CODE:Csm_Mcu_GetEepromErrorAddress)
00000000  global    Csm_Mcu_GetEepromErrorCount (.CSM_CODE:Csm_Mcu_GetEepromErrorCount)
00000000  global    Csm_Mcu_GetEepromStatus (.CSM_CODE:Csm_Mcu_GetEepromStatus)
000a1b30  global    Csm_Mcu_GetFlashErrorAddress (.CSM_CODE:Csm_Mcu_GetFlashErrorAddress)
00000000  global    Csm_Mcu_GetFlashErrorCount (.CSM_CODE:Csm_Mcu_GetFlashErrorCount)
00000000  global    Csm_Mcu_GetFlashStatus (.CSM_CODE:Csm_Mcu_GetFlashStatus)
00000000  global    Csm_Mcu_GetPSCONMode (.CSM_CODE:Csm_Mcu_GetPSCONMode)
00000000  global    Csm_Mcu_GetPSCONStatus (.CSM_CODE:Csm_Mcu_GetPSCONStatus)
00000000  local     Csm_Mcu_GetPSCONStatusCalculateResult (.CSM_CODE:Csm_Mcu_GetPSCONStatusCalculateResult)
00000000  global    Csm_Mcu_GetPllStatus (.CSM_CODE:Csm_Mcu_GetPllStatus)
000a1bb0  global    Csm_Mcu_GetRamErrorAddress (.CSM_CODE:Csm_Mcu_GetRamErrorAddress)
00000000  global    Csm_Mcu_GetRamErrorCount (.CSM_CODE:Csm_Mcu_GetRamErrorCount)
00000000  global    Csm_Mcu_GetRamStatus (.CSM_CODE:Csm_Mcu_GetRamStatus)
000a2690  global    Csm_Mcu_GetResetReason (.CSM_CODE:Csm_Mcu_GetResetReason)
00000000  global    Csm_Mcu_GetUserSharedMemory (.CSM_CODE:Csm_Mcu_GetUserSharedMemory)
00000000  global    Csm_Mcu_GetVersionInfo (.CSM_CODE:Csm_Mcu_GetVersionInfo)
000a4050  local     Csm_Mcu_Get_CPSR (.CSM_CODE:Csm_Mcu_Get_CPSR)
000a4060  global    Csm_Mcu_GlobalInterruptEnable (.CSM_CODE:Csm_Mcu_GlobalInterruptEnable)
000a7e80  global    Csm_Mcu_I_Bit_Count (.CSM_CODE:Csm_Mcu_I_Bit_Count)
000a4aa0  local     Csm_Mcu_InequalityTest (.CSM_CODE:Csm_Mcu_InequalityTest)
00000000  global    Csm_Mcu_InitCosmoSharedMemory (.CSM_CODE:Csm_Mcu_InitCosmoSharedMemory)
000a0aec  global    Csm_Mcu_InitRamSection (.CSM_CODE:Csm_Mcu_InitRamSection)
00000000  global    Csm_Mcu_IntegerDivisionByZero (.CSM_CODE:Csm_Mcu_IntegerDivisionByZero)
000a5210  global    Csm_Mcu_IommClearErrorAndFaultStatus (.CSM_CODE:Csm_Mcu_IommClearErrorAndFaultStatus)
00000000  global    Csm_Mcu_IommGetErrorAndFaultStatus (.CSM_CODE:Csm_Mcu_IommGetErrorAndFaultStatus)
000a2140  global    Csm_Mcu_LeaveCriticalSection (.CSM_CODE:Csm_Mcu_LeaveCriticalSection)
000a3f20  global    Csm_Mcu_PSCONSelfTest (.CSM_CODE:Csm_Mcu_PSCONSelfTest)
000a3ea0  local     Csm_Mcu_PSCONSelfTestDo (.CSM_CODE:Csm_Mcu_PSCONSelfTestDo)
00000000  global    Csm_Mcu_PerformReset (.CSM_CODE:Csm_Mcu_PerformReset)
000ad2e0  global    Csm_Mcu_ReadBackCfg (.CSM_CODE:Csm_Mcu_ReadBackCfg)
000ad070  global    Csm_Mcu_ReadBackCfg_Base (.CSM_CODE:Csm_Mcu_ReadBackCfg_Base)
000ad260  global    Csm_Mcu_ReadBackCfg_Flash (.CSM_CODE:Csm_Mcu_ReadBackCfg_Flash)
000ad010  local     Csm_Mcu_ReadBackIommCfg (.CSM_CODE:Csm_Mcu_ReadBackIommCfg)
000ace40  local     Csm_Mcu_ReadBackPllConfig (.CSM_CODE:Csm_Mcu_ReadBackPllConfig)
00000000  global    Csm_Mcu_ReadBackResetCfg (.CSM_CODE:Csm_Mcu_ReadBackResetCfg)
00000000  global    Csm_Mcu_RestoreFlashCfg (.CSM_CODE:Csm_Mcu_RestoreFlashCfg)
00000000  global    Csm_Mcu_SetMode (.CSM_CODE:Csm_Mcu_SetMode)
000a4290  global    Csm_Mcu_TestClockMonitor (.CSM_CODE:Csm_Mcu_TestClockMonitor)
000a4fb0  global    Csm_Mcu_TestEepromECC (.CSM_CODE:Csm_Mcu_TestEepromECC)
000a4e90  global    Csm_Mcu_TestFlashAddressBus1Parity (.CSM_CODE:Csm_Mcu_TestFlashAddressBus1Parity)
000a4cc0  global    Csm_Mcu_TestFlashDataECC (.CSM_CODE:Csm_Mcu_TestFlashDataECC)
000a29c0  global    Csm_Mcu_TestFlashWrapperAddressECC (.CSM_CODE:Csm_Mcu_TestFlashWrapperAddressECC)
000a5250  global    Csm_Mcu_TestIommAddrProtError (.CSM_CODE:Csm_Mcu_TestIommAddrProtError)
000a51e0  global    Csm_Mcu_TestIommLock (.CSM_CODE:Csm_Mcu_TestIommLock)
000a2540  global    Csm_Mcu_TestL2L3interconnect (.CSM_CODE:Csm_Mcu_TestL2L3interconnect)
000a0890  global    Csm_Mcu_TestPBIST (.CSM_CODE:Csm_Mcu_TestPBIST)
00000000  global    Csm_Mcu_TestPll1Slip (.CSM_CODE:Csm_Mcu_TestPll1Slip)
00000000  global    Csm_Mcu_TestPll2Slip (.CSM_CODE:Csm_Mcu_TestPll2Slip)
000a4980  global    Csm_Mcu_TestRamAddressBusParity (.CSM_CODE:Csm_Mcu_TestRamAddressBusParity)
000a4c70  global    Csm_Mcu_TestRamAddressDecode (.CSM_CODE:Csm_Mcu_TestRamAddressDecode)
000a47e0  global    Csm_Mcu_TestRamECC (.CSM_CODE:Csm_Mcu_TestRamECC)
000a46f0  local     Csm_Mcu_TestRamECCDo (.CSM_CODE:Csm_Mcu_TestRamECCDo)
000a08c0  global    Csm_Mcu_TestRamSection (.CSM_CODE:Csm_Mcu_TestRamSection)
00000000  global    Csm_Mcu_TestVoltageMonitor (.CSM_CODE:Csm_Mcu_TestVoltageMonitor)
000a2930  global    Csm_Mcu_TesteFuseECC (.CSM_CODE:Csm_Mcu_TesteFuseECC)
000a27b0  local     Csm_Mcu_TesteFuseStuckZero (.CSM_CODE:Csm_Mcu_TesteFuseStuckZero)
00000000  local     Csm_Mcu_delay (.CSM_CODE:Csm_Mcu_delay)
000a2860  local     Csm_Mcu_eFuseSelfTest (.CSM_CODE:Csm_Mcu_eFuseSelfTest)
00000000  local     Csm_Mcu_voltage_monitor_test_enable (.CSM_CODE:Csm_Mcu_voltage_monitor_test_enable)
00000000  local     Csm_Mcu_voltage_monitor_test_open_drain (.CSM_CODE:Csm_Mcu_voltage_monitor_test_open_drain)
08038318  global    csm_mcu_bcr1_backup (.CSM_VAR_NO_INIT_UNSPECIFIED)
0803831c  global    csm_mcu_bcr2_backup (.CSM_VAR_NO_INIT_UNSPECIFIED)
08038320  global    csm_mcu_bcr3_backup (.CSM_VAR_NO_INIT_UNSPECIFIED)
08038324  global    csm_mcu_bcr4_backup (.CSM_VAR_NO_INIT_UNSPECIFIED)
08038328  global    csm_mcu_bcr5_backup (.CSM_VAR_NO_INIT_UNSPECIFIED)
0803832c  global    csm_mcu_bcr6_backup (.CSM_VAR_NO_INIT_UNSPECIFIED)
08038330  global    csm_mcu_bcr7_backup (.CSM_VAR_NO_INIT_UNSPECIFIED)
08038334  global    csm_mcu_bcr8_backup (.CSM_VAR_NO_INIT_UNSPECIFIED)
080382f8  global    csm_mcu_bvr1_backup (.CSM_VAR_NO_INIT_UNSPECIFIED)
080382fc  global    csm_mcu_bvr2_backup (.CSM_VAR_NO_INIT_UNSPECIFIED)
08038300  global    csm_mcu_bvr3_backup (.CSM_VAR_NO_INIT_UNSPECIFIED)
08038304  global    csm_mcu_bvr4_backup (.CSM_VAR_NO_INIT_UNSPECIFIED)
08038308  global    csm_mcu_bvr5_backup (.CSM_VAR_NO_INIT_UNSPECIFIED)
0803830c  global    csm_mcu_bvr6_backup (.CSM_VAR_NO_INIT_UNSPECIFIED)
08038310  global    csm_mcu_bvr7_backup (.CSM_VAR_NO_INIT_UNSPECIFIED)
08038314  global    csm_mcu_bvr8_backup (.CSM_VAR_NO_INIT_UNSPECIFIED)
0803826c  global    csm_mcu_cp13_fpexc_backup (.CSM_VAR_NO_INIT_UNSPECIFIED)
08038270  global    csm_mcu_cp13_fpscr_backup (.CSM_VAR_NO_INIT_UNSPECIFIED)
0803813c  global    csm_mcu_cp15_c0_2_c0_0_bkup (.CSM_VAR_NO_INIT_UNSPECIFIED)
08038230  global    csm_mcu_cp15_c11_0_c0_0_bkup (.CSM_VAR_NO_INIT_UNSPECIFIED)
08038234  global    csm_mcu_cp15_c13_0_c0_1_bkup (.CSM_VAR_NO_INIT_UNSPECIFIED)
08038238  global    csm_mcu_cp15_c13_0_c0_2_bkup (.CSM_VAR_NO_INIT_UNSPECIFIED)
0803823c  global    csm_mcu_cp15_c13_0_c0_3_bkup (.CSM_VAR_NO_INIT_UNSPECIFIED)
08038240  global    csm_mcu_cp15_c13_0_c0_4_bkup (.CSM_VAR_NO_INIT_UNSPECIFIED)
08038244  global    csm_mcu_cp15_c15_0_c0_0_bkup (.CSM_VAR_NO_INIT_UNSPECIFIED)
08038248  global    csm_mcu_cp15_c15_0_c1_0_bkup (.CSM_VAR_NO_INIT_UNSPECIFIED)
0803824c  global    csm_mcu_cp15_c15_0_c1_1_bkup (.CSM_VAR_NO_INIT_UNSPECIFIED)
08038250  global    csm_mcu_cp15_c15_0_c1_2_bkup (.CSM_VAR_NO_INIT_UNSPECIFIED)
08038254  global    csm_mcu_cp15_c15_0_c1_3_bkup (.CSM_VAR_NO_INIT_UNSPECIFIED)
08038258  global    csm_mcu_cp15_c15_0_c1_4_bkup (.CSM_VAR_NO_INIT_UNSPECIFIED)
0803825c  global    csm_mcu_cp15_c15_0_c1_5_bkup (.CSM_VAR_NO_INIT_UNSPECIFIED)
08038260  global    csm_mcu_cp15_c15_0_c1_6_bkup (.CSM_VAR_NO_INIT_UNSPECIFIED)
08038264  global    csm_mcu_cp15_c15_0_c1_7_bkup (.CSM_VAR_NO_INIT_UNSPECIFIED)
08038268  global    csm_mcu_cp15_c15_0_c3_0_bkup (.CSM_VAR_NO_INIT_UNSPECIFIED)
08038140  global    csm_mcu_cp15_c1_0_c0_0_bkup (.CSM_VAR_NO_INIT_UNSPECIFIED)
08038144  global    csm_mcu_cp15_c1_0_c0_1_bkup (.CSM_VAR_NO_INIT_UNSPECIFIED)
08038148  global    csm_mcu_cp15_c1_0_c0_2_bkup (.CSM_VAR_NO_INIT_UNSPECIFIED)
0803814c  global    csm_mcu_cp15_c5_0_c0_0_bkup (.CSM_VAR_NO_INIT_UNSPECIFIED)
08038150  global    csm_mcu_cp15_c5_0_c0_1_bkup (.CSM_VAR_NO_INIT_UNSPECIFIED)
08038154  global    csm_mcu_cp15_c5_0_c1_0_bkup (.CSM_VAR_NO_INIT_UNSPECIFIED)
08038158  global    csm_mcu_cp15_c5_0_c1_1_bkup (.CSM_VAR_NO_INIT_UNSPECIFIED)
0803815c  global    csm_mcu_cp15_c6_0_c0_0_bkup (.CSM_VAR_NO_INIT_UNSPECIFIED)
08038160  global    csm_mcu_cp15_c6_0_c0_2_bkup (.CSM_VAR_NO_INIT_UNSPECIFIED)
08038164  global    csm_mcu_cp15_c6_0_c1_0_bkup (.CSM_VAR_NO_INIT_UNSPECIFIED)
08038194  global    csm_mcu_cp15_c6_0_c1_2_bkup (.CSM_VAR_NO_INIT_UNSPECIFIED)
080381c4  global    csm_mcu_cp15_c6_0_c1_4_bkup (.CSM_VAR_NO_INIT_UNSPECIFIED)
080381f4  global    csm_mcu_cp15_c6_0_c2_0_bkup (.CSM_VAR_NO_INIT_UNSPECIFIED)
08038204  global    csm_mcu_cp15_c9_0_c12_0_bkup (.CSM_VAR_NO_INIT_UNSPECIFIED)
08038208  global    csm_mcu_cp15_c9_0_c12_1_bkup (.CSM_VAR_NO_INIT_UNSPECIFIED)
0803820c  global    csm_mcu_cp15_c9_0_c12_2_bkup (.CSM_VAR_NO_INIT_UNSPECIFIED)
08038210  global    csm_mcu_cp15_c9_0_c12_3_bkup (.CSM_VAR_NO_INIT_UNSPECIFIED)
08038214  global    csm_mcu_cp15_c9_0_c12_5_bkup (.CSM_VAR_NO_INIT_UNSPECIFIED)
08038218  global    csm_mcu_cp15_c9_0_c13_0_bkup (.CSM_VAR_NO_INIT_UNSPECIFIED)
0803821c  global    csm_mcu_cp15_c9_0_c13_1_bkup (.CSM_VAR_NO_INIT_UNSPECIFIED)
08038220  global    csm_mcu_cp15_c9_0_c13_2_bkup (.CSM_VAR_NO_INIT_UNSPECIFIED)
08038224  global    csm_mcu_cp15_c9_0_c14_0_bkup (.CSM_VAR_NO_INIT_UNSPECIFIED)
08038228  global    csm_mcu_cp15_c9_0_c14_1_bkup (.CSM_VAR_NO_INIT_UNSPECIFIED)
0803822c  global    csm_mcu_cp15_c9_0_c14_2_bkup (.CSM_VAR_NO_INIT_UNSPECIFIED)
080381f8  global    csm_mcu_cp15_c9_0_c1_0_bkup (.CSM_VAR_NO_INIT_UNSPECIFIED)
080381fc  global    csm_mcu_cp15_c9_0_c1_1_bkup (.CSM_VAR_NO_INIT_UNSPECIFIED)
08038200  global    csm_mcu_cp15_c9_0_c2_0_bkup (.CSM_VAR_NO_INIT_UNSPECIFIED)
080380dc  global    csm_mcu_cpsr_svc_backup (.CSM_VAR_NO_INIT_UNSPECIFIED)
08038384  global    csm_mcu_dsccr_backup (.CSM_VAR_NO_INIT_UNSPECIFIED)
08038388  global    csm_mcu_dscr_backup (.CSM_VAR_NO_INIT_UNSPECIFIED)
08038380  global    csm_mcu_ecr_backup (.CSM_VAR_NO_INIT_UNSPECIFIED)
08038278  global    csm_mcu_fpu_d0_high (.CSM_VAR_NO_INIT_UNSPECIFIED)
08038274  global    csm_mcu_fpu_d0_low (.CSM_VAR_NO_INIT_UNSPECIFIED)
080382c8  global    csm_mcu_fpu_d10_high (.CSM_VAR_NO_INIT_UNSPECIFIED)
080382c4  global    csm_mcu_fpu_d10_low (.CSM_VAR_NO_INIT_UNSPECIFIED)
080382d0  global    csm_mcu_fpu_d11_high (.CSM_VAR_NO_INIT_UNSPECIFIED)
080382cc  global    csm_mcu_fpu_d11_low (.CSM_VAR_NO_INIT_UNSPECIFIED)
080382d8  global    csm_mcu_fpu_d12_high (.CSM_VAR_NO_INIT_UNSPECIFIED)
080382d4  global    csm_mcu_fpu_d12_low (.CSM_VAR_NO_INIT_UNSPECIFIED)
080382e0  global    csm_mcu_fpu_d13_high (.CSM_VAR_NO_INIT_UNSPECIFIED)
080382dc  global    csm_mcu_fpu_d13_low (.CSM_VAR_NO_INIT_UNSPECIFIED)
080382e8  global    csm_mcu_fpu_d14_high (.CSM_VAR_NO_INIT_UNSPECIFIED)
080382e4  global    csm_mcu_fpu_d14_low (.CSM_VAR_NO_INIT_UNSPECIFIED)
080382f0  global    csm_mcu_fpu_d15_high (.CSM_VAR_NO_INIT_UNSPECIFIED)
080382ec  global    csm_mcu_fpu_d15_low (.CSM_VAR_NO_INIT_UNSPECIFIED)
08038280  global    csm_mcu_fpu_d1_high (.CSM_VAR_NO_INIT_UNSPECIFIED)
0803827c  global    csm_mcu_fpu_d1_low (.CSM_VAR_NO_INIT_UNSPECIFIED)
08038288  global    csm_mcu_fpu_d2_high (.CSM_VAR_NO_INIT_UNSPECIFIED)
08038284  global    csm_mcu_fpu_d2_low (.CSM_VAR_NO_INIT_UNSPECIFIED)
08038290  global    csm_mcu_fpu_d3_high (.CSM_VAR_NO_INIT_UNSPECIFIED)
0803828c  global    csm_mcu_fpu_d3_low (.CSM_VAR_NO_INIT_UNSPECIFIED)
08038298  global    csm_mcu_fpu_d4_high (.CSM_VAR_NO_INIT_UNSPECIFIED)
08038294  global    csm_mcu_fpu_d4_low (.CSM_VAR_NO_INIT_UNSPECIFIED)
080382a0  global    csm_mcu_fpu_d5_high (.CSM_VAR_NO_INIT_UNSPECIFIED)
0803829c  global    csm_mcu_fpu_d5_low (.CSM_VAR_NO_INIT_UNSPECIFIED)
080382a8  global    csm_mcu_fpu_d6_high (.CSM_VAR_NO_INIT_UNSPECIFIED)
080382a4  global    csm_mcu_fpu_d6_low (.CSM_VAR_NO_INIT_UNSPECIFIED)
080382b0  global    csm_mcu_fpu_d7_high (.CSM_VAR_NO_INIT_UNSPECIFIED)
080382ac  global    csm_mcu_fpu_d7_low (.CSM_VAR_NO_INIT_UNSPECIFIED)
080382b8  global    csm_mcu_fpu_d8_high (.CSM_VAR_NO_INIT_UNSPECIFIED)
080382b4  global    csm_mcu_fpu_d8_low (.CSM_VAR_NO_INIT_UNSPECIFIED)
080382c0  global    csm_mcu_fpu_d9_high (.CSM_VAR_NO_INIT_UNSPECIFIED)
080382bc  global    csm_mcu_fpu_d9_low (.CSM_VAR_NO_INIT_UNSPECIFIED)
080380d4  global    csm_mcu_linkregister_abort_bkup (.CSM_VAR_NO_INIT_UNSPECIFIED)
080380cc  global    csm_mcu_linkregister_fiq_bkup (.CSM_VAR_NO_INIT_UNSPECIFIED)
080380d0  global    csm_mcu_linkregister_irq_bkup (.CSM_VAR_NO_INIT_UNSPECIFIED)
080380d8  global    csm_mcu_linkregister_undef_bkup (.CSM_VAR_NO_INIT_UNSPECIFIED)
080380c8  global    csm_mcu_linkregister_user_bkup (.CSM_VAR_NO_INIT_UNSPECIFIED)
080382f4  global    csm_mcu_lock_status_backup (.CSM_VAR_NO_INIT_UNSPECIFIED)
0803838c  global    csm_mcu_prcr_backup (.CSM_VAR_NO_INIT_UNSPECIFIED)
080380f4  global    csm_mcu_r0_bkup (.CSM_VAR_NO_INIT_UNSPECIFIED)
0803811c  global    csm_mcu_r10_bkup (.CSM_VAR_NO_INIT_UNSPECIFIED)
08038130  global    csm_mcu_r10_fiq_bkup (.CSM_VAR_NO_INIT_UNSPECIFIED)
08038120  global    csm_mcu_r11_bkup (.CSM_VAR_NO_INIT_UNSPECIFIED)
08038134  global    csm_mcu_r11_fiq_bkup (.CSM_VAR_NO_INIT_UNSPECIFIED)
08038124  global    csm_mcu_r12_bkup (.CSM_VAR_NO_INIT_UNSPECIFIED)
08038138  global    csm_mcu_r12_fiq_bkup (.CSM_VAR_NO_INIT_UNSPECIFIED)
080380f8  global    csm_mcu_r1_bkup (.CSM_VAR_NO_INIT_UNSPECIFIED)
080380fc  global    csm_mcu_r2_bkup (.CSM_VAR_NO_INIT_UNSPECIFIED)
08038100  global    csm_mcu_r3_bkup (.CSM_VAR_NO_INIT_UNSPECIFIED)
08038104  global    csm_mcu_r4_bkup (.CSM_VAR_NO_INIT_UNSPECIFIED)
08038108  global    csm_mcu_r5_bkup (.CSM_VAR_NO_INIT_UNSPECIFIED)
0803810c  global    csm_mcu_r6_bkup (.CSM_VAR_NO_INIT_UNSPECIFIED)
08038110  global    csm_mcu_r7_bkup (.CSM_VAR_NO_INIT_UNSPECIFIED)
08038114  global    csm_mcu_r8_bkup (.CSM_VAR_NO_INIT_UNSPECIFIED)
08038128  global    csm_mcu_r8_fiq_bkup (.CSM_VAR_NO_INIT_UNSPECIFIED)
08038118  global    csm_mcu_r9_bkup (.CSM_VAR_NO_INIT_UNSPECIFIED)
0803812c  global    csm_mcu_r9_fiq_bkup (.CSM_VAR_NO_INIT_UNSPECIFIED)
080380ec  global    csm_mcu_spsr_abort_backup (.CSM_VAR_NO_INIT_UNSPECIFIED)
080380e4  global    csm_mcu_spsr_fiq_backup (.CSM_VAR_NO_INIT_UNSPECIFIED)
080380e8  global    csm_mcu_spsr_irq_backup (.CSM_VAR_NO_INIT_UNSPECIFIED)
080380e0  global    csm_mcu_spsr_svc_backup (.CSM_VAR_NO_INIT_UNSPECIFIED)
080380f0  global    csm_mcu_spsr_undef_backup (.CSM_VAR_NO_INIT_UNSPECIFIED)
080380c0  global    csm_mcu_stackpointer_abort_bkup (.CSM_VAR_NO_INIT_UNSPECIFIED)
080380b8  global    csm_mcu_stackpointer_fiq_bkup (.CSM_VAR_NO_INIT_UNSPECIFIED)
080380bc  global    csm_mcu_stackpointer_irq_bkup (.CSM_VAR_NO_INIT_UNSPECIFIED)
080380b4  global    csm_mcu_stackpointer_svc_bkup (.CSM_VAR_NO_INIT_UNSPECIFIED)
080380c4  global    csm_mcu_stackpointer_undef_bkup (.CSM_VAR_NO_INIT_UNSPECIFIED)
080380b0  global    csm_mcu_stackpointer_user_bkup (.CSM_VAR_NO_INIT_UNSPECIFIED)
0803837c  global    csm_mcu_vcr_backup (.CSM_VAR_NO_INIT_UNSPECIFIED)
08038358  global    csm_mcu_wcr1_backup (.CSM_VAR_NO_INIT_UNSPECIFIED)
0803835c  global    csm_mcu_wcr2_backup (.CSM_VAR_NO_INIT_UNSPECIFIED)
08038360  global    csm_mcu_wcr3_backup (.CSM_VAR_NO_INIT_UNSPECIFIED)
08038364  global    csm_mcu_wcr4_backup (.CSM_VAR_NO_INIT_UNSPECIFIED)
08038368  global    csm_mcu_wcr5_backup (.CSM_VAR_NO_INIT_UNSPECIFIED)
0803836c  global    csm_mcu_wcr6_backup (.CSM_VAR_NO_INIT_UNSPECIFIED)
08038370  global    csm_mcu_wcr7_backup (.CSM_VAR_NO_INIT_UNSPECIFIED)
08038374  global    csm_mcu_wcr8_backup (.CSM_VAR_NO_INIT_UNSPECIFIED)
08038378  global    csm_mcu_wfar_backup (.CSM_VAR_NO_INIT_UNSPECIFIED)
08038338  global    csm_mcu_wvr1_backup (.CSM_VAR_NO_INIT_UNSPECIFIED)
0803833c  global    csm_mcu_wvr2_backup (.CSM_VAR_NO_INIT_UNSPECIFIED)
08038340  global    csm_mcu_wvr3_backup (.CSM_VAR_NO_INIT_UNSPECIFIED)
08038344  global    csm_mcu_wvr4_backup (.CSM_VAR_NO_INIT_UNSPECIFIED)
08038348  global    csm_mcu_wvr5_backup (.CSM_VAR_NO_INIT_UNSPECIFIED)
0803834c  global    csm_mcu_wvr6_backup (.CSM_VAR_NO_INIT_UNSPECIFIED)
08038350  global    csm_mcu_wvr7_backup (.CSM_VAR_NO_INIT_UNSPECIFIED)
08038354  global    csm_mcu_wvr8_backup (.CSM_VAR_NO_INIT_UNSPECIFIED)


================================================================================

ttc500.lib : drv_Csm_Dma.obj

Run/Load            
Value     Binding   Name (Section)
--------  --------  ---------------
000a5f30  local     $C$L1 (.CSM_CODE:Csm_Dma_configMPU)
000a6200  local     $C$L10 (.CSM_CODE:Csm_Dma_ClearIrqFlag)
000a6220  local     $C$L11 (.CSM_CODE:Csm_Dma_ClearIrqFlag)
000a6240  local     $C$L12 (.CSM_CODE:Csm_Dma_ClearIrqFlag)
000a6260  local     $C$L13 (.CSM_CODE:Csm_Dma_ClearIrqFlag)
000a6280  local     $C$L14 (.CSM_CODE:Csm_Dma_ClearIrqFlag)
000a62a0  local     $C$L15 (.CSM_CODE:Csm_Dma_ClearIrqFlag)
000a62bc  local     $C$L16 (.CSM_CODE:Csm_Dma_ClearIrqFlag)
000a6300  local     $C$L17 (.CSM_CODE:Csm_Dma_ClearMpcFaultBit)
000a6310  local     $C$L18 (.CSM_CODE:Csm_Dma_ClearMpcFaultBit)
000a631c  local     $C$L19 (.CSM_CODE:Csm_Dma_ClearMpcFaultBit)
000a6bd0  local     $C$L2 (.CSM_CODE:Csm_Dma_TestRamParity)
000a6328  local     $C$L20 (.CSM_CODE:Csm_Dma_ClearMpcFaultBit)
000a6334  local     $C$L21 (.CSM_CODE:Csm_Dma_ClearMpcFaultBit)
000a6350  local     $C$L22 (.CSM_CODE:Csm_Dma_clearAllMpcFaultBits)
000a6410  local     $C$L23 (.CSM_CODE:Csm_Dma_GetIrqFlag)
000a6430  local     $C$L24 (.CSM_CODE:Csm_Dma_GetIrqFlag)
000a6450  local     $C$L25 (.CSM_CODE:Csm_Dma_GetIrqFlag)
000a6470  local     $C$L26 (.CSM_CODE:Csm_Dma_GetIrqFlag)
000a6484  local     $C$L27 (.CSM_CODE:Csm_Dma_GetIrqFlag)
000a6490  local     $C$L28 (.CSM_CODE:Csm_Dma_GetIrqFlag)
000a64b0  local     $C$L29 (.CSM_CODE:Csm_Dma_GetIrqFlag)
000a6bdc  local     $C$L3 (.CSM_CODE:Csm_Dma_TestRamParity)
000a64c0  local     $C$L30 (.CSM_CODE:Csm_Dma_GetIrqFlag)
000a65b4  local     $C$L31 (.CSM_CODE:Csm_Dma_GoodMpuTest_TestRoutine)
000a65b8  local     $C$L32 (.CSM_CODE:Csm_Dma_GoodMpuTest_TestRoutine)
000a65dc  local     $C$L33 (.CSM_CODE:Csm_Dma_goodMpuTest)
000a6634  local     $C$L34 (.CSM_CODE:Csm_Dma_CheckForAccessViolation)
000a6648  local     $C$L35 (.CSM_CODE:Csm_Dma_CheckForAccessViolation)
000a665c  local     $C$L36 (.CSM_CODE:Csm_Dma_CheckForAccessViolation)
000a6670  local     $C$L37 (.CSM_CODE:Csm_Dma_CheckForAccessViolation)
000a6754  local     $C$L38 (.CSM_CODE:Csm_Dma_BadMpuTest_TestRoutine)
000a6770  local     $C$L39 (.CSM_CODE:Csm_Dma_BadMpuTest_TestRoutine)
000a6bec  local     $C$L4 (.CSM_CODE:Csm_Dma_TestRamParity)
000a677c  local     $C$L40 (.CSM_CODE:Csm_Dma_BadMpuTest_TestRoutine)
000a6788  local     $C$L41 (.CSM_CODE:Csm_Dma_BadMpuTest_TestRoutine)
000a67b0  local     $C$L42 (.CSM_CODE:Csm_Dma_badMpuTest)
000a6a40  local     $C$L43 (.CSM_CODE:Csm_Dma_ClearAllInterrupts)
000a6a64  local     $C$L44 (.CSM_CODE:Csm_Dma_ClearAllInterrupts)
000a6b20  local     $C$L45 (.CSM_CODE:Csm_Dma_TestMPU)
000a6b24  local     $C$L46 (.CSM_CODE:Csm_Dma_TestMPU)
000a6f5c  local     $C$L47 (.CSM_CODE:Csm_Dma_TestImpreciseRead)
000a6fac  local     $C$L48 (.CSM_CODE:Csm_Dma_TestImpreciseRead)
000a6fb0  local     $C$L49 (.CSM_CODE:Csm_Dma_TestImpreciseRead)
000a5cb4  local     $C$L5 (.CSM_CODE:Csm_Dma_ConfigInterrupts)
000ad5e4  local     $C$L50 (.CSM_CODE:Csm_Dma_ReadBackInterruptsCfg)
000ad6c0  local     $C$L51 (.CSM_CODE:Csm_Dma_ReadBackInterruptsCfg)
000ad6c8  local     $C$L52 (.CSM_CODE:Csm_Dma_ReadBackInterruptsCfg)
000ad734  local     $C$L53 (.CSM_CODE:Csm_Dma_ReadBackCtrlPacketCfg)
000ad738  local     $C$L54 (.CSM_CODE:Csm_Dma_ReadBackCtrlPacketCfg)
000ad7ec  local     $C$L55 (.CSM_CODE:Csm_Dma_ReadBackCtrlPacketCfg)
000ad7f4  local     $C$L56 (.CSM_CODE:Csm_Dma_ReadBackCtrlPacketCfg)
000ad864  local     $C$L57 (.CSM_CODE:Csm_Dma_ReadBackCtrlPacketCfg)
000ad868  local     $C$L58 (.CSM_CODE:Csm_Dma_ReadBackCtrlPacketCfg)
000ad908  local     $C$L59 (.CSM_CODE:Csm_Dma_ReadBackMPUCfg)
000a5e30  local     $C$L6 (.CSM_CODE:Csm_Dma_configControlPacket)
000ad90c  local     $C$L60 (.CSM_CODE:Csm_Dma_ReadBackMPUCfg)
000ad9b4  local     $C$L61 (.CSM_CODE:Csm_Dma_ReadBackMPUCfg)
000ad9bc  local     $C$L62 (.CSM_CODE:Csm_Dma_ReadBackMPUCfg)
000ada20  local     $C$L63 (.CSM_CODE:Csm_Dma_ReadBackCfg)
000ada44  local     $C$L64 (.CSM_CODE:Csm_Dma_ReadBackCfg)
000ada74  local     $C$L65 (.CSM_CODE:Csm_Dma_ReadBackCfg)
000ada7c  local     $C$L66 (.CSM_CODE:Csm_Dma_ReadBackCfg)
000a5f60  local     $C$L67 (.CSM_CODE:Csm_Dma_Configure)
000a5f84  local     $C$L68 (.CSM_CODE:Csm_Dma_Configure)
000a5f8c  local     $C$L69 (.CSM_CODE:Csm_Dma_Configure)
000a617c  local     $C$L7 (.CSM_CODE:Csm_Dma_changeConfigControlPacketMPU)
000a6010  local     $C$L70 (.CSM_CODE:Csm_Dma_Init)
000a6058  local     $C$L71 (.CSM_CODE:Csm_Dma_Init)
00000044  local     $C$L72 (.CSM_CODE:Csm_Dma_GetParityError)
000a6ca0  local     $C$L73 (.CSM_CODE:Csm_Dma_BasicFuncTest_Intern)
000a6cf0  local     $C$L74 (.CSM_CODE:Csm_Dma_BasicFuncTest_Intern)
000a6d08  local     $C$L75 (.CSM_CODE:Csm_Dma_BasicFuncTest_Intern)
000a6d14  local     $C$L76 (.CSM_CODE:Csm_Dma_BasicFuncTest_Intern)
000a6d20  local     $C$L77 (.CSM_CODE:Csm_Dma_BasicFuncTest_Intern)
000a6d24  local     $C$L78 (.CSM_CODE:Csm_Dma_BasicFuncTest_Intern)
000a6d58  local     $C$L79 (.CSM_CODE:Csm_Dma_BasicFuncTest_Intern)
000a6180  local     $C$L8 (.CSM_CODE:Csm_Dma_changeConfigControlPacketMPU)
000a6d64  local     $C$L80 (.CSM_CODE:Csm_Dma_BasicFuncTest_Intern)
000a6e80  local     $C$L81 (.CSM_CODE:Csm_Dma_BasicFunctionalityTest)
000a6ea8  local     $C$L82 (.CSM_CODE:Csm_Dma_BasicFunctionalityTest)
000a6eac  local     $C$L83 (.CSM_CODE:Csm_Dma_BasicFunctionalityTest)
000a6eb0  local     $C$L84 (.CSM_CODE:Csm_Dma_BasicFunctionalityTest)
000a6eb4  local     $C$L85 (.CSM_CODE:Csm_Dma_BasicFunctionalityTest)
000a6194  local     $C$L9 (.CSM_CODE:Csm_Dma_changeConfigControlPacketMPU)
000a6eb8  local     $C$LL1 (.CSM_CODE:Csm_Dma_BasicFunctionalityTest)
000a5e40  local     $a (.CSM_CODE:Csm_Dma_configMPU)
000a6380  local     $a (.CSM_CODE:Csm_Dma_TriggerDMA)
000a6b30  local     $a (.CSM_CODE:Csm_Dma_TestRamParity)
000a6060  local     $a (.CSM_CODE:Csm_Dma_TestMPU_initControlPacket0)
000a60c0  local     $a (.CSM_CODE:Csm_Dma_TestMPU_initMPconfig)
000a5c60  local     $a (.CSM_CODE:Csm_Dma_ConfigInterrupts)
000a5d00  local     $a (.CSM_CODE:Csm_Dma_configControlPacket)
000a6140  local     $a (.CSM_CODE:Csm_Dma_changeConfigControlPacketMPU)
000a61b0  local     $a (.CSM_CODE:Csm_Dma_ClearIrqFlag)
000a62c0  local     $a (.CSM_CODE:Csm_Dma_ClearMpcFaultBit)
000a6340  local     $a (.CSM_CODE:Csm_Dma_clearAllMpcFaultBits)
000a63b0  local     $a (.CSM_CODE:Csm_Dma_GetIrqFlag)
000a64d0  local     $a (.CSM_CODE:Csm_Dma_GetMpcFaultBits)
000a64e0  local     $a (.CSM_CODE:Csm_Dma_GoodMpuTest_CheckResults)
000a6520  local     $a (.CSM_CODE:Csm_Dma_GoodMpuTest_TestRoutine)
000a65c0  local     $a (.CSM_CODE:Csm_Dma_goodMpuTest)
000a65f0  local     $a (.CSM_CODE:Csm_Dma_CheckForAccessViolation)
000a6680  local     $a (.CSM_CODE:Csm_Dma_BadMpuTest_CheckResults)
000a66c0  local     $a (.CSM_CODE:Csm_Dma_BadMpuTest_TestRoutine)
000a6790  local     $a (.CSM_CODE:Csm_Dma_badMpuTest)
000a67c0  local     $a (.CSM_CODE:Csm_Dma_MPUtest6)
000a6800  local     $a (.CSM_CODE:Csm_Dma_MPUtest5)
000a6850  local     $a (.CSM_CODE:Csm_Dma_MPUtest4)
000a68a0  local     $a (.CSM_CODE:Csm_Dma_MPUtest3)
000a68f0  local     $a (.CSM_CODE:Csm_Dma_MPUtest2)
000a6940  local     $a (.CSM_CODE:Csm_Dma_MPUtest1)
000a6970  local     $a (.CSM_CODE:Csm_Dma_MPUstartTestChain)
000a69c0  local     $a (.CSM_CODE:Csm_Dma_ClearAllInterrupts)
000a6a70  local     $a (.CSM_CODE:Csm_Dma_restoreBeforeTestMPU)
000a6ab0  local     $a (.CSM_CODE:Csm_Dma_TestMPU)
000a6c00  local     $a (.CSM_CODE:Csm_Dma_SetupTransfer)
000a6ec0  local     $a (.CSM_CODE:Csm_Dma_TestImpreciseRead)
000ad540  local     $a (.CSM_CODE:Csm_Dma_ReadBackInterruptsCfg)
000ad6d0  local     $a (.CSM_CODE:Csm_Dma_ReadBackCtrlPacketCfg)
000ad870  local     $a (.CSM_CODE:Csm_Dma_ReadBackMPUCfg)
000ad9c0  local     $a (.CSM_CODE:Csm_Dma_ReadBackCfg)
000af2c0  local     $a (.CSM_CODE:Csm_Dma_PortBActiveChannelInfo)
000a5f40  local     $a (.CSM_CODE:Csm_Dma_Configure)
000a5fd0  local     $a (.CSM_CODE:Csm_Dma_Init)
00000000  local     $a (.CSM_CODE:Csm_Dma_GetWorkingCtrlPacket)
00000000  local     $a (.CSM_CODE:Csm_Dma_GetVersionInfo)
00000000  local     $a (.CSM_CODE:Csm_Dma_GetParityError)
000af290  local     $a (.CSM_CODE:Csm_Dma_GetDmaStatAndChanPend)
000a72a0  local     $a (.CSM_CODE:Csm_Dma_EnableHardwareTrigger)
000aebd0  local     $a (.CSM_CODE:Csm_Dma_DisableHardwareTrigger)
000a6c30  local     $a (.CSM_CODE:Csm_Dma_BasicFuncTest_Intern)
000a6db0  local     $a (.CSM_CODE:Csm_Dma_BasicFunctionalityTest)
000a6eb8  local     $d (.CSM_CODE:Csm_Dma_BasicFunctionalityTest)
000a6680  local     .CSM_CODE:Csm_Dma_BadMpuTest_CheckResults (.CSM_CODE:Csm_Dma_BadMpuTest_CheckResults)
000a66c0  local     .CSM_CODE:Csm_Dma_BadMpuTest_TestRoutine (.CSM_CODE:Csm_Dma_BadMpuTest_TestRoutine)
000a6c30  local     .CSM_CODE:Csm_Dma_BasicFuncTest_Intern (.CSM_CODE:Csm_Dma_BasicFuncTest_Intern)
000a6db0  local     .CSM_CODE:Csm_Dma_BasicFunctionalityTest (.CSM_CODE:Csm_Dma_BasicFunctionalityTest)
000a65f0  local     .CSM_CODE:Csm_Dma_CheckForAccessViolation (.CSM_CODE:Csm_Dma_CheckForAccessViolation)
000a69c0  local     .CSM_CODE:Csm_Dma_ClearAllInterrupts (.CSM_CODE:Csm_Dma_ClearAllInterrupts)
000a61b0  local     .CSM_CODE:Csm_Dma_ClearIrqFlag (.CSM_CODE:Csm_Dma_ClearIrqFlag)
000a62c0  local     .CSM_CODE:Csm_Dma_ClearMpcFaultBit (.CSM_CODE:Csm_Dma_ClearMpcFaultBit)
000a5c60  local     .CSM_CODE:Csm_Dma_ConfigInterrupts (.CSM_CODE:Csm_Dma_ConfigInterrupts)
000a5f40  local     .CSM_CODE:Csm_Dma_Configure (.CSM_CODE:Csm_Dma_Configure)
000aebd0  local     .CSM_CODE:Csm_Dma_DisableHardwareTrigger (.CSM_CODE:Csm_Dma_DisableHardwareTrigger)
000a72a0  local     .CSM_CODE:Csm_Dma_EnableHardwareTrigger (.CSM_CODE:Csm_Dma_EnableHardwareTrigger)
000af290  local     .CSM_CODE:Csm_Dma_GetDmaStatAndChanPend (.CSM_CODE:Csm_Dma_GetDmaStatAndChanPend)
000a63b0  local     .CSM_CODE:Csm_Dma_GetIrqFlag (.CSM_CODE:Csm_Dma_GetIrqFlag)
000a64d0  local     .CSM_CODE:Csm_Dma_GetMpcFaultBits (.CSM_CODE:Csm_Dma_GetMpcFaultBits)
00000000  local     .CSM_CODE:Csm_Dma_GetParityError (.CSM_CODE:Csm_Dma_GetParityError)
00000000  local     .CSM_CODE:Csm_Dma_GetVersionInfo (.CSM_CODE:Csm_Dma_GetVersionInfo)
00000000  local     .CSM_CODE:Csm_Dma_GetWorkingCtrlPacket (.CSM_CODE:Csm_Dma_GetWorkingCtrlPacket)
000a64e0  local     .CSM_CODE:Csm_Dma_GoodMpuTest_CheckResults (.CSM_CODE:Csm_Dma_GoodMpuTest_CheckResults)
000a6520  local     .CSM_CODE:Csm_Dma_GoodMpuTest_TestRoutine (.CSM_CODE:Csm_Dma_GoodMpuTest_TestRoutine)
000a5fd0  local     .CSM_CODE:Csm_Dma_Init (.CSM_CODE:Csm_Dma_Init)
000a6970  local     .CSM_CODE:Csm_Dma_MPUstartTestChain (.CSM_CODE:Csm_Dma_MPUstartTestChain)
000a6940  local     .CSM_CODE:Csm_Dma_MPUtest1 (.CSM_CODE:Csm_Dma_MPUtest1)
000a68f0  local     .CSM_CODE:Csm_Dma_MPUtest2 (.CSM_CODE:Csm_Dma_MPUtest2)
000a68a0  local     .CSM_CODE:Csm_Dma_MPUtest3 (.CSM_CODE:Csm_Dma_MPUtest3)
000a6850  local     .CSM_CODE:Csm_Dma_MPUtest4 (.CSM_CODE:Csm_Dma_MPUtest4)
000a6800  local     .CSM_CODE:Csm_Dma_MPUtest5 (.CSM_CODE:Csm_Dma_MPUtest5)
000a67c0  local     .CSM_CODE:Csm_Dma_MPUtest6 (.CSM_CODE:Csm_Dma_MPUtest6)
000af2c0  local     .CSM_CODE:Csm_Dma_PortBActiveChannelInfo (.CSM_CODE:Csm_Dma_PortBActiveChannelInfo)
000ad9c0  local     .CSM_CODE:Csm_Dma_ReadBackCfg (.CSM_CODE:Csm_Dma_ReadBackCfg)
000ad6d0  local     .CSM_CODE:Csm_Dma_ReadBackCtrlPacketCfg (.CSM_CODE:Csm_Dma_ReadBackCtrlPacketCfg)
000ad540  local     .CSM_CODE:Csm_Dma_ReadBackInterruptsCfg (.CSM_CODE:Csm_Dma_ReadBackInterruptsCfg)
000ad870  local     .CSM_CODE:Csm_Dma_ReadBackMPUCfg (.CSM_CODE:Csm_Dma_ReadBackMPUCfg)
000a6c00  local     .CSM_CODE:Csm_Dma_SetupTransfer (.CSM_CODE:Csm_Dma_SetupTransfer)
000a6ec0  local     .CSM_CODE:Csm_Dma_TestImpreciseRead (.CSM_CODE:Csm_Dma_TestImpreciseRead)
000a6ab0  local     .CSM_CODE:Csm_Dma_TestMPU (.CSM_CODE:Csm_Dma_TestMPU)
000a6060  local     .CSM_CODE:Csm_Dma_TestMPU_initControlPacket0 (.CSM_CODE:Csm_Dma_TestMPU_initControlPacket0)
000a60c0  local     .CSM_CODE:Csm_Dma_TestMPU_initMPconfig (.CSM_CODE:Csm_Dma_TestMPU_initMPconfig)
000a6b30  local     .CSM_CODE:Csm_Dma_TestRamParity (.CSM_CODE:Csm_Dma_TestRamParity)
000a6380  local     .CSM_CODE:Csm_Dma_TriggerDMA (.CSM_CODE:Csm_Dma_TriggerDMA)
000a6790  local     .CSM_CODE:Csm_Dma_badMpuTest (.CSM_CODE:Csm_Dma_badMpuTest)
000a6140  local     .CSM_CODE:Csm_Dma_changeConfigControlPacketMPU (.CSM_CODE:Csm_Dma_changeConfigControlPacketMPU)
000a6340  local     .CSM_CODE:Csm_Dma_clearAllMpcFaultBits (.CSM_CODE:Csm_Dma_clearAllMpcFaultBits)
000a5d00  local     .CSM_CODE:Csm_Dma_configControlPacket (.CSM_CODE:Csm_Dma_configControlPacket)
000a5e40  local     .CSM_CODE:Csm_Dma_configMPU (.CSM_CODE:Csm_Dma_configMPU)
000a65c0  local     .CSM_CODE:Csm_Dma_goodMpuTest (.CSM_CODE:Csm_Dma_goodMpuTest)
000a6a70  local     .CSM_CODE:Csm_Dma_restoreBeforeTestMPU (.CSM_CODE:Csm_Dma_restoreBeforeTestMPU)
08038088  local     .CSM_VAR_ZERO_INIT_UNSPECIFIED (.CSM_VAR_ZERO_INIT_UNSPECIFIED)
00000000  local     .text (.text)
000a6680  local     Csm_Dma_BadMpuTest_CheckResults (.CSM_CODE:Csm_Dma_BadMpuTest_CheckResults)
000a66c0  local     Csm_Dma_BadMpuTest_TestRoutine (.CSM_CODE:Csm_Dma_BadMpuTest_TestRoutine)
000a6c30  local     Csm_Dma_BasicFuncTest_Intern (.CSM_CODE:Csm_Dma_BasicFuncTest_Intern)
000a6db0  global    Csm_Dma_BasicFunctionalityTest (.CSM_CODE:Csm_Dma_BasicFunctionalityTest)
000a65f0  local     Csm_Dma_CheckForAccessViolation (.CSM_CODE:Csm_Dma_CheckForAccessViolation)
000a69c0  local     Csm_Dma_ClearAllInterrupts (.CSM_CODE:Csm_Dma_ClearAllInterrupts)
000a61b0  global    Csm_Dma_ClearIrqFlag (.CSM_CODE:Csm_Dma_ClearIrqFlag)
000a62c0  global    Csm_Dma_ClearMpcFaultBit (.CSM_CODE:Csm_Dma_ClearMpcFaultBit)
000a5c60  global    Csm_Dma_ConfigInterrupts (.CSM_CODE:Csm_Dma_ConfigInterrupts)
08038088  local     Csm_Dma_ConfigType_pt (.CSM_VAR_ZERO_INIT_UNSPECIFIED)
000a5f40  local     Csm_Dma_Configure (.CSM_CODE:Csm_Dma_Configure)
000aebd0  global    Csm_Dma_DisableHardwareTrigger (.CSM_CODE:Csm_Dma_DisableHardwareTrigger)
000a72a0  global    Csm_Dma_EnableHardwareTrigger (.CSM_CODE:Csm_Dma_EnableHardwareTrigger)
000af290  global    Csm_Dma_GetDmaStatAndChanPend (.CSM_CODE:Csm_Dma_GetDmaStatAndChanPend)
000a63b0  global    Csm_Dma_GetIrqFlag (.CSM_CODE:Csm_Dma_GetIrqFlag)
000a64d0  global    Csm_Dma_GetMpcFaultBits (.CSM_CODE:Csm_Dma_GetMpcFaultBits)
00000000  global    Csm_Dma_GetParityError (.CSM_CODE:Csm_Dma_GetParityError)
00000000  global    Csm_Dma_GetVersionInfo (.CSM_CODE:Csm_Dma_GetVersionInfo)
00000000  global    Csm_Dma_GetWorkingCtrlPacket (.CSM_CODE:Csm_Dma_GetWorkingCtrlPacket)
000a64e0  local     Csm_Dma_GoodMpuTest_CheckResults (.CSM_CODE:Csm_Dma_GoodMpuTest_CheckResults)
000a6520  local     Csm_Dma_GoodMpuTest_TestRoutine (.CSM_CODE:Csm_Dma_GoodMpuTest_TestRoutine)
000a5fd0  global    Csm_Dma_Init (.CSM_CODE:Csm_Dma_Init)
000a6970  local     Csm_Dma_MPUstartTestChain (.CSM_CODE:Csm_Dma_MPUstartTestChain)
000a6940  local     Csm_Dma_MPUtest1 (.CSM_CODE:Csm_Dma_MPUtest1)
000a68f0  local     Csm_Dma_MPUtest2 (.CSM_CODE:Csm_Dma_MPUtest2)
000a68a0  local     Csm_Dma_MPUtest3 (.CSM_CODE:Csm_Dma_MPUtest3)
000a6850  local     Csm_Dma_MPUtest4 (.CSM_CODE:Csm_Dma_MPUtest4)
000a6800  local     Csm_Dma_MPUtest5 (.CSM_CODE:Csm_Dma_MPUtest5)
000a67c0  local     Csm_Dma_MPUtest6 (.CSM_CODE:Csm_Dma_MPUtest6)
000af2c0  global    Csm_Dma_PortBActiveChannelInfo (.CSM_CODE:Csm_Dma_PortBActiveChannelInfo)
000ad9c0  global    Csm_Dma_ReadBackCfg (.CSM_CODE:Csm_Dma_ReadBackCfg)
000ad6d0  local     Csm_Dma_ReadBackCtrlPacketCfg (.CSM_CODE:Csm_Dma_ReadBackCtrlPacketCfg)
000ad540  local     Csm_Dma_ReadBackInterruptsCfg (.CSM_CODE:Csm_Dma_ReadBackInterruptsCfg)
000ad870  local     Csm_Dma_ReadBackMPUCfg (.CSM_CODE:Csm_Dma_ReadBackMPUCfg)
000a6c00  global    Csm_Dma_SetupTransfer (.CSM_CODE:Csm_Dma_SetupTransfer)
000a6ec0  global    Csm_Dma_TestImpreciseRead (.CSM_CODE:Csm_Dma_TestImpreciseRead)
000a6ab0  global    Csm_Dma_TestMPU (.CSM_CODE:Csm_Dma_TestMPU)
000a6060  local     Csm_Dma_TestMPU_initControlPacket0 (.CSM_CODE:Csm_Dma_TestMPU_initControlPacket0)
000a60c0  local     Csm_Dma_TestMPU_initMPconfig (.CSM_CODE:Csm_Dma_TestMPU_initMPconfig)
000a6b30  global    Csm_Dma_TestRamParity (.CSM_CODE:Csm_Dma_TestRamParity)
000a6380  global    Csm_Dma_TriggerDMA (.CSM_CODE:Csm_Dma_TriggerDMA)
000a6790  local     Csm_Dma_badMpuTest (.CSM_CODE:Csm_Dma_badMpuTest)
000a6140  local     Csm_Dma_changeConfigControlPacketMPU (.CSM_CODE:Csm_Dma_changeConfigControlPacketMPU)
000a6340  local     Csm_Dma_clearAllMpcFaultBits (.CSM_CODE:Csm_Dma_clearAllMpcFaultBits)
000a5d00  local     Csm_Dma_configControlPacket (.CSM_CODE:Csm_Dma_configControlPacket)
000a5e40  global    Csm_Dma_configMPU (.CSM_CODE:Csm_Dma_configMPU)
000a65c0  local     Csm_Dma_goodMpuTest (.CSM_CODE:Csm_Dma_goodMpuTest)
000a6a70  local     Csm_Dma_restoreBeforeTestMPU (.CSM_CODE:Csm_Dma_restoreBeforeTestMPU)
0803808c  local     Csm_Dma_testMPU_field_A_u32 (.CSM_VAR_ZERO_INIT_UNSPECIFIED)
08038090  local     Csm_Dma_testMPU_field_B_u32 (.CSM_VAR_ZERO_INIT_UNSPECIFIED)


================================================================================

ttc500.lib : drv_Csm_Nhet.obj

Run/Load            
Value     Binding   Name (Section)
--------  --------  ---------------
000a75b0  local     $C$L1 (.CSM_CODE:Csm_Nhet_TestRamParityNHET)
000a7794  local     $C$L10 (.CSM_CODE:Csm_Nhet_TestRamParityHTU)
000a77a0  local     $C$L11 (.CSM_CODE:Csm_Nhet_TestRamParityHTU)
00000100  local     $C$L12 (.CSM_CODE:Csm_Nhet_SwitchBuffer)
00000108  local     $C$L13 (.CSM_CODE:Csm_Nhet_SwitchBuffer)
00000114  local     $C$L14 (.CSM_CODE:Csm_Nhet_SwitchBuffer)
0000018c  local     $C$L15 (.CSM_CODE:Csm_Nhet_SwitchBuffer)
00000194  local     $C$L16 (.CSM_CODE:Csm_Nhet_SwitchBuffer)
0000019c  local     $C$L17 (.CSM_CODE:Csm_Nhet_SwitchBuffer)
000001d0  local     $C$L18 (.CSM_CODE:Csm_Nhet_SwitchBuffer)
000001e0  local     $C$L19 (.CSM_CODE:Csm_Nhet_SwitchBuffer)
000a75e0  local     $C$L2 (.CSM_CODE:Csm_Nhet_TestRamParityNHET)
00000030  local     $C$L20 (.CSM_CODE:Csm_Nhet_Stop)
00000058  local     $C$L21 (.CSM_CODE:Csm_Nhet_Stop)
000a9ea0  local     $C$L22 (.CSM_CODE:Csm_Nhet_Start)
000a9ec8  local     $C$L23 (.CSM_CODE:Csm_Nhet_Start)
000a7b40  local     $C$L24 (.CSM_CODE:Csm_Nhet_SetPinDirection)
000a7b7c  local     $C$L25 (.CSM_CODE:Csm_Nhet_SetPinDirection)
000a7b80  local     $C$L26 (.CSM_CODE:Csm_Nhet_SetPinDirection)
000a1270  local     $C$L27 (.CSM_CODE:Csm_Access_NHETram)
000a1290  local     $C$L28 (.CSM_CODE:Csm_Access_NHETram)
000a12b0  local     $C$L29 (.CSM_CODE:Csm_Access_NHETram)
000a75f0  local     $C$L3 (.CSM_CODE:Csm_Nhet_TestRamParityNHET)
000a12d0  local     $C$L30 (.CSM_CODE:Csm_Access_NHETram)
000a12f0  local     $C$L31 (.CSM_CODE:Csm_Access_NHETram)
000a1310  local     $C$L32 (.CSM_CODE:Csm_Access_NHETram)
000a1340  local     $C$L33 (.CSM_CODE:Csm_Access_NHETram)
000a1364  local     $C$L34 (.CSM_CODE:Csm_Access_NHETram)
000a1368  local     $C$L35 (.CSM_CODE:Csm_Access_NHETram)
00000074  local     $C$L36 (.CSM_CODE:Csm_Nhet_RemovePrg)
000aebc4  local     $C$L37 (.CSM_CODE:Csm_Nhet_ReadOffsetIndexLevel2)
000ae994  local     $C$L38 (.CSM_CODE:Csm_Nhet_ReadOffsetIndexLevel1)
000acab0  local     $C$L39 (.CSM_CODE:Csm_Nhet_ReadBackCfgNHET)
000a767c  local     $C$L4 (.CSM_CODE:Csm_Nhet_TestRamParityNHET)
000acaec  local     $C$L40 (.CSM_CODE:Csm_Nhet_ReadBackCfgNHET)
000acb9c  local     $C$L41 (.CSM_CODE:Csm_Nhet_ReadBackCfgNHET)
000acba0  local     $C$L42 (.CSM_CODE:Csm_Nhet_ReadBackCfgNHET)
000acc1c  local     $C$L43 (.CSM_CODE:Csm_Nhet_ReadBackCfgNHET)
000acc20  local     $C$L44 (.CSM_CODE:Csm_Nhet_ReadBackCfgNHET)
000acc24  local     $C$L45 (.CSM_CODE:Csm_Nhet_ReadBackCfgNHET)
000acc4c  local     $C$L46 (.CSM_CODE:Csm_Nhet_ReadBackCfgNHET)
000acc80  local     $C$L47 (.CSM_CODE:Csm_Nhet_ReadBackCfgNHET)
000acc8c  local     $C$L48 (.CSM_CODE:Csm_Nhet_ReadBackCfgNHET)
000acc90  local     $C$L49 (.CSM_CODE:Csm_Nhet_ReadBackCfgNHET)
000a7688  local     $C$L5 (.CSM_CODE:Csm_Nhet_TestRamParityNHET)
000accf0  local     $C$L50 (.CSM_CODE:Csm_Nhet_ReadBackCfgHTU)
000acd20  local     $C$L51 (.CSM_CODE:Csm_Nhet_ReadBackCfgHTU)
000ace14  local     $C$L52 (.CSM_CODE:Csm_Nhet_ReadBackCfgHTU)
000ace18  local     $C$L53 (.CSM_CODE:Csm_Nhet_ReadBackCfgHTU)
000ace1c  local     $C$L54 (.CSM_CODE:Csm_Nhet_ReadBackCfgHTU)
000a7300  local     $C$L55 (.CSM_CODE:Csm_Nhet_Init_TestRam)
000a7318  local     $C$L56 (.CSM_CODE:Csm_Nhet_Init_TestRam)
000a73b0  local     $C$L57 (.CSM_CODE:Csm_Nhet_Init)
000a7424  local     $C$L58 (.CSM_CODE:Csm_Nhet_Init)
000a7438  local     $C$L59 (.CSM_CODE:Csm_Nhet_Init)
000a768c  local     $C$L6 (.CSM_CODE:Csm_Nhet_TestRamParityNHET)
000a7534  local     $C$L60 (.CSM_CODE:Csm_Nhet_Init)
000a753c  local     $C$L61 (.CSM_CODE:Csm_Nhet_Init)
000a7540  local     $C$L62 (.CSM_CODE:Csm_Nhet_Init)
000a7558  local     $C$L63 (.CSM_CODE:Csm_Nhet_Init)
000a7cd0  local     $C$L64 (.CSM_CODE:Csm_Nhet_HTUSetup)
00000058  local     $C$L65 (.CSM_CODE:Csm_Nhet_GetParityErrorHTU)
000a7d70  local     $C$L66 (.CSM_CODE:Csm_Nhet_AppendPrg)
000a7de0  local     $C$L67 (.CSM_CODE:Csm_Nhet_AppendPrg)
000a7dfc  local     $C$L68 (.CSM_CODE:Csm_Nhet_AppendPrg)
000a7e04  local     $C$L69 (.CSM_CODE:Csm_Nhet_AppendPrg)
000a76f0  local     $C$L7 (.CSM_CODE:Csm_Nhet_TestRamParityHTU)
000a7e60  local     $C$L70 (.CSM_CODE:Csm_Nhet_AppendPrg)
000a7e68  local     $C$L71 (.CSM_CODE:Csm_Nhet_AppendPrg)
000a7718  local     $C$L8 (.CSM_CODE:Csm_Nhet_TestRamParityHTU)
000a7720  local     $C$L9 (.CSM_CODE:Csm_Nhet_TestRamParityHTU)
00000000  local     $a (.CSM_CODE:Csm_Nhet_status)
000a7560  local     $a (.CSM_CODE:Csm_Nhet_TestRamParityNHET)
000a76a0  local     $a (.CSM_CODE:Csm_Nhet_TestRamParityHTU)
00000000  local     $a (.CSM_CODE:Csm_Nhet_GetBusyFlags)
00000000  local     $a (.CSM_CODE:Csm_Nhet_GetRegBFINTFL)
00000000  local     $a (.CSM_CODE:Csm_Nhet_SwitchBuffer)
00000000  local     $a (.CSM_CODE:Csm_Nhet_Stop)
000a9e70  local     $a (.CSM_CODE:Csm_Nhet_Start)
000a8660  local     $a (.CSM_CODE:Csm_Nhet_SetPinLevel)
000a7ae0  local     $a (.CSM_CODE:Csm_Nhet_SetPinDirection)
000ae9a0  local     $a (.CSM_CODE:Csm_Nhet_ReturnLRP)
000a1230  local     $a (.CSM_CODE:Csm_Access_NHETram)
00000000  local     $a (.CSM_CODE:Csm_Nhet_RemovePrg)
000aeb90  local     $a (.CSM_CODE:Csm_Nhet_ReadOffsetIndexLevel2)
000ae960  local     $a (.CSM_CODE:Csm_Nhet_ReadOffsetIndexLevel1)
00000000  local     $a (.CSM_CODE:Csm_Nhet_ReadHtuIntOffReg1)
00000000  local     $a (.CSM_CODE:Csm_Nhet_ReadHtuIntOffReg0)
000a7330  local     $a (.CSM_CODE:Csm_Nhet_GetConfigVal_regPFR)
000a7350  local     $a (.CSM_CODE:Csm_Nhet_GetConfigVal_regHETSFPRLD)
000aca70  local     $a (.CSM_CODE:Csm_Nhet_ReadBackCfgNHET)
000acca0  local     $a (.CSM_CODE:Csm_Nhet_ReadBackCfgHTU)
000a72d0  local     $a (.CSM_CODE:Csm_Nhet_Init_TestRam)
000a7370  local     $a (.CSM_CODE:Csm_Nhet_Init)
000a7bb0  local     $a (.CSM_CODE:Csm_Nhet_HTUSetup)
00000000  local     $a (.CSM_CODE:Csm_Nhet_GetVersionInfo)
00000000  local     $a (.CSM_CODE:Csm_Nhet_GetPinLevel)
00000000  local     $a (.CSM_CODE:Csm_Nhet_GetParityErrorNHET)
00000000  local     $a (.CSM_CODE:Csm_Nhet_GetParityErrorHTU)
000a7b90  local     $a (.CSM_CODE:Csm_Nhet_GetInstrPos)
00000000  local     $a (.CSM_CODE:Csm_Nhet_GetData)
000a9e30  local     $a (.CSM_CODE:Csm_Nhet_EnableHTU)
000a7ce0  local     $a (.CSM_CODE:Csm_Nhet_AppendPrg)
000afd38  local     $d (.CSM_CONST)
000afd60  local     $d (.CSM_CONST)
000afd6c  local     $d (.CSM_CONST)
000a1230  local     .CSM_CODE:Csm_Access_NHETram (.CSM_CODE:Csm_Access_NHETram)
000a7ce0  local     .CSM_CODE:Csm_Nhet_AppendPrg (.CSM_CODE:Csm_Nhet_AppendPrg)
000a9e30  local     .CSM_CODE:Csm_Nhet_EnableHTU (.CSM_CODE:Csm_Nhet_EnableHTU)
00000000  local     .CSM_CODE:Csm_Nhet_GetBusyFlags (.CSM_CODE:Csm_Nhet_GetBusyFlags)
000a7350  local     .CSM_CODE:Csm_Nhet_GetConfigVal_regHETSFPRLD (.CSM_CODE:Csm_Nhet_GetConfigVal_regHETSFPRLD)
000a7330  local     .CSM_CODE:Csm_Nhet_GetConfigVal_regPFR (.CSM_CODE:Csm_Nhet_GetConfigVal_regPFR)
00000000  local     .CSM_CODE:Csm_Nhet_GetData (.CSM_CODE:Csm_Nhet_GetData)
000a7b90  local     .CSM_CODE:Csm_Nhet_GetInstrPos (.CSM_CODE:Csm_Nhet_GetInstrPos)
00000000  local     .CSM_CODE:Csm_Nhet_GetParityErrorHTU (.CSM_CODE:Csm_Nhet_GetParityErrorHTU)
00000000  local     .CSM_CODE:Csm_Nhet_GetParityErrorNHET (.CSM_CODE:Csm_Nhet_GetParityErrorNHET)
00000000  local     .CSM_CODE:Csm_Nhet_GetPinLevel (.CSM_CODE:Csm_Nhet_GetPinLevel)
00000000  local     .CSM_CODE:Csm_Nhet_GetRegBFINTFL (.CSM_CODE:Csm_Nhet_GetRegBFINTFL)
00000000  local     .CSM_CODE:Csm_Nhet_GetVersionInfo (.CSM_CODE:Csm_Nhet_GetVersionInfo)
000a7bb0  local     .CSM_CODE:Csm_Nhet_HTUSetup (.CSM_CODE:Csm_Nhet_HTUSetup)
000a7370  local     .CSM_CODE:Csm_Nhet_Init (.CSM_CODE:Csm_Nhet_Init)
000a72d0  local     .CSM_CODE:Csm_Nhet_Init_TestRam (.CSM_CODE:Csm_Nhet_Init_TestRam)
000acca0  local     .CSM_CODE:Csm_Nhet_ReadBackCfgHTU (.CSM_CODE:Csm_Nhet_ReadBackCfgHTU)
000aca70  local     .CSM_CODE:Csm_Nhet_ReadBackCfgNHET (.CSM_CODE:Csm_Nhet_ReadBackCfgNHET)
00000000  local     .CSM_CODE:Csm_Nhet_ReadHtuIntOffReg0 (.CSM_CODE:Csm_Nhet_ReadHtuIntOffReg0)
00000000  local     .CSM_CODE:Csm_Nhet_ReadHtuIntOffReg1 (.CSM_CODE:Csm_Nhet_ReadHtuIntOffReg1)
000ae960  local     .CSM_CODE:Csm_Nhet_ReadOffsetIndexLevel1 (.CSM_CODE:Csm_Nhet_ReadOffsetIndexLevel1)
000aeb90  local     .CSM_CODE:Csm_Nhet_ReadOffsetIndexLevel2 (.CSM_CODE:Csm_Nhet_ReadOffsetIndexLevel2)
00000000  local     .CSM_CODE:Csm_Nhet_RemovePrg (.CSM_CODE:Csm_Nhet_RemovePrg)
000ae9a0  local     .CSM_CODE:Csm_Nhet_ReturnLRP (.CSM_CODE:Csm_Nhet_ReturnLRP)
000a7ae0  local     .CSM_CODE:Csm_Nhet_SetPinDirection (.CSM_CODE:Csm_Nhet_SetPinDirection)
000a8660  local     .CSM_CODE:Csm_Nhet_SetPinLevel (.CSM_CODE:Csm_Nhet_SetPinLevel)
000a9e70  local     .CSM_CODE:Csm_Nhet_Start (.CSM_CODE:Csm_Nhet_Start)
00000000  local     .CSM_CODE:Csm_Nhet_Stop (.CSM_CODE:Csm_Nhet_Stop)
00000000  local     .CSM_CODE:Csm_Nhet_SwitchBuffer (.CSM_CODE:Csm_Nhet_SwitchBuffer)
000a76a0  local     .CSM_CODE:Csm_Nhet_TestRamParityHTU (.CSM_CODE:Csm_Nhet_TestRamParityHTU)
000a7560  local     .CSM_CODE:Csm_Nhet_TestRamParityNHET (.CSM_CODE:Csm_Nhet_TestRamParityNHET)
00000000  local     .CSM_CODE:Csm_Nhet_status (.CSM_CODE:Csm_Nhet_status)
000afd38  local     .CSM_CONST (.CSM_CONST)
08038094  local     .CSM_VAR_ZERO_INIT_UNSPECIFIED (.CSM_VAR_ZERO_INIT_UNSPECIFIED)
00000000  local     .text (.text)
000a1230  global    Csm_Access_NHETram (.CSM_CODE:Csm_Access_NHETram)
08038098  local     Csm_NhetState (.CSM_VAR_ZERO_INIT_UNSPECIFIED)
000a7ce0  global    Csm_Nhet_AppendPrg (.CSM_CODE:Csm_Nhet_AppendPrg)
000a9e30  global    Csm_Nhet_EnableHTU (.CSM_CODE:Csm_Nhet_EnableHTU)
00000000  local     Csm_Nhet_GetBusyFlags (.CSM_CODE:Csm_Nhet_GetBusyFlags)
000a7350  local     Csm_Nhet_GetConfigVal_regHETSFPRLD (.CSM_CODE:Csm_Nhet_GetConfigVal_regHETSFPRLD)
000a7330  local     Csm_Nhet_GetConfigVal_regPFR (.CSM_CODE:Csm_Nhet_GetConfigVal_regPFR)
00000000  global    Csm_Nhet_GetData (.CSM_CODE:Csm_Nhet_GetData)
000a7b90  global    Csm_Nhet_GetInstrPos (.CSM_CODE:Csm_Nhet_GetInstrPos)
00000000  global    Csm_Nhet_GetParityErrorHTU (.CSM_CODE:Csm_Nhet_GetParityErrorHTU)
00000000  global    Csm_Nhet_GetParityErrorNHET (.CSM_CODE:Csm_Nhet_GetParityErrorNHET)
00000000  global    Csm_Nhet_GetPinLevel (.CSM_CODE:Csm_Nhet_GetPinLevel)
00000000  local     Csm_Nhet_GetRegBFINTFL (.CSM_CODE:Csm_Nhet_GetRegBFINTFL)
00000000  global    Csm_Nhet_GetVersionInfo (.CSM_CODE:Csm_Nhet_GetVersionInfo)
000a7bb0  global    Csm_Nhet_HTUSetup (.CSM_CODE:Csm_Nhet_HTUSetup)
000a7370  global    Csm_Nhet_Init (.CSM_CODE:Csm_Nhet_Init)
000a72d0  local     Csm_Nhet_Init_TestRam (.CSM_CODE:Csm_Nhet_Init_TestRam)
000acca0  global    Csm_Nhet_ReadBackCfgHTU (.CSM_CODE:Csm_Nhet_ReadBackCfgHTU)
000aca70  global    Csm_Nhet_ReadBackCfgNHET (.CSM_CODE:Csm_Nhet_ReadBackCfgNHET)
00000000  global    Csm_Nhet_ReadHtuIntOffReg0 (.CSM_CODE:Csm_Nhet_ReadHtuIntOffReg0)
00000000  global    Csm_Nhet_ReadHtuIntOffReg1 (.CSM_CODE:Csm_Nhet_ReadHtuIntOffReg1)
000ae960  global    Csm_Nhet_ReadOffsetIndexLevel1 (.CSM_CODE:Csm_Nhet_ReadOffsetIndexLevel1)
000aeb90  global    Csm_Nhet_ReadOffsetIndexLevel2 (.CSM_CODE:Csm_Nhet_ReadOffsetIndexLevel2)
00000000  global    Csm_Nhet_RemovePrg (.CSM_CODE:Csm_Nhet_RemovePrg)
000ae9a0  global    Csm_Nhet_ReturnLRP (.CSM_CODE:Csm_Nhet_ReturnLRP)
000a7ae0  global    Csm_Nhet_SetPinDirection (.CSM_CODE:Csm_Nhet_SetPinDirection)
000a8660  global    Csm_Nhet_SetPinLevel (.CSM_CODE:Csm_Nhet_SetPinLevel)
000a9e70  global    Csm_Nhet_Start (.CSM_CODE:Csm_Nhet_Start)
00000000  global    Csm_Nhet_Stop (.CSM_CODE:Csm_Nhet_Stop)
00000000  global    Csm_Nhet_SwitchBuffer (.CSM_CODE:Csm_Nhet_SwitchBuffer)
000a76a0  global    Csm_Nhet_TestRamParityHTU (.CSM_CODE:Csm_Nhet_TestRamParityHTU)
000a7560  global    Csm_Nhet_TestRamParityNHET (.CSM_CODE:Csm_Nhet_TestRamParityNHET)
000afd38  local     Csm_Nhet_base (.CSM_CONST)
08038094  local     Csm_Nhet_config (.CSM_VAR_ZERO_INIT_UNSPECIFIED)
00000000  global    Csm_Nhet_status (.CSM_CODE:Csm_Nhet_status)


================================================================================

ttc500.lib : drv_Csm_Mcu_Selftest.obj

Run/Load            
Value     Binding   Name (Section)
--------  --------  ---------------
000a3d40  local     $C$L1 (.CSM_CODE:Csm_Mcu_TestSTC)
000a3d44  local     $C$L2 (.CSM_CODE:Csm_Mcu_TestSTC)
000a3d60  local     $C$L3 (.CSM_CODE:Csm_Mcu_TestSTC)
000a3dcc  local     $C$L4 (.CSM_CODE:Csm_Mcu_CpuSelfTest)
000a3e84  local     $C$L5 (.CSM_CODE:Csm_Mcu_CpuSelfTest)
000a3e88  local     $C$L6 (.CSM_CODE:Csm_Mcu_CpuSelfTest)
000a3c40  local     $a (.CSM_CODE:Csm_Mcu_TestSTC)
000a3d70  local     $a (.CSM_CODE:Csm_Mcu_CpuSelfTest)
000a3d70  local     .CSM_CODE:Csm_Mcu_CpuSelfTest (.CSM_CODE:Csm_Mcu_CpuSelfTest)
000a3c40  local     .CSM_CODE:Csm_Mcu_TestSTC (.CSM_CODE:Csm_Mcu_TestSTC)
00000000  local     .text (.text)
000a3d70  global    Csm_Mcu_CpuSelfTest (.CSM_CODE:Csm_Mcu_CpuSelfTest)
000a3e18  global    Csm_Mcu_CpuSelfTestContinue (.CSM_CODE:Csm_Mcu_CpuSelfTest)
000a3c40  global    Csm_Mcu_TestSTC (.CSM_CODE:Csm_Mcu_TestSTC)
000a3cd4  global    Csm_Mcu_TestSTCContinue (.CSM_CODE:Csm_Mcu_TestSTC)


================================================================================

ttc500.lib : drv_Csm_Spi.obj

Run/Load            
Value     Binding   Name (Section)
--------  --------  ---------------
00000030  local     $C$L1 (.CSM_CODE:Csm_Spi_InternWaiting)
00000030  local     $C$L10 (.CSM_CODE:Csm_Spi_DoSendBuffer_u8)
00000088  local     $C$L11 (.CSM_CODE:Csm_Spi_DoSendBuffer_u8)
00000074  local     $C$L12 (.CSM_CODE:Csm_Spi_SendBuffer_u8)
00000080  local     $C$L13 (.CSM_CODE:Csm_Spi_SendBuffer_u8)
000000e4  local     $C$L14 (.CSM_CODE:Csm_Spi_SendBuffer_u8)
000000ec  local     $C$L15 (.CSM_CODE:Csm_Spi_SendBuffer_u8)
000000fc  local     $C$L16 (.CSM_CODE:Csm_Spi_SendBuffer_u8)
000000a0  local     $C$L17 (.CSM_CODE:Csm_Spi_Test_IOLoopback)
000000c0  local     $C$L18 (.CSM_CODE:Csm_Spi_Test_IOLoopback)
000000f0  local     $C$L19 (.CSM_CODE:Csm_Spi_Test_IOLoopback)
00000058  local     $C$L2 (.CSM_CODE:Csm_Spi_InternWaiting)
0000012c  local     $C$L20 (.CSM_CODE:Csm_Spi_Test_IOLoopback)
0000014c  local     $C$L21 (.CSM_CODE:Csm_Spi_Test_IOLoopback)
00000150  local     $C$L22 (.CSM_CODE:Csm_Spi_Test_IOLoopback)
00000158  local     $C$L23 (.CSM_CODE:Csm_Spi_Test_IOLoopback)
0000016c  local     $C$L24 (.CSM_CODE:Csm_Spi_Test_IOLoopback)
00000170  local     $C$L25 (.CSM_CODE:Csm_Spi_Test_IOLoopback)
00000174  local     $C$L26 (.CSM_CODE:Csm_Spi_Test_IOLoopback)
00000178  local     $C$L27 (.CSM_CODE:Csm_Spi_Test_IOLoopback)
000a5664  local     $C$L28 (.CSM_CODE:Csm_Spi_TestMibSpiRamParityDo)
000a5670  local     $C$L29 (.CSM_CODE:Csm_Spi_TestMibSpiRamParityDo)
00000030  local     $C$L3 (.CSM_CODE:Csm_Spi_DoSendBuffer_u16)
000a5714  local     $C$L30 (.CSM_CODE:Csm_Spi_TestMibSpiRamParityDo)
000a5720  local     $C$L31 (.CSM_CODE:Csm_Spi_TestMibSpiRamParityDo)
000a572c  local     $C$L32 (.CSM_CODE:Csm_Spi_TestMibSpiRamParityDo)
000a1814  local     $C$L33 (.CSM_CODE:.CSM_CODE_TRIGGERWATCHDOG:Csm_Spi_StartGroupTransfer)
000a181c  local     $C$L34 (.CSM_CODE:.CSM_CODE_TRIGGERWATCHDOG:Csm_Spi_StartGroupTransfer)
000a1854  local     $C$L35 (.CSM_CODE:.CSM_CODE_TRIGGERWATCHDOG:Csm_Spi_StartGroupTransfer)
00000028  local     $C$L36 (.CSM_CODE:Csm_Spi_SetupGroupDma)
00000030  local     $C$L37 (.CSM_CODE:Csm_Spi_SetupGroupDma)
000a1404  local     $C$L38 (.CSM_CODE:Csm_Spi_CommonParameterCheck)
000a1410  local     $C$L39 (.CSM_CODE:Csm_Spi_CommonParameterCheck)
00000088  local     $C$L4 (.CSM_CODE:Csm_Spi_DoSendBuffer_u16)
000a1450  local     $C$L40 (.CSM_CODE:Csm_Spi_CommonParameterCheck)
000a14ac  local     $C$L41 (.CSM_CODE:Csm_Spi_SetTxRamEx_u8)
000a14b0  local     $C$L42 (.CSM_CODE:Csm_Spi_SetTxRamEx_u8)
000a1550  local     $C$L43 (.CSM_CODE:Csm_Spi_SetTxRamEx_u8)
000a156c  local     $C$L44 (.CSM_CODE:Csm_Spi_SetTxRamEx_u8)
000a15a0  local     $C$L45 (.CSM_CODE:Csm_Spi_SetTxRamEx_u8)
000a15c4  local     $C$L46 (.CSM_CODE:Csm_Spi_SetTxRamEx_u8)
000a15e8  local     $C$L47 (.CSM_CODE:Csm_Spi_SetTxRamEx_u8)
000a15fc  local     $C$L48 (.CSM_CODE:Csm_Spi_SetTxRamEx_u8)
000a165c  local     $C$L49 (.CSM_CODE:Csm_Spi_SetTxRamEx_u16)
00000074  local     $C$L5 (.CSM_CODE:Csm_Spi_SendBuffer_u16)
000a1660  local     $C$L50 (.CSM_CODE:Csm_Spi_SetTxRamEx_u16)
000a1700  local     $C$L51 (.CSM_CODE:Csm_Spi_SetTxRamEx_u16)
000a171c  local     $C$L52 (.CSM_CODE:Csm_Spi_SetTxRamEx_u16)
000a1750  local     $C$L53 (.CSM_CODE:Csm_Spi_SetTxRamEx_u16)
000a1774  local     $C$L54 (.CSM_CODE:Csm_Spi_SetTxRamEx_u16)
000a1798  local     $C$L55 (.CSM_CODE:Csm_Spi_SetTxRamEx_u16)
000a17ac  local     $C$L56 (.CSM_CODE:Csm_Spi_SetTxRamEx_u16)
000a5340  local     $C$L57 (.CSM_CODE:Csm_Spi_CalculateFun)
000a5364  local     $C$L58 (.CSM_CODE:Csm_Spi_CalculateFun)
000a536c  local     $C$L59 (.CSM_CODE:Csm_Spi_CalculateFun)
00000080  local     $C$L6 (.CSM_CODE:Csm_Spi_SendBuffer_u16)
000ade8c  local     $C$L60 (.CSM_CODE:Csm_Spi_ReadBackCfg)
000ade90  local     $C$L61 (.CSM_CODE:Csm_Spi_ReadBackCfg)
000ae060  local     $C$L62 (.CSM_CODE:Csm_Spi_ReadBackCfg)
000ae074  local     $C$L63 (.CSM_CODE:Csm_Spi_ReadBackCfg)
000ae078  local     $C$L64 (.CSM_CODE:Csm_Spi_ReadBackCfg)
000ae090  local     $C$L65 (.CSM_CODE:Csm_Spi_ReadBackCfg)
000ae10c  local     $C$L66 (.CSM_CODE:Csm_Spi_ReadBackCfg)
000ae114  local     $C$L67 (.CSM_CODE:Csm_Spi_ReadBackCfg)
00000040  local     $C$L68 (.CSM_CODE:Csm_Spi_Powerdown)
00000060  local     $C$L69 (.CSM_CODE:Csm_Spi_LoopbackInternal)
000000e4  local     $C$L7 (.CSM_CODE:Csm_Spi_SendBuffer_u16)
000a5470  local     $C$L70 (.CSM_CODE:Csm_Spi_Init)
000a54d0  local     $C$L71 (.CSM_CODE:Csm_Spi_Init)
000a5570  local     $C$L72 (.CSM_CODE:Csm_Spi_Init)
000a55e0  local     $C$L73 (.CSM_CODE:Csm_Spi_Init)
000a55f0  local     $C$L74 (.CSM_CODE:Csm_Spi_Init)
000a55f8  local     $C$L75 (.CSM_CODE:Csm_Spi_Init)
000a5600  local     $C$L76 (.CSM_CODE:Csm_Spi_Init)
000a1394  local     $C$L77 (.CSM_CODE:.CSM_CODE_TRIGGERWATCHDOG:Csm_Spi_GroupTransferIsComplete)
000a13a0  local     $C$L78 (.CSM_CODE:.CSM_CODE_TRIGGERWATCHDOG:Csm_Spi_GroupTransferIsComplete)
000af11c  local     $C$L79 (.CSM_CODE:Csm_Spi_GetRxRamEx_u8)
000000ec  local     $C$L8 (.CSM_CODE:Csm_Spi_SendBuffer_u16)
000af120  local     $C$L80 (.CSM_CODE:Csm_Spi_GetRxRamEx_u8)
000af1d0  local     $C$L81 (.CSM_CODE:Csm_Spi_GetRxRamEx_u8)
000af220  local     $C$L82 (.CSM_CODE:Csm_Spi_GetRxRamEx_u8)
000af24c  local     $C$L83 (.CSM_CODE:Csm_Spi_GetRxRamEx_u8)
000aa3ec  local     $C$L84 (.CSM_CODE:Csm_Spi_GetRxRamEx_u16)
000aa3f0  local     $C$L85 (.CSM_CODE:Csm_Spi_GetRxRamEx_u16)
000aa4a0  local     $C$L86 (.CSM_CODE:Csm_Spi_GetRxRamEx_u16)
000aa4f0  local     $C$L87 (.CSM_CODE:Csm_Spi_GetRxRamEx_u16)
000aa51c  local     $C$L88 (.CSM_CODE:Csm_Spi_GetRxRamEx_u16)
00000028  local     $C$L89 (.CSM_CODE:Csm_Spi_GetMibSpiParityError)
000000fc  local     $C$L9 (.CSM_CODE:Csm_Spi_SendBuffer_u16)
00000030  local     $C$L90 (.CSM_CODE:Csm_Spi_GetMibSpiParityError)
00000080  local     $C$L91 (.CSM_CODE:Csm_Spi_GetMibSpiParityError)
000000a4  local     $C$L92 (.CSM_CODE:Csm_Spi_GetMibSpiParityError)
000000b8  local     $C$L93 (.CSM_CODE:Csm_Spi_GetMibSpiParityError)
000a9f20  local     $C$L94 (.CSM_CODE:Csm_Spi_GetBufferAddresses)
000a9f30  local     $C$L95 (.CSM_CODE:Csm_Spi_GetBufferAddresses)
000a9f7c  local     $C$L96 (.CSM_CODE:Csm_Spi_GetBufferAddresses)
00000038  local     $C$L97 (.CSM_CODE:Csm_Spi_EnableDmaReq)
00000038  local     $C$L98 (.CSM_CODE:Csm_Spi_DisableDmaReq)
00000000  local     $a (.CSM_CODE:Csm_Spi_CheckRxBuffer)
00000000  local     $a (.CSM_CODE:Csm_Spi_CheckTxBuffer)
00000000  local     $a (.CSM_CODE:Csm_Spi_InternWaiting)
00000000  local     $a (.CSM_CODE:Csm_Spi_DoSendBuffer_u16)
00000000  local     $a (.CSM_CODE:Csm_Spi_SendBuffer_u16)
00000000  local     $a (.CSM_CODE:Csm_Spi_DoSendBuffer_u8)
00000000  local     $a (.CSM_CODE:Csm_Spi_SendBuffer_u8)
00000000  local     $a (.CSM_CODE:Csm_Spi_Test_IOLoopback)
000a5610  local     $a (.CSM_CODE:Csm_Spi_TestMibSpiRamParityDo)
000a5740  local     $a (.CSM_CODE:Csm_Spi_TestMibSpiRamParity)
000a17c0  local     $a (.CSM_CODE:Csm_Spi_SelectUnit)
000a17f0  local     $a (.CSM_CODE:.CSM_CODE_TRIGGERWATCHDOG:Csm_Spi_StartGroupTransfer)
00000000  local     $a (.CSM_CODE:Csm_Spi_SetupGroupDma)
000a13e0  local     $a (.CSM_CODE:Csm_Spi_CommonParameterCheck)
000a1460  local     $a (.CSM_CODE:Csm_Spi_SetTxRamEx_u8)
00000000  local     $a (.CSM_CODE:Csm_Spi_SetTxRam_u8)
000a1610  local     $a (.CSM_CODE:Csm_Spi_SetTxRamEx_u16)
000a9ee0  local     $a (.CSM_CODE:Csm_Spi_SetTxRam_u16)
00000000  local     $a (.CSM_CODE:Csm_Spi_ReadSpiFlg)
00000000  local     $a (.CSM_CODE:Csm_Spi_ReadInterruptVector)
000a5330  local     $a (.CSM_CODE:Csm_Spi_CalculateFun)
000adde0  local     $a (.CSM_CODE:Csm_Spi_ReadBackCfg)
00000000  local     $a (.CSM_CODE:Csm_Spi_Powerdown)
00000000  local     $a (.CSM_CODE:Csm_Spi_LoopbackInternal)
000a5390  local     $a (.CSM_CODE:Csm_Spi_Update_Format)
000a53f0  local     $a (.CSM_CODE:Csm_Spi_Init)
000a1370  local     $a (.CSM_CODE:.CSM_CODE_TRIGGERWATCHDOG:Csm_Spi_GroupTransferIsComplete)
00000000  local     $a (.CSM_CODE:Csm_Spi_GetVersionInfo)
000af0c0  local     $a (.CSM_CODE:Csm_Spi_GetRxRamEx_u8)
000af260  local     $a (.CSM_CODE:Csm_Spi_GetRxRam_u8)
000aa390  local     $a (.CSM_CODE:Csm_Spi_GetRxRamEx_u16)
000aa530  local     $a (.CSM_CODE:Csm_Spi_GetRxRam_u16)
00000000  local     $a (.CSM_CODE:Csm_Spi_GetMibSpiParityError)
000a9f00  local     $a (.CSM_CODE:Csm_Spi_GetBufferAddresses)
00000000  local     $a (.CSM_CODE:Csm_Spi_EnableDmaReq)
00000000  local     $a (.CSM_CODE:Csm_Spi_DisableDmaReq)
000afc20  local     $d (.CSM_CONST:.CSM_CONST_TRIGGERWATCHDOG)
000afc5c  local     $d (.CSM_CONST:.CSM_CONST_TRIGGERWATCHDOG)
000a1370  local     .CSM_CODE:.CSM_CODE_TRIGGERWATCHDOG:Csm_Spi_GroupTransferIsComplete (.CSM_CODE:.CSM_CODE_TRIGGERWATCHDOG:Csm_Spi_GroupTransferIsComplete)
000a17f0  local     .CSM_CODE:.CSM_CODE_TRIGGERWATCHDOG:Csm_Spi_StartGroupTransfer (.CSM_CODE:.CSM_CODE_TRIGGERWATCHDOG:Csm_Spi_StartGroupTransfer)
000a5330  local     .CSM_CODE:Csm_Spi_CalculateFun (.CSM_CODE:Csm_Spi_CalculateFun)
00000000  local     .CSM_CODE:Csm_Spi_CheckRxBuffer (.CSM_CODE:Csm_Spi_CheckRxBuffer)
00000000  local     .CSM_CODE:Csm_Spi_CheckTxBuffer (.CSM_CODE:Csm_Spi_CheckTxBuffer)
000a13e0  local     .CSM_CODE:Csm_Spi_CommonParameterCheck (.CSM_CODE:Csm_Spi_CommonParameterCheck)
00000000  local     .CSM_CODE:Csm_Spi_DisableDmaReq (.CSM_CODE:Csm_Spi_DisableDmaReq)
00000000  local     .CSM_CODE:Csm_Spi_DoSendBuffer_u16 (.CSM_CODE:Csm_Spi_DoSendBuffer_u16)
00000000  local     .CSM_CODE:Csm_Spi_DoSendBuffer_u8 (.CSM_CODE:Csm_Spi_DoSendBuffer_u8)
00000000  local     .CSM_CODE:Csm_Spi_EnableDmaReq (.CSM_CODE:Csm_Spi_EnableDmaReq)
000a9f00  local     .CSM_CODE:Csm_Spi_GetBufferAddresses (.CSM_CODE:Csm_Spi_GetBufferAddresses)
00000000  local     .CSM_CODE:Csm_Spi_GetMibSpiParityError (.CSM_CODE:Csm_Spi_GetMibSpiParityError)
000aa390  local     .CSM_CODE:Csm_Spi_GetRxRamEx_u16 (.CSM_CODE:Csm_Spi_GetRxRamEx_u16)
000af0c0  local     .CSM_CODE:Csm_Spi_GetRxRamEx_u8 (.CSM_CODE:Csm_Spi_GetRxRamEx_u8)
000aa530  local     .CSM_CODE:Csm_Spi_GetRxRam_u16 (.CSM_CODE:Csm_Spi_GetRxRam_u16)
000af260  local     .CSM_CODE:Csm_Spi_GetRxRam_u8 (.CSM_CODE:Csm_Spi_GetRxRam_u8)
00000000  local     .CSM_CODE:Csm_Spi_GetVersionInfo (.CSM_CODE:Csm_Spi_GetVersionInfo)
000a53f0  local     .CSM_CODE:Csm_Spi_Init (.CSM_CODE:Csm_Spi_Init)
00000000  local     .CSM_CODE:Csm_Spi_InternWaiting (.CSM_CODE:Csm_Spi_InternWaiting)
00000000  local     .CSM_CODE:Csm_Spi_LoopbackInternal (.CSM_CODE:Csm_Spi_LoopbackInternal)
00000000  local     .CSM_CODE:Csm_Spi_Powerdown (.CSM_CODE:Csm_Spi_Powerdown)
000adde0  local     .CSM_CODE:Csm_Spi_ReadBackCfg (.CSM_CODE:Csm_Spi_ReadBackCfg)
00000000  local     .CSM_CODE:Csm_Spi_ReadInterruptVector (.CSM_CODE:Csm_Spi_ReadInterruptVector)
00000000  local     .CSM_CODE:Csm_Spi_ReadSpiFlg (.CSM_CODE:Csm_Spi_ReadSpiFlg)
000a17c0  local     .CSM_CODE:Csm_Spi_SelectUnit (.CSM_CODE:Csm_Spi_SelectUnit)
00000000  local     .CSM_CODE:Csm_Spi_SendBuffer_u16 (.CSM_CODE:Csm_Spi_SendBuffer_u16)
00000000  local     .CSM_CODE:Csm_Spi_SendBuffer_u8 (.CSM_CODE:Csm_Spi_SendBuffer_u8)
000a1610  local     .CSM_CODE:Csm_Spi_SetTxRamEx_u16 (.CSM_CODE:Csm_Spi_SetTxRamEx_u16)
000a1460  local     .CSM_CODE:Csm_Spi_SetTxRamEx_u8 (.CSM_CODE:Csm_Spi_SetTxRamEx_u8)
000a9ee0  local     .CSM_CODE:Csm_Spi_SetTxRam_u16 (.CSM_CODE:Csm_Spi_SetTxRam_u16)
00000000  local     .CSM_CODE:Csm_Spi_SetTxRam_u8 (.CSM_CODE:Csm_Spi_SetTxRam_u8)
00000000  local     .CSM_CODE:Csm_Spi_SetupGroupDma (.CSM_CODE:Csm_Spi_SetupGroupDma)
000a5740  local     .CSM_CODE:Csm_Spi_TestMibSpiRamParity (.CSM_CODE:Csm_Spi_TestMibSpiRamParity)
000a5610  local     .CSM_CODE:Csm_Spi_TestMibSpiRamParityDo (.CSM_CODE:Csm_Spi_TestMibSpiRamParityDo)
00000000  local     .CSM_CODE:Csm_Spi_Test_IOLoopback (.CSM_CODE:Csm_Spi_Test_IOLoopback)
000a5390  local     .CSM_CODE:Csm_Spi_Update_Format (.CSM_CODE:Csm_Spi_Update_Format)
000afc20  local     .CSM_CONST:.CSM_CONST_TRIGGERWATCHDOG (.CSM_CONST:.CSM_CONST_TRIGGERWATCHDOG)
00000000  local     .text (.text)
000a5330  local     Csm_Spi_CalculateFun (.CSM_CODE:Csm_Spi_CalculateFun)
00000000  local     Csm_Spi_CheckRxBuffer (.CSM_CODE:Csm_Spi_CheckRxBuffer)
00000000  local     Csm_Spi_CheckTxBuffer (.CSM_CODE:Csm_Spi_CheckTxBuffer)
000a13e0  local     Csm_Spi_CommonParameterCheck (.CSM_CODE:Csm_Spi_CommonParameterCheck)
00000000  global    Csm_Spi_DisableDmaReq (.CSM_CODE:Csm_Spi_DisableDmaReq)
00000000  local     Csm_Spi_DoSendBuffer_u16 (.CSM_CODE:Csm_Spi_DoSendBuffer_u16)
00000000  local     Csm_Spi_DoSendBuffer_u8 (.CSM_CODE:Csm_Spi_DoSendBuffer_u8)
00000000  global    Csm_Spi_EnableDmaReq (.CSM_CODE:Csm_Spi_EnableDmaReq)
000a9f00  global    Csm_Spi_GetBufferAddresses (.CSM_CODE:Csm_Spi_GetBufferAddresses)
00000000  global    Csm_Spi_GetMibSpiParityError (.CSM_CODE:Csm_Spi_GetMibSpiParityError)
000aa390  global    Csm_Spi_GetRxRamEx_u16 (.CSM_CODE:Csm_Spi_GetRxRamEx_u16)
000af0c0  global    Csm_Spi_GetRxRamEx_u8 (.CSM_CODE:Csm_Spi_GetRxRamEx_u8)
000aa530  global    Csm_Spi_GetRxRam_u16 (.CSM_CODE:Csm_Spi_GetRxRam_u16)
000af260  global    Csm_Spi_GetRxRam_u8 (.CSM_CODE:Csm_Spi_GetRxRam_u8)
00000000  global    Csm_Spi_GetVersionInfo (.CSM_CODE:Csm_Spi_GetVersionInfo)
000a1370  global    Csm_Spi_GroupTransferIsComplete (.CSM_CODE:.CSM_CODE_TRIGGERWATCHDOG:Csm_Spi_GroupTransferIsComplete)
000a53f0  global    Csm_Spi_Init (.CSM_CODE:Csm_Spi_Init)
00000000  local     Csm_Spi_InternWaiting (.CSM_CODE:Csm_Spi_InternWaiting)
00000000  global    Csm_Spi_LoopbackInternal (.CSM_CODE:Csm_Spi_LoopbackInternal)
00000000  global    Csm_Spi_Powerdown (.CSM_CODE:Csm_Spi_Powerdown)
000adde0  global    Csm_Spi_ReadBackCfg (.CSM_CODE:Csm_Spi_ReadBackCfg)
00000000  global    Csm_Spi_ReadInterruptVector (.CSM_CODE:Csm_Spi_ReadInterruptVector)
00000000  global    Csm_Spi_ReadSpiFlg (.CSM_CODE:Csm_Spi_ReadSpiFlg)
000a17c0  local     Csm_Spi_SelectUnit (.CSM_CODE:Csm_Spi_SelectUnit)
00000000  global    Csm_Spi_SendBuffer_u16 (.CSM_CODE:Csm_Spi_SendBuffer_u16)
00000000  global    Csm_Spi_SendBuffer_u8 (.CSM_CODE:Csm_Spi_SendBuffer_u8)
000a1610  global    Csm_Spi_SetTxRamEx_u16 (.CSM_CODE:Csm_Spi_SetTxRamEx_u16)
000a1460  global    Csm_Spi_SetTxRamEx_u8 (.CSM_CODE:Csm_Spi_SetTxRamEx_u8)
000a9ee0  global    Csm_Spi_SetTxRam_u16 (.CSM_CODE:Csm_Spi_SetTxRam_u16)
00000000  global    Csm_Spi_SetTxRam_u8 (.CSM_CODE:Csm_Spi_SetTxRam_u8)
00000000  global    Csm_Spi_SetupGroupDma (.CSM_CODE:Csm_Spi_SetupGroupDma)
000a17f0  global    Csm_Spi_StartGroupTransfer (.CSM_CODE:.CSM_CODE_TRIGGERWATCHDOG:Csm_Spi_StartGroupTransfer)
000a5740  global    Csm_Spi_TestMibSpiRamParity (.CSM_CODE:Csm_Spi_TestMibSpiRamParity)
000a5610  local     Csm_Spi_TestMibSpiRamParityDo (.CSM_CODE:Csm_Spi_TestMibSpiRamParityDo)
00000000  global    Csm_Spi_Test_IOLoopback (.CSM_CODE:Csm_Spi_Test_IOLoopback)
000a5390  local     Csm_Spi_Update_Format (.CSM_CODE:Csm_Spi_Update_Format)
000afc20  local     SPI (.CSM_CONST:.CSM_CONST_TRIGGERWATCHDOG)
000afc5c  local     SPI_PARITY (.CSM_CONST:.CSM_CONST_TRIGGERWATCHDOG)


================================================================================

ttc500.lib : drv_Csm_Adc.obj

Run/Load            
Value     Binding   Name (Section)
--------  --------  ---------------
000a7aa4  local     $C$L1 (.CSM_CODE:Csm_Adc_TestRamParity)
00000068  local     $C$L10 (.CSM_CODE:Csm_Adc_ReadGroup)
00000078  local     $C$L11 (.CSM_CODE:Csm_Adc_ReadGroup)
0000007c  local     $C$L12 (.CSM_CODE:Csm_Adc_ReadGroup)
00000080  local     $C$L13 (.CSM_CODE:Csm_Adc_ReadGroup)
000adb00  local     $C$L14 (.CSM_CODE:Csm_Adc_ReadUnit)
000adb24  local     $C$L15 (.CSM_CODE:Csm_Adc_ReadUnit)
000adb30  local     $C$L16 (.CSM_CODE:Csm_Adc_ReadUnit)
000adb6c  local     $C$L17 (.CSM_CODE:Csm_Adc_ReadUnit)
000adb74  local     $C$L18 (.CSM_CODE:Csm_Adc_ReadUnit)
000adbb0  local     $C$L19 (.CSM_CODE:Csm_Adc_ReadUnit)
000a7ab0  local     $C$L2 (.CSM_CODE:Csm_Adc_TestRamParity)
000adbc8  local     $C$L20 (.CSM_CODE:Csm_Adc_ReadUnit)
000adbcc  local     $C$L21 (.CSM_CODE:Csm_Adc_ReadUnit)
000adc34  local     $C$L22 (.CSM_CODE:Csm_Adc_ReadUnit)
000adc38  local     $C$L23 (.CSM_CODE:Csm_Adc_ReadUnit)
000adc3c  local     $C$L24 (.CSM_CODE:Csm_Adc_ReadUnit)
000a7fe8  local     $C$L25 (.CSM_CODE:Csm_Adc_GetConfigVal_regMODECR)
000a7ff4  local     $C$L26 (.CSM_CODE:Csm_Adc_GetConfigVal_regMODECR)
000a8008  local     $C$L27 (.CSM_CODE:Csm_Adc_GetConfigVal_regMODECR)
000a8014  local     $C$L28 (.CSM_CODE:Csm_Adc_GetConfigVal_regMODECR)
000a8050  local     $C$L29 (.CSM_CODE:Csm_Adc_GetConfigVal_regSRC)
000a7acc  local     $C$L3 (.CSM_CODE:Csm_Adc_TestRamParity)
000add00  local     $C$L30 (.CSM_CODE:Csm_Adc_ReadHwGroup)
000add18  local     $C$L31 (.CSM_CODE:Csm_Adc_ReadHwGroup)
000add1c  local     $C$L32 (.CSM_CODE:Csm_Adc_ReadHwGroup)
000add40  local     $C$L33 (.CSM_CODE:Csm_Adc_ReadHwGroup)
000add44  local     $C$L34 (.CSM_CODE:Csm_Adc_ReadHwGroup)
000add48  local     $C$L35 (.CSM_CODE:Csm_Adc_ReadHwGroup)
000add70  local     $C$L36 (.CSM_CODE:Csm_Adc_ReadBackCfg)
000add94  local     $C$L37 (.CSM_CODE:Csm_Adc_ReadBackCfg)
000addb0  local     $C$L38 (.CSM_CODE:Csm_Adc_ReadBackCfg)
000a7870  local     $C$L39 (.CSM_CODE:Init_Unit)
000a7ad0  local     $C$L4 (.CSM_CODE:Csm_Adc_TestRamParity)
000a7884  local     $C$L40 (.CSM_CODE:Init_Unit)
000a7888  local     $C$L41 (.CSM_CODE:Init_Unit)
000a7910  local     $C$L42 (.CSM_CODE:Init_Unit)
000a7950  local     $C$L43 (.CSM_CODE:Csm_Adc_Init)
000a7988  local     $C$L44 (.CSM_CODE:Csm_Adc_Init)
000a7998  local     $C$L45 (.CSM_CODE:Csm_Adc_Init)
00000074  local     $C$L46 (.CSM_CODE:Csm_Adc_GetGroupStatus)
000a8228  local     $C$L47 (.CSM_CODE:Csm_Adc_EnableHardwareTrigger)
000a822c  local     $C$L48 (.CSM_CODE:Csm_Adc_EnableHardwareTrigger)
000a8230  local     $C$L49 (.CSM_CODE:Csm_Adc_EnableHardwareTrigger)
00000034  local     $C$L5 (.CSM_CODE:Csm_Adc_StopGroupConversion)
00000050  local     $C$L50 (.CSM_CODE:Csm_Adc_DisableHardwareTrigger)
00000054  local     $C$L51 (.CSM_CODE:Csm_Adc_DisableHardwareTrigger)
00000058  local     $C$L52 (.CSM_CODE:Csm_Adc_DisableHardwareTrigger)
00000040  local     $C$L53 (.CSM_CODE:Csm_Adc_DeInit)
000a812c  local     $C$L54 (.CSM_CODE:Csm_Adc_ConfigureGroup)
00000034  local     $C$L55 (.CSM_CODE:Csm_Adc_AcknowledgeInterrupt)
0000004c  local     $C$L6 (.CSM_CODE:Csm_Adc_StartGroupConversion)
00000050  local     $C$L7 (.CSM_CODE:Csm_Adc_StartGroupConversion)
00000054  local     $C$L8 (.CSM_CODE:Csm_Adc_StartGroupConversion)
00000050  local     $C$L9 (.CSM_CODE:Csm_Adc_ReadGroup)
000a79a0  local     $a (.CSM_CODE:Csm_Adc_TestRamParitySup)
000a79f0  local     $a (.CSM_CODE:Csm_Adc_TestRamParity)
000a8140  local     $a (.CSM_CODE:manipulate_group)
00000000  local     $a (.CSM_CODE:Csm_Adc_StopGroupConversion)
00000000  local     $a (.CSM_CODE:Csm_Adc_StartGroupConversion)
00000000  local     $a (.CSM_CODE:Csm_Adc_ReadGroup)
000ada90  local     $a (.CSM_CODE:Csm_Adc_ReadBackCfgSup)
000a77b0  local     $a (.CSM_CODE:Csm_Adc_GetConfigVal_regBNDCR)
000adac0  local     $a (.CSM_CODE:Csm_Adc_ReadUnit)
000a7f80  local     $a (.CSM_CODE:Csm_Adc_GetConfigVal_regMODECR)
000a8030  local     $a (.CSM_CODE:Csm_Adc_GetConfigVal_regSRC)
000a7f60  local     $a (.CSM_CODE:Csm_Adc_GetConfigVal_regSAMPDISC)
000adc40  local     $a (.CSM_CODE:Csm_Adc_ReadHwGroup)
000add50  local     $a (.CSM_CODE:Csm_Adc_ReadBackCfg)
000a77f0  local     $a (.CSM_CODE:Init_Unit)
000a7920  local     $a (.CSM_CODE:Csm_Adc_Init)
00000000  local     $a (.CSM_CODE:Csm_Adc_GetVersionInfo)
00000000  local     $a (.CSM_CODE:Csm_Adc_UnitBaseAddress)
00000000  local     $a (.CSM_CODE:Csm_Adc_GetParityError)
00000000  local     $a (.CSM_CODE:Csm_Adc_GetGroupStatus)
000a81d0  local     $a (.CSM_CODE:Csm_Adc_EnableHardwareTrigger)
00000000  local     $a (.CSM_CODE:Csm_Adc_DisableHardwareTrigger)
00000000  local     $a (.CSM_CODE:Csm_Adc_DeInit)
000a7eb0  local     $a (.CSM_CODE:Csm_Adc_ConfigureGroupSup)
000a8060  local     $a (.CSM_CODE:Csm_Adc_ConfigureGroup)
00000000  local     $a (.CSM_CODE:Csm_Adc_AcknowledgeInterrupt)
000afde8  local     $d (.CSM_CONST)
00000000  local     .CSM_CODE:Csm_Adc_AcknowledgeInterrupt (.CSM_CODE:Csm_Adc_AcknowledgeInterrupt)
000a8060  local     .CSM_CODE:Csm_Adc_ConfigureGroup (.CSM_CODE:Csm_Adc_ConfigureGroup)
000a7eb0  local     .CSM_CODE:Csm_Adc_ConfigureGroupSup (.CSM_CODE:Csm_Adc_ConfigureGroupSup)
00000000  local     .CSM_CODE:Csm_Adc_DeInit (.CSM_CODE:Csm_Adc_DeInit)
00000000  local     .CSM_CODE:Csm_Adc_DisableHardwareTrigger (.CSM_CODE:Csm_Adc_DisableHardwareTrigger)
000a81d0  local     .CSM_CODE:Csm_Adc_EnableHardwareTrigger (.CSM_CODE:Csm_Adc_EnableHardwareTrigger)
000a77b0  local     .CSM_CODE:Csm_Adc_GetConfigVal_regBNDCR (.CSM_CODE:Csm_Adc_GetConfigVal_regBNDCR)
000a7f80  local     .CSM_CODE:Csm_Adc_GetConfigVal_regMODECR (.CSM_CODE:Csm_Adc_GetConfigVal_regMODECR)
000a7f60  local     .CSM_CODE:Csm_Adc_GetConfigVal_regSAMPDISC (.CSM_CODE:Csm_Adc_GetConfigVal_regSAMPDISC)
000a8030  local     .CSM_CODE:Csm_Adc_GetConfigVal_regSRC (.CSM_CODE:Csm_Adc_GetConfigVal_regSRC)
00000000  local     .CSM_CODE:Csm_Adc_GetGroupStatus (.CSM_CODE:Csm_Adc_GetGroupStatus)
00000000  local     .CSM_CODE:Csm_Adc_GetParityError (.CSM_CODE:Csm_Adc_GetParityError)
00000000  local     .CSM_CODE:Csm_Adc_GetVersionInfo (.CSM_CODE:Csm_Adc_GetVersionInfo)
000a7920  local     .CSM_CODE:Csm_Adc_Init (.CSM_CODE:Csm_Adc_Init)
000add50  local     .CSM_CODE:Csm_Adc_ReadBackCfg (.CSM_CODE:Csm_Adc_ReadBackCfg)
000ada90  local     .CSM_CODE:Csm_Adc_ReadBackCfgSup (.CSM_CODE:Csm_Adc_ReadBackCfgSup)
00000000  local     .CSM_CODE:Csm_Adc_ReadGroup (.CSM_CODE:Csm_Adc_ReadGroup)
000adc40  local     .CSM_CODE:Csm_Adc_ReadHwGroup (.CSM_CODE:Csm_Adc_ReadHwGroup)
000adac0  local     .CSM_CODE:Csm_Adc_ReadUnit (.CSM_CODE:Csm_Adc_ReadUnit)
00000000  local     .CSM_CODE:Csm_Adc_StartGroupConversion (.CSM_CODE:Csm_Adc_StartGroupConversion)
00000000  local     .CSM_CODE:Csm_Adc_StopGroupConversion (.CSM_CODE:Csm_Adc_StopGroupConversion)
000a79f0  local     .CSM_CODE:Csm_Adc_TestRamParity (.CSM_CODE:Csm_Adc_TestRamParity)
000a79a0  local     .CSM_CODE:Csm_Adc_TestRamParitySup (.CSM_CODE:Csm_Adc_TestRamParitySup)
00000000  local     .CSM_CODE:Csm_Adc_UnitBaseAddress (.CSM_CODE:Csm_Adc_UnitBaseAddress)
000a77f0  local     .CSM_CODE:Init_Unit (.CSM_CODE:Init_Unit)
000a8140  local     .CSM_CODE:manipulate_group (.CSM_CODE:manipulate_group)
000afde8  local     .CSM_CONST (.CSM_CONST)
08038054  local     .CSM_VAR_ZERO_INIT_UNSPECIFIED (.CSM_VAR_ZERO_INIT_UNSPECIFIED)
00000000  local     .text (.text)
00000000  global    Csm_Adc_AcknowledgeInterrupt (.CSM_CODE:Csm_Adc_AcknowledgeInterrupt)
000a8060  global    Csm_Adc_ConfigureGroup (.CSM_CODE:Csm_Adc_ConfigureGroup)
000a7eb0  local     Csm_Adc_ConfigureGroupSup (.CSM_CODE:Csm_Adc_ConfigureGroupSup)
00000000  global    Csm_Adc_DeInit (.CSM_CODE:Csm_Adc_DeInit)
00000000  global    Csm_Adc_DisableHardwareTrigger (.CSM_CODE:Csm_Adc_DisableHardwareTrigger)
000a81d0  global    Csm_Adc_EnableHardwareTrigger (.CSM_CODE:Csm_Adc_EnableHardwareTrigger)
000a77b0  local     Csm_Adc_GetConfigVal_regBNDCR (.CSM_CODE:Csm_Adc_GetConfigVal_regBNDCR)
000a7f80  local     Csm_Adc_GetConfigVal_regMODECR (.CSM_CODE:Csm_Adc_GetConfigVal_regMODECR)
000a7f60  local     Csm_Adc_GetConfigVal_regSAMPDISC (.CSM_CODE:Csm_Adc_GetConfigVal_regSAMPDISC)
000a8030  local     Csm_Adc_GetConfigVal_regSRC (.CSM_CODE:Csm_Adc_GetConfigVal_regSRC)
00000000  global    Csm_Adc_GetGroupStatus (.CSM_CODE:Csm_Adc_GetGroupStatus)
00000000  global    Csm_Adc_GetParityError (.CSM_CODE:Csm_Adc_GetParityError)
00000000  global    Csm_Adc_GetVersionInfo (.CSM_CODE:Csm_Adc_GetVersionInfo)
000a7920  global    Csm_Adc_Init (.CSM_CODE:Csm_Adc_Init)
000add50  global    Csm_Adc_ReadBackCfg (.CSM_CODE:Csm_Adc_ReadBackCfg)
000ada90  local     Csm_Adc_ReadBackCfgSup (.CSM_CODE:Csm_Adc_ReadBackCfgSup)
00000000  global    Csm_Adc_ReadGroup (.CSM_CODE:Csm_Adc_ReadGroup)
000adc40  local     Csm_Adc_ReadHwGroup (.CSM_CODE:Csm_Adc_ReadHwGroup)
000adac0  local     Csm_Adc_ReadUnit (.CSM_CODE:Csm_Adc_ReadUnit)
00000000  global    Csm_Adc_StartGroupConversion (.CSM_CODE:Csm_Adc_StartGroupConversion)
00000000  global    Csm_Adc_StopGroupConversion (.CSM_CODE:Csm_Adc_StopGroupConversion)
000a79f0  global    Csm_Adc_TestRamParity (.CSM_CODE:Csm_Adc_TestRamParity)
000a79a0  local     Csm_Adc_TestRamParitySup (.CSM_CODE:Csm_Adc_TestRamParitySup)
00000000  local     Csm_Adc_UnitBaseAddress (.CSM_CODE:Csm_Adc_UnitBaseAddress)
000afde8  local     Csm_Adc_units (.CSM_CONST)
000a77f0  local     Init_Unit (.CSM_CODE:Init_Unit)
08038054  local     adc_state (.CSM_VAR_ZERO_INIT_UNSPECIFIED)
000a8140  local     manipulate_group (.CSM_CODE:manipulate_group)


================================================================================

ttc500.lib : drv_Csm_Dio.obj

Run/Load            
Value     Binding   Name (Section)
--------  --------  ---------------
000a121c  local     $C$L1 (.CSM_CODE:Csm_Dio_WriteChannel)
000ac734  local     $C$L10 (.CSM_CODE:Csm_Dio_CheckChannelDirCfg)
000ac770  local     $C$L11 (.CSM_CODE:Csm_Dio_CheckChannelDirCfg)
000ac79c  local     $C$L12 (.CSM_CODE:Csm_Dio_CheckChannelDirCfg)
000ac7b0  local     $C$L13 (.CSM_CODE:Csm_Dio_CheckChannelDirCfg)
000ac7e0  local     $C$L14 (.CSM_CODE:Csm_Dio_CheckChannelDirCfg)
000ac7e8  local     $C$L15 (.CSM_CODE:Csm_Dio_CheckChannelDirCfg)
000ac850  local     $C$L16 (.CSM_CODE:Csm_Dio_ReadBackChannelCfg)
000ac860  local     $C$L17 (.CSM_CODE:Csm_Dio_ReadBackChannelCfg)
000ac864  local     $C$L18 (.CSM_CODE:Csm_Dio_ReadBackChannelCfg)
000ac880  local     $C$L19 (.CSM_CODE:Csm_Dio_ReadBackChannelCfg)
00000020  local     $C$L2 (.CSM_CODE:Csm_Dio_ReadOffsetLowPriority)
000ac884  local     $C$L20 (.CSM_CODE:Csm_Dio_ReadBackChannelCfg)
000ac888  local     $C$L21 (.CSM_CODE:Csm_Dio_ReadBackChannelCfg)
000ac8e0  local     $C$L22 (.CSM_CODE:Csm_Dio_ReadBackCfg)
000ac910  local     $C$L23 (.CSM_CODE:Csm_Dio_ReadBackCfg)
000ac92c  local     $C$L24 (.CSM_CODE:Csm_Dio_ReadBackCfg)
000ac93c  local     $C$L25 (.CSM_CODE:Csm_Dio_ReadBackCfg)
000ac98c  local     $C$L26 (.CSM_CODE:Csm_Dio_ReadBackCfg)
000ac9b0  local     $C$L27 (.CSM_CODE:Csm_Dio_ReadBackCfg)
000aca10  local     $C$L28 (.CSM_CODE:Csm_Dio_ReadBackCfg)
000aca64  local     $C$L29 (.CSM_CODE:Csm_Dio_ReadBackCfg)
00000020  local     $C$L3 (.CSM_CODE:Csm_Dio_ReadOffsetHighPriority)
000aca68  local     $C$L30 (.CSM_CODE:Csm_Dio_ReadBackCfg)
000aca6c  local     $C$L31 (.CSM_CODE:Csm_Dio_ReadBackCfg)
000a58a0  local     $C$L32 (.CSM_CODE:Csm_Dio_InitChannelSuppA)
000a5950  local     $C$L33 (.CSM_CODE:Csm_Dio_InitChannelSuppB)
000a5990  local     $C$L34 (.CSM_CODE:Csm_Dio_InitChannelSuppB)
000a59c0  local     $C$L35 (.CSM_CODE:Csm_Dio_InitChannelSuppB)
000a59f0  local     $C$L36 (.CSM_CODE:Csm_Dio_InitChannelSuppB)
000a5a7c  local     $C$L37 (.CSM_CODE:Csm_Dio_InitChannel)
000a5ad0  local     $C$L38 (.CSM_CODE:Csm_Dio_Init)
000a5af0  local     $C$L39 (.CSM_CODE:Csm_Dio_Init)
000a57a0  local     $C$L4 (.CSM_CODE:Csm_Dio_CheckGroupsCfg)
000a5b0c  local     $C$L40 (.CSM_CODE:Csm_Dio_Init)
000a5b1c  local     $C$L41 (.CSM_CODE:Csm_Dio_Init)
000a5b7c  local     $C$L42 (.CSM_CODE:Csm_Dio_Init)
000a5ba0  local     $C$L43 (.CSM_CODE:Csm_Dio_Init)
000a5c00  local     $C$L44 (.CSM_CODE:Csm_Dio_Init)
000a5c54  local     $C$L45 (.CSM_CODE:Csm_Dio_Init)
00000070  local     $C$L46 (.CSM_CODE:Csm_Dio_FlipChannel)
000aeb88  local     $C$L47 (.CSM_CODE:Csm_Dio_ChangeDirection)
000a57c0  local     $C$L5 (.CSM_CODE:Csm_Dio_CheckGroupsCfg)
000a5800  local     $C$L6 (.CSM_CODE:Csm_Dio_CheckChannelsCfg)
000a5820  local     $C$L7 (.CSM_CODE:Csm_Dio_CheckChannelsCfg)
000a5858  local     $C$L8 (.CSM_CODE:Csm_Dio_CheckCfgParameters)
000ac6f0  local     $C$L9 (.CSM_CODE:Csm_Dio_CheckChannelDirCfg)
00000000  local     $a (.CSM_CODE:Csm_Dio_WritePort)
00000000  local     $a (.CSM_CODE:Csm_Dio_WriteChannelGroup)
000a11c0  local     $a (.CSM_CODE:Csm_Dio_WriteChannel)
00000000  local     $a (.CSM_CODE:Csm_Dio_ReadPort)
00000000  local     $a (.CSM_CODE:Csm_Dio_ReadOffsetLowPriority)
00000000  local     $a (.CSM_CODE:Csm_Dio_ReadOffsetHighPriority)
00000000  local     $a (.CSM_CODE:Csm_Dio_ReadChannelGroup)
000a7220  local     $a (.CSM_CODE:Csm_Dio_ReadChannel)
000a5770  local     $a (.CSM_CODE:Csm_Dio_CheckGroupsCfg)
000a57d0  local     $a (.CSM_CODE:Csm_Dio_CheckChannelsCfg)
000a5830  local     $a (.CSM_CODE:Csm_Dio_CheckCfgParameters)
000ac680  local     $a (.CSM_CODE:Csm_Dio_CheckChannelDirCfg)
000ac7f0  local     $a (.CSM_CODE:Csm_Dio_ReadBackChannelCfg)
000ac8a0  local     $a (.CSM_CODE:Csm_Dio_ReadBackCfg)
000a5860  local     $a (.CSM_CODE:Csm_Dio_InitChannelSuppA)
000a58c0  local     $a (.CSM_CODE:Csm_Dio_InitChannelSuppB)
000a5a20  local     $a (.CSM_CODE:Csm_Dio_InitChannel)
000a5a90  local     $a (.CSM_CODE:Csm_Dio_Init)
00000000  local     $a (.CSM_CODE:Csm_Dio_GetVersionInfo)
00000000  local     $a (.CSM_CODE:Csm_Dio_FlipChannel)
000aeb00  local     $a (.CSM_CODE:Csm_Dio_ChangeDirection)
000aeb00  local     .CSM_CODE:Csm_Dio_ChangeDirection (.CSM_CODE:Csm_Dio_ChangeDirection)
000a5830  local     .CSM_CODE:Csm_Dio_CheckCfgParameters (.CSM_CODE:Csm_Dio_CheckCfgParameters)
000ac680  local     .CSM_CODE:Csm_Dio_CheckChannelDirCfg (.CSM_CODE:Csm_Dio_CheckChannelDirCfg)
000a57d0  local     .CSM_CODE:Csm_Dio_CheckChannelsCfg (.CSM_CODE:Csm_Dio_CheckChannelsCfg)
000a5770  local     .CSM_CODE:Csm_Dio_CheckGroupsCfg (.CSM_CODE:Csm_Dio_CheckGroupsCfg)
00000000  local     .CSM_CODE:Csm_Dio_FlipChannel (.CSM_CODE:Csm_Dio_FlipChannel)
00000000  local     .CSM_CODE:Csm_Dio_GetVersionInfo (.CSM_CODE:Csm_Dio_GetVersionInfo)
000a5a90  local     .CSM_CODE:Csm_Dio_Init (.CSM_CODE:Csm_Dio_Init)
000a5a20  local     .CSM_CODE:Csm_Dio_InitChannel (.CSM_CODE:Csm_Dio_InitChannel)
000a5860  local     .CSM_CODE:Csm_Dio_InitChannelSuppA (.CSM_CODE:Csm_Dio_InitChannelSuppA)
000a58c0  local     .CSM_CODE:Csm_Dio_InitChannelSuppB (.CSM_CODE:Csm_Dio_InitChannelSuppB)
000ac8a0  local     .CSM_CODE:Csm_Dio_ReadBackCfg (.CSM_CODE:Csm_Dio_ReadBackCfg)
000ac7f0  local     .CSM_CODE:Csm_Dio_ReadBackChannelCfg (.CSM_CODE:Csm_Dio_ReadBackChannelCfg)
000a7220  local     .CSM_CODE:Csm_Dio_ReadChannel (.CSM_CODE:Csm_Dio_ReadChannel)
00000000  local     .CSM_CODE:Csm_Dio_ReadChannelGroup (.CSM_CODE:Csm_Dio_ReadChannelGroup)
00000000  local     .CSM_CODE:Csm_Dio_ReadOffsetHighPriority (.CSM_CODE:Csm_Dio_ReadOffsetHighPriority)
00000000  local     .CSM_CODE:Csm_Dio_ReadOffsetLowPriority (.CSM_CODE:Csm_Dio_ReadOffsetLowPriority)
00000000  local     .CSM_CODE:Csm_Dio_ReadPort (.CSM_CODE:Csm_Dio_ReadPort)
000a11c0  local     .CSM_CODE:Csm_Dio_WriteChannel (.CSM_CODE:Csm_Dio_WriteChannel)
00000000  local     .CSM_CODE:Csm_Dio_WriteChannelGroup (.CSM_CODE:Csm_Dio_WriteChannelGroup)
00000000  local     .CSM_CODE:Csm_Dio_WritePort (.CSM_CODE:Csm_Dio_WritePort)
080380a4  local     .CSM_VAR_ZERO_INIT_UNSPECIFIED (.CSM_VAR_ZERO_INIT_UNSPECIFIED)
00000000  local     .text (.text)
000aeb00  global    Csm_Dio_ChangeDirection (.CSM_CODE:Csm_Dio_ChangeDirection)
000a5830  local     Csm_Dio_CheckCfgParameters (.CSM_CODE:Csm_Dio_CheckCfgParameters)
000ac680  local     Csm_Dio_CheckChannelDirCfg (.CSM_CODE:Csm_Dio_CheckChannelDirCfg)
000a57d0  local     Csm_Dio_CheckChannelsCfg (.CSM_CODE:Csm_Dio_CheckChannelsCfg)
000a5770  local     Csm_Dio_CheckGroupsCfg (.CSM_CODE:Csm_Dio_CheckGroupsCfg)
00000000  global    Csm_Dio_FlipChannel (.CSM_CODE:Csm_Dio_FlipChannel)
00000000  global    Csm_Dio_GetVersionInfo (.CSM_CODE:Csm_Dio_GetVersionInfo)
000a5a90  global    Csm_Dio_Init (.CSM_CODE:Csm_Dio_Init)
000a5a20  global    Csm_Dio_InitChannel (.CSM_CODE:Csm_Dio_InitChannel)
000a5860  local     Csm_Dio_InitChannelSuppA (.CSM_CODE:Csm_Dio_InitChannelSuppA)
000a58c0  local     Csm_Dio_InitChannelSuppB (.CSM_CODE:Csm_Dio_InitChannelSuppB)
000ac8a0  global    Csm_Dio_ReadBackCfg (.CSM_CODE:Csm_Dio_ReadBackCfg)
000ac7f0  local     Csm_Dio_ReadBackChannelCfg (.CSM_CODE:Csm_Dio_ReadBackChannelCfg)
000a7220  global    Csm_Dio_ReadChannel (.CSM_CODE:Csm_Dio_ReadChannel)
00000000  global    Csm_Dio_ReadChannelGroup (.CSM_CODE:Csm_Dio_ReadChannelGroup)
00000000  global    Csm_Dio_ReadOffsetHighPriority (.CSM_CODE:Csm_Dio_ReadOffsetHighPriority)
00000000  global    Csm_Dio_ReadOffsetLowPriority (.CSM_CODE:Csm_Dio_ReadOffsetLowPriority)
00000000  global    Csm_Dio_ReadPort (.CSM_CODE:Csm_Dio_ReadPort)
000a11c0  global    Csm_Dio_WriteChannel (.CSM_CODE:Csm_Dio_WriteChannel)
00000000  global    Csm_Dio_WriteChannelGroup (.CSM_CODE:Csm_Dio_WriteChannelGroup)
00000000  global    Csm_Dio_WritePort (.CSM_CODE:Csm_Dio_WritePort)
080380a4  local     csm_dio_configPtr (.CSM_VAR_ZERO_INIT_UNSPECIFIED)


================================================================================

ttc500.lib : drv_Csm_Esm.obj

Run/Load            
Value     Binding   Name (Section)
--------  --------  ---------------
000ae184  local     $C$L1 (.CSM_CODE:Csm_Esm_StoreResetCause)
000a1f20  local     $C$L10 (.CSM_CODE:Csm_Esm_IntEnable)
000a1f30  local     $C$L11 (.CSM_CODE:Csm_Esm_IntEnable)
000a1f80  local     $C$L12 (.CSM_CODE:Csm_Esm_IntPriority)
000a1fa0  local     $C$L13 (.CSM_CODE:Csm_Esm_IntPriority)
000a1fc0  local     $C$L14 (.CSM_CODE:Csm_Esm_IntPriority)
000a1fd0  local     $C$L15 (.CSM_CODE:Csm_Esm_IntPriority)
000a2050  local     $C$L16 (.CSM_CODE:Csm_Esm_CheckStartParameters)
000a20d4  local     $C$L17 (.CSM_CODE:Csm_Esm_CheckStartParameters)
000a2110  local     $C$L18 (.CSM_CODE:Csm_Esm_CheckStartParameters)
000a2120  local     $C$L19 (.CSM_CODE:Csm_Esm_CheckStartParameters)
000a2444  local     $C$L2 (.CSM_CODE:Csm_Esm_StopTest)
000a2138  local     $C$L20 (.CSM_CODE:Csm_Esm_CheckStartParameters)
000a213c  local     $C$L21 (.CSM_CODE:Csm_Esm_CheckStartParameters)
000a2204  local     $C$L22 (.CSM_CODE:Csm_Esm_StartTest)
000a220c  local     $C$L23 (.CSM_CODE:Csm_Esm_StartTest)
000a2214  local     $C$L24 (.CSM_CODE:Csm_Esm_StartTest)
00000020  local     $C$L25 (.CSM_CODE:Csm_Esm_SetErrorPinAction)
00000030  local     $C$L26 (.CSM_CODE:Csm_Esm_SetErrorPinAction)
00000040  local     $C$L27 (.CSM_CODE:Csm_Esm_SetErrorPinAction)
000ad3c0  local     $C$L28 (.CSM_CODE:Csm_Esm_ReadBackCfg)
000ad3c8  local     $C$L29 (.CSM_CODE:Csm_Esm_ReadBackCfg)
000a1aa0  local     $C$L3 (.CSM_CODE:Csm_Esm_ErrorFlags)
000ae280  local     $C$L30 (.CSM_CODE:Csm_Esm_GetCategoryAndMask)
000ae2a0  local     $C$L31 (.CSM_CODE:Csm_Esm_GetCategoryAndMask)
000ae2c0  local     $C$L32 (.CSM_CODE:Csm_Esm_GetCategoryAndMask)
000ae714  local     $C$L33 (.CSM_CODE:Csm_Esm_CheckIntLoCrossover)
000ae748  local     $C$L34 (.CSM_CODE:Csm_Esm_CheckIntLoCrossover)
000ae750  local     $C$L35 (.CSM_CODE:Csm_Esm_CheckIntLoCrossover)
000ae754  local     $C$L36 (.CSM_CODE:Csm_Esm_CheckIntLoCrossover)
000ae758  local     $C$L37 (.CSM_CODE:Csm_Esm_CheckIntLoCrossover)
000a2260  local     $C$L38 (.CSM_CODE:Csm_Esm_ClearErrorFlags)
000a2270  local     $C$L39 (.CSM_CODE:Csm_Esm_ClearErrorFlags)
000a1ac0  local     $C$L4 (.CSM_CODE:Csm_Esm_ErrorFlags)
000a227c  local     $C$L40 (.CSM_CODE:Csm_Esm_ClearErrorFlags)
000a2290  local     $C$L41 (.CSM_CODE:Csm_Esm_ClearErrorFlags)
000a22a0  local     $C$L42 (.CSM_CODE:Csm_Esm_ClearErrorFlags)
000ae3e0  local     $C$L43 (.CSM_CODE:Csm_Esm_GetErrorPinAction)
000ae400  local     $C$L44 (.CSM_CODE:Csm_Esm_GetErrorPinAction)
000ae414  local     $C$L45 (.CSM_CODE:Csm_Esm_GetErrorPinAction)
000ab8b8  local     $C$L46 (.CSM_CODE:Csm_Esm_ForceErrorPinState)
000ab8d0  local     $C$L47 (.CSM_CODE:Csm_Esm_ForceErrorPinState)
000ab908  local     $C$L48 (.CSM_CODE:Csm_Esm_ForceErrorPinState)
000ab910  local     $C$L49 (.CSM_CODE:Csm_Esm_ForceErrorPinState)
000a1ad0  local     $C$L5 (.CSM_CODE:Csm_Esm_ErrorFlags)
000ab918  local     $C$L50 (.CSM_CODE:Csm_Esm_ForceErrorPinState)
000ab91c  local     $C$L51 (.CSM_CODE:Csm_Esm_ForceErrorPinState)
000ae1a0  local     $C$L52 (.CSM_CODE:Csm_Esm_ForceErrorEndlessLoop)
000ae7d4  local     $C$L53 (.CSM_CODE:Csm_Esm_LowLevel)
000ae850  local     $C$L54 (.CSM_CODE:Csm_Esm_LowLevel)
000ae8b0  local     $C$L55 (.CSM_CODE:Csm_Esm_LowLevel)
000ae8ec  local     $C$L56 (.CSM_CODE:Csm_Esm_LowLevel)
000ae920  local     $C$L57 (.CSM_CODE:Csm_Esm_LowLevel)
000ae944  local     $C$L58 (.CSM_CODE:Csm_Esm_LowLevel)
000ae94c  local     $C$L59 (.CSM_CODE:Csm_Esm_LowLevel)
000a1af0  local     $C$L6 (.CSM_CODE:Csm_Esm_ErrorFlags)
000ae950  local     $C$L60 (.CSM_CODE:Csm_Esm_LowLevel)
000ae328  local     $C$L61 (.CSM_CODE:Csm_Esm_CheckIntHiCrossover)
000ae35c  local     $C$L62 (.CSM_CODE:Csm_Esm_CheckIntHiCrossover)
000ae390  local     $C$L63 (.CSM_CODE:Csm_Esm_CheckIntHiCrossover)
000ae398  local     $C$L64 (.CSM_CODE:Csm_Esm_CheckIntHiCrossover)
000ae39c  local     $C$L65 (.CSM_CODE:Csm_Esm_CheckIntHiCrossover)
000ae3a0  local     $C$L66 (.CSM_CODE:Csm_Esm_CheckIntHiCrossover)
000ae3a4  local     $C$L67 (.CSM_CODE:Csm_Esm_CheckIntHiCrossover)
000ae4b8  local     $C$L68 (.CSM_CODE:Csm_Esm_HighLevel)
000ae4f0  local     $C$L69 (.CSM_CODE:Csm_Esm_HighLevel)
000a1b04  local     $C$L7 (.CSM_CODE:Csm_Esm_ErrorFlags)
000ae514  local     $C$L70 (.CSM_CODE:Csm_Esm_HighLevel)
000ae570  local     $C$L71 (.CSM_CODE:Csm_Esm_HighLevel)
000ae574  local     $C$L72 (.CSM_CODE:Csm_Esm_HighLevel)
000ae5dc  local     $C$L73 (.CSM_CODE:Csm_Esm_HighLevel)
000ae5e0  local     $C$L74 (.CSM_CODE:Csm_Esm_HighLevel)
000ae62c  local     $C$L75 (.CSM_CODE:Csm_Esm_HighLevel)
000ae630  local     $C$L76 (.CSM_CODE:Csm_Esm_HighLevel)
000ae638  local     $C$L77 (.CSM_CODE:Csm_Esm_HighLevel)
000ae658  local     $C$L78 (.CSM_CODE:Csm_Esm_HighLevel)
000ae65c  local     $C$L79 (.CSM_CODE:Csm_Esm_HighLevel)
000a1ee0  local     $C$L8 (.CSM_CODE:Csm_Esm_IntEnable)
000ae66c  local     $C$L80 (.CSM_CODE:Csm_Esm_HighLevel)
000ae694  local     $C$L81 (.CSM_CODE:Csm_Esm_HighLevel)
000ae6a0  local     $C$L82 (.CSM_CODE:Csm_Esm_HighLevel)
000ae6a8  local     $C$L83 (.CSM_CODE:Csm_Esm_HighLevel)
000ae6ac  local     $C$L84 (.CSM_CODE:Csm_Esm_HighLevel)
000a2330  local     $C$L85 (.CSM_CODE:Csm_Esm_GetTestResultsSupport)
000a2364  local     $C$L86 (.CSM_CODE:Csm_Esm_GetTestResultsSupport)
000a2378  local     $C$L87 (.CSM_CODE:Csm_Esm_GetTestResultsSupport)
000a23ec  local     $C$L88 (.CSM_CODE:Csm_Esm_GetTestResults)
000a23f4  local     $C$L89 (.CSM_CODE:Csm_Esm_GetTestResults)
000a1f00  local     $C$L9 (.CSM_CODE:Csm_Esm_IntEnable)
000aad40  local     $C$L90 (.CSM_CODE:Csm_Esm_GetResetCause)
00000020  local     $C$L91 (.CSM_CODE:Csm_Esm_ClearErrorPinAction)
00000030  local     $C$L92 (.CSM_CODE:Csm_Esm_ClearErrorPinAction)
00000040  local     $C$L93 (.CSM_CODE:Csm_Esm_ClearErrorPinAction)
000aac90  local     $a (.CSM_CODE:Csm_Esm_CalcChecksum)
000ae120  local     $a (.CSM_CODE:Csm_Esm_StoreResetCause)
000a1cb0  local     $a (.CSM_CODE:Csm_Esm_TestParamToDefault)
000a2400  local     $a (.CSM_CODE:Csm_Esm_StopTest)
000a1a50  local     $a (.CSM_CODE:Csm_Esm_ErrorFlags)
000a1ea0  local     $a (.CSM_CODE:Csm_Esm_IntEnable)
000a1f40  local     $a (.CSM_CODE:Csm_Esm_IntPriority)
000a1fe0  local     $a (.CSM_CODE:Csm_Esm_CheckStartParameters)
000a2160  local     $a (.CSM_CODE:Csm_Esm_StartTest)
00000000  local     $a (.CSM_CODE:Csm_Esm_SetErrorPinAction)
00000000  local     $a (.CSM_CODE:Csm_Esm_SetCounterPreload)
000a1d00  local     $a (.CSM_CODE:Csm_Esm_RequestClearErrorPin)
00000000  local     $a (.CSM_CODE:Csm_Esm_ReadShadowFlags)
000ad300  local     $a (.CSM_CODE:Csm_Esm_ReadBackCfg)
000ae230  local     $a (.CSM_CODE:Csm_Esm_GetCategoryAndMask)
000ae6b0  local     $a (.CSM_CODE:Csm_Esm_CheckIntLoCrossover)
000a2220  local     $a (.CSM_CODE:Csm_Esm_ClearErrorFlags)
000ae3b0  local     $a (.CSM_CODE:Csm_Esm_GetErrorPinAction)
000ab870  local     $a (.CSM_CODE:Csm_Esm_ForceErrorPinState)
000a1c70  local     $a (.CSM_CODE:Csm_Esm_GetErrorPin)
000ae190  local     $a (.CSM_CODE:Csm_Esm_ForceErrorEndlessLoop)
000ae760  local     $a (.CSM_CODE:Csm_Esm_LowLevel)
00000000  local     $a (.CSM_CODE:Csm_Esm_LowLevel_ISR)
00000000  local     $a (.CSM_CODE:Csm_Esm_IsErrorPinForced)
000a1d40  local     $a (.CSM_CODE:Csm_Esm_Init)
000ae2e0  local     $a (.CSM_CODE:Csm_Esm_CheckIntHiCrossover)
000ae420  local     $a (.CSM_CODE:Csm_Esm_HighLevel)
00000000  local     $a (.CSM_CODE:Csm_Esm_HighLevel_ISR)
00000000  local     $a (.CSM_CODE:Csm_Esm_GetVersionInfo)
000a22b0  local     $a (.CSM_CODE:Csm_Esm_GetTestResultsSupport)
000a2380  local     $a (.CSM_CODE:Csm_Esm_GetTestResults)
000aacc0  local     $a (.CSM_CODE:Csm_Esm_GetResetCause)
000a1c90  local     $a (.CSM_CODE:Csm_Esm_GetErrorKey)
00000000  local     $a (.CSM_CODE:Csm_Esm_GetCounterPreload)
00000000  local     $a (.CSM_CODE:Csm_Esm_ClearErrorPinAction)
000aac90  local     .CSM_CODE:Csm_Esm_CalcChecksum (.CSM_CODE:Csm_Esm_CalcChecksum)
000ae2e0  local     .CSM_CODE:Csm_Esm_CheckIntHiCrossover (.CSM_CODE:Csm_Esm_CheckIntHiCrossover)
000ae6b0  local     .CSM_CODE:Csm_Esm_CheckIntLoCrossover (.CSM_CODE:Csm_Esm_CheckIntLoCrossover)
000a1fe0  local     .CSM_CODE:Csm_Esm_CheckStartParameters (.CSM_CODE:Csm_Esm_CheckStartParameters)
000a2220  local     .CSM_CODE:Csm_Esm_ClearErrorFlags (.CSM_CODE:Csm_Esm_ClearErrorFlags)
00000000  local     .CSM_CODE:Csm_Esm_ClearErrorPinAction (.CSM_CODE:Csm_Esm_ClearErrorPinAction)
000a1a50  local     .CSM_CODE:Csm_Esm_ErrorFlags (.CSM_CODE:Csm_Esm_ErrorFlags)
000ae190  local     .CSM_CODE:Csm_Esm_ForceErrorEndlessLoop (.CSM_CODE:Csm_Esm_ForceErrorEndlessLoop)
000ab870  local     .CSM_CODE:Csm_Esm_ForceErrorPinState (.CSM_CODE:Csm_Esm_ForceErrorPinState)
000ae230  local     .CSM_CODE:Csm_Esm_GetCategoryAndMask (.CSM_CODE:Csm_Esm_GetCategoryAndMask)
00000000  local     .CSM_CODE:Csm_Esm_GetCounterPreload (.CSM_CODE:Csm_Esm_GetCounterPreload)
000a1c90  local     .CSM_CODE:Csm_Esm_GetErrorKey (.CSM_CODE:Csm_Esm_GetErrorKey)
000a1c70  local     .CSM_CODE:Csm_Esm_GetErrorPin (.CSM_CODE:Csm_Esm_GetErrorPin)
000ae3b0  local     .CSM_CODE:Csm_Esm_GetErrorPinAction (.CSM_CODE:Csm_Esm_GetErrorPinAction)
000aacc0  local     .CSM_CODE:Csm_Esm_GetResetCause (.CSM_CODE:Csm_Esm_GetResetCause)
000a2380  local     .CSM_CODE:Csm_Esm_GetTestResults (.CSM_CODE:Csm_Esm_GetTestResults)
000a22b0  local     .CSM_CODE:Csm_Esm_GetTestResultsSupport (.CSM_CODE:Csm_Esm_GetTestResultsSupport)
00000000  local     .CSM_CODE:Csm_Esm_GetVersionInfo (.CSM_CODE:Csm_Esm_GetVersionInfo)
000ae420  local     .CSM_CODE:Csm_Esm_HighLevel (.CSM_CODE:Csm_Esm_HighLevel)
00000000  local     .CSM_CODE:Csm_Esm_HighLevel_ISR (.CSM_CODE:Csm_Esm_HighLevel_ISR)
000a1d40  local     .CSM_CODE:Csm_Esm_Init (.CSM_CODE:Csm_Esm_Init)
000a1ea0  local     .CSM_CODE:Csm_Esm_IntEnable (.CSM_CODE:Csm_Esm_IntEnable)
000a1f40  local     .CSM_CODE:Csm_Esm_IntPriority (.CSM_CODE:Csm_Esm_IntPriority)
00000000  local     .CSM_CODE:Csm_Esm_IsErrorPinForced (.CSM_CODE:Csm_Esm_IsErrorPinForced)
000ae760  local     .CSM_CODE:Csm_Esm_LowLevel (.CSM_CODE:Csm_Esm_LowLevel)
00000000  local     .CSM_CODE:Csm_Esm_LowLevel_ISR (.CSM_CODE:Csm_Esm_LowLevel_ISR)
000ad300  local     .CSM_CODE:Csm_Esm_ReadBackCfg (.CSM_CODE:Csm_Esm_ReadBackCfg)
00000000  local     .CSM_CODE:Csm_Esm_ReadShadowFlags (.CSM_CODE:Csm_Esm_ReadShadowFlags)
000a1d00  local     .CSM_CODE:Csm_Esm_RequestClearErrorPin (.CSM_CODE:Csm_Esm_RequestClearErrorPin)
00000000  local     .CSM_CODE:Csm_Esm_SetCounterPreload (.CSM_CODE:Csm_Esm_SetCounterPreload)
00000000  local     .CSM_CODE:Csm_Esm_SetErrorPinAction (.CSM_CODE:Csm_Esm_SetErrorPinAction)
000a2160  local     .CSM_CODE:Csm_Esm_StartTest (.CSM_CODE:Csm_Esm_StartTest)
000a2400  local     .CSM_CODE:Csm_Esm_StopTest (.CSM_CODE:Csm_Esm_StopTest)
000ae120  local     .CSM_CODE:Csm_Esm_StoreResetCause (.CSM_CODE:Csm_Esm_StoreResetCause)
000a1cb0  local     .CSM_CODE:Csm_Esm_TestParamToDefault (.CSM_CODE:Csm_Esm_TestParamToDefault)
08038034  local     .CSM_VAR_ZERO_INIT_UNSPECIFIED (.CSM_VAR_ZERO_INIT_UNSPECIFIED)
00000000  local     .text (.text)
000aac90  local     Csm_Esm_CalcChecksum (.CSM_CODE:Csm_Esm_CalcChecksum)
000ae2e0  local     Csm_Esm_CheckIntHiCrossover (.CSM_CODE:Csm_Esm_CheckIntHiCrossover)
000ae6b0  local     Csm_Esm_CheckIntLoCrossover (.CSM_CODE:Csm_Esm_CheckIntLoCrossover)
000a1fe0  local     Csm_Esm_CheckStartParameters (.CSM_CODE:Csm_Esm_CheckStartParameters)
000a2220  global    Csm_Esm_ClearErrorFlags (.CSM_CODE:Csm_Esm_ClearErrorFlags)
00000000  global    Csm_Esm_ClearErrorPinAction (.CSM_CODE:Csm_Esm_ClearErrorPinAction)
000a1a50  global    Csm_Esm_ErrorFlags (.CSM_CODE:Csm_Esm_ErrorFlags)
000ae190  global    Csm_Esm_ForceErrorEndlessLoop (.CSM_CODE:Csm_Esm_ForceErrorEndlessLoop)
000ab870  global    Csm_Esm_ForceErrorPinState (.CSM_CODE:Csm_Esm_ForceErrorPinState)
000ae230  local     Csm_Esm_GetCategoryAndMask (.CSM_CODE:Csm_Esm_GetCategoryAndMask)
00000000  global    Csm_Esm_GetCounterPreload (.CSM_CODE:Csm_Esm_GetCounterPreload)
000a1c90  global    Csm_Esm_GetErrorKey (.CSM_CODE:Csm_Esm_GetErrorKey)
000a1c70  global    Csm_Esm_GetErrorPin (.CSM_CODE:Csm_Esm_GetErrorPin)
000ae3b0  global    Csm_Esm_GetErrorPinAction (.CSM_CODE:Csm_Esm_GetErrorPinAction)
000aacc0  global    Csm_Esm_GetResetCause (.CSM_CODE:Csm_Esm_GetResetCause)
000a2380  global    Csm_Esm_GetTestResults (.CSM_CODE:Csm_Esm_GetTestResults)
000a22b0  local     Csm_Esm_GetTestResultsSupport (.CSM_CODE:Csm_Esm_GetTestResultsSupport)
00000000  global    Csm_Esm_GetVersionInfo (.CSM_CODE:Csm_Esm_GetVersionInfo)
000ae420  global    Csm_Esm_HighLevel (.CSM_CODE:Csm_Esm_HighLevel)
00000000  global    Csm_Esm_HighLevel_ISR (.CSM_CODE:Csm_Esm_HighLevel_ISR)
000a1d40  global    Csm_Esm_Init (.CSM_CODE:Csm_Esm_Init)
000a1ea0  global    Csm_Esm_IntEnable (.CSM_CODE:Csm_Esm_IntEnable)
000a1f40  global    Csm_Esm_IntPriority (.CSM_CODE:Csm_Esm_IntPriority)
00000000  global    Csm_Esm_IsErrorPinForced (.CSM_CODE:Csm_Esm_IsErrorPinForced)
000ae760  global    Csm_Esm_LowLevel (.CSM_CODE:Csm_Esm_LowLevel)
00000000  global    Csm_Esm_LowLevel_ISR (.CSM_CODE:Csm_Esm_LowLevel_ISR)
000ad300  global    Csm_Esm_ReadBackCfg (.CSM_CODE:Csm_Esm_ReadBackCfg)
00000000  global    Csm_Esm_ReadShadowFlags (.CSM_CODE:Csm_Esm_ReadShadowFlags)
000a1d00  global    Csm_Esm_RequestClearErrorPin (.CSM_CODE:Csm_Esm_RequestClearErrorPin)
00000000  global    Csm_Esm_SetCounterPreload (.CSM_CODE:Csm_Esm_SetCounterPreload)
00000000  global    Csm_Esm_SetErrorPinAction (.CSM_CODE:Csm_Esm_SetErrorPinAction)
000a2160  global    Csm_Esm_StartTest (.CSM_CODE:Csm_Esm_StartTest)
000a2400  global    Csm_Esm_StopTest (.CSM_CODE:Csm_Esm_StopTest)
000ae120  global    Csm_Esm_StoreResetCause (.CSM_CODE:Csm_Esm_StoreResetCause)
000a1cb0  local     Csm_Esm_TestParamToDefault (.CSM_CODE:Csm_Esm_TestParamToDefault)
08038038  local     ErrorTest (.CSM_VAR_ZERO_INIT_UNSPECIFIED)
08038034  local     csm_esm_configPtr (.CSM_VAR_ZERO_INIT_UNSPECIFIED)


================================================================================

ttc500.lib : drv_asm_Csm_Mcu_Core.obj

Run/Load            
Value     Binding   Name (Section)
--------  --------  ---------------
000a0e68  local     $a (.CSM_CODE:Csm_Mcu_InitCore)
000a05cc  local     $a (.CSM_CODE:Csm_Mcu_SystemInit)
000a0504  local     $a (.CSM_CODE:Csm_Mcu_CountClocks_Asm)
000a09e8  local     $a (.CSM_CODE:Csm_Mcu_Errata_CORTEXR4_66)
000a0130  local     $a (.CSM_CODE:Csm_Mcu_InitStackPointers)
000a0100  local     $a (.CSM_CODE:Csm_Mcu_EnableFpu)
000af308  local     $a (.CSM_CODE:Csm_Mcu_GetFpuExceptionFlags)
00000000  local     $a (.CSM_CODE:Csm_Mcu_SetEnabledFpuExceptions)
00000000  local     $a (.CSM_CODE:Csm_Mcu_IntDivByZero_Disable)
00000000  local     $a (.CSM_CODE:Csm_Mcu_IntDivByZero_Enable)
000a02a0  local     $a (.CSM_CODE:Csm_Mcu_EnableEventBusExport)
000a02b0  local     $a (.CSM_CODE:Csm_Mcu_DisableEventBusExport)
000a09c0  local     $a (.CSM_CODE:Csm_Mcu_EnableEccRam)
000a09d4  local     $a (.CSM_CODE:Csm_Mcu_DisableEccRam)
000a02c0  local     $a (.CSM_CODE:Csm_Mcu_EnableEccFlash)
000a02d4  local     $a (.CSM_CODE:Csm_Mcu_DisableEccFlash)
00000000  local     $a (.CSM_CODE:Csm_Mcu_SwitchToUserMode)
000a01e0  local     $a (.CSM_CODE:Csm_Mcu_CheckSharedMemory)
000a01b4  local     $a (.CSM_CODE:Csm_Mcu_CalculateSharedMemorySize)
000a08ec  local     $a (.CSM_CODE:Csm_Mcu_CopyMemory)
000a08c8  local     $a (.CSM_CODE:Csm_Mcu_InitSharedMemorySize)
000a0a60  local     $a (.CSM_CODE:Csm_Mcu_InitRamSaveSharedMemory)
000a0924  local     $a (.CSM_CODE:Csm_Mcu_TestRam_TwoSteps)
000a09fc  local     $a (.CSM_CODE:Csm_Mcu_InitRamSectionSW_Asm)
000a0aec  local     $a (.CSM_CODE:Csm_Mcu_InitRamSection_Asm)
000a0890  local     $a (.CSM_CODE:Csm_Mcu_TestPBIST_Asm)
000a0644  local     $a (.CSM_CODE:Csm_Mcu_PBIST_Asm)
000a185c  local     $a (.CSM_CODE:Csm_Mcu_Vim_Enable_HW_Vec_Mode_Asm)
000a1874  local     $a (.CSM_CODE:Csm_Mcu_Vim_Disable_HW_Vec_Mode_Asm)
000ad3cc  local     $a (.CSM_CODE:Csm_Mcu_Vim_Read_HW_Vec_Mode_Asm)
000a2ae0  local     $a (.CSM_CODE:Csm_Mcu_CheckStackPointerSave)
000a2b08  local     $a (.CSM_CODE:Csm_Mcu_StackPointerSave)
000a0df0  local     $d (.CSM_CODE:Csm_Mcu_InitCore)
000a0118  local     $d (.CSM_CODE:Csm_Mcu_InitStackPointers)
000a01cc  local     $d (.CSM_CODE:Csm_Mcu_CheckSharedMemory)
000a01ac  local     $d (.CSM_CODE:Csm_Mcu_CalculateSharedMemorySize)
000a0a54  local     $d (.CSM_CODE:Csm_Mcu_InitRamSaveSharedMemory)
000a0910  local     $d (.CSM_CODE:Csm_Mcu_TestRam_TwoSteps)
000a0ae0  local     $d (.CSM_CODE:Csm_Mcu_InitRamSection_Asm)
000a0624  local     $d (.CSM_CODE:Csm_Mcu_PBIST_Asm)
000a2b00  local     $d (.CSM_CODE:Csm_Mcu_StackPointerSave)
000a39d8  local     $d (.CSM_CODE:Csm_Mcu_StackPointerSave)
000a01ac  local     .CSM_CODE:Csm_Mcu_CalculateSharedMemorySize (.CSM_CODE:Csm_Mcu_CalculateSharedMemorySize)
000a01cc  local     .CSM_CODE:Csm_Mcu_CheckSharedMemory (.CSM_CODE:Csm_Mcu_CheckSharedMemory)
000a2ae0  local     .CSM_CODE:Csm_Mcu_CheckStackPointerSave (.CSM_CODE:Csm_Mcu_CheckStackPointerSave)
000a08ec  local     .CSM_CODE:Csm_Mcu_CopyMemory (.CSM_CODE:Csm_Mcu_CopyMemory)
000a0504  local     .CSM_CODE:Csm_Mcu_CountClocks_Asm (.CSM_CODE:Csm_Mcu_CountClocks_Asm)
000a02d4  local     .CSM_CODE:Csm_Mcu_DisableEccFlash (.CSM_CODE:Csm_Mcu_DisableEccFlash)
000a09d4  local     .CSM_CODE:Csm_Mcu_DisableEccRam (.CSM_CODE:Csm_Mcu_DisableEccRam)
000a02b0  local     .CSM_CODE:Csm_Mcu_DisableEventBusExport (.CSM_CODE:Csm_Mcu_DisableEventBusExport)
000a02c0  local     .CSM_CODE:Csm_Mcu_EnableEccFlash (.CSM_CODE:Csm_Mcu_EnableEccFlash)
000a09c0  local     .CSM_CODE:Csm_Mcu_EnableEccRam (.CSM_CODE:Csm_Mcu_EnableEccRam)
000a02a0  local     .CSM_CODE:Csm_Mcu_EnableEventBusExport (.CSM_CODE:Csm_Mcu_EnableEventBusExport)
000a0100  local     .CSM_CODE:Csm_Mcu_EnableFpu (.CSM_CODE:Csm_Mcu_EnableFpu)
000a09e8  local     .CSM_CODE:Csm_Mcu_Errata_CORTEXR4_66 (.CSM_CODE:Csm_Mcu_Errata_CORTEXR4_66)
000af308  local     .CSM_CODE:Csm_Mcu_GetFpuExceptionFlags (.CSM_CODE:Csm_Mcu_GetFpuExceptionFlags)
000a0df0  local     .CSM_CODE:Csm_Mcu_InitCore (.CSM_CODE:Csm_Mcu_InitCore)
000a0a54  local     .CSM_CODE:Csm_Mcu_InitRamSaveSharedMemory (.CSM_CODE:Csm_Mcu_InitRamSaveSharedMemory)
000a09fc  local     .CSM_CODE:Csm_Mcu_InitRamSectionSW_Asm (.CSM_CODE:Csm_Mcu_InitRamSectionSW_Asm)
000a0ae0  local     .CSM_CODE:Csm_Mcu_InitRamSection_Asm (.CSM_CODE:Csm_Mcu_InitRamSection_Asm)
000a08c8  local     .CSM_CODE:Csm_Mcu_InitSharedMemorySize (.CSM_CODE:Csm_Mcu_InitSharedMemorySize)
000a0118  local     .CSM_CODE:Csm_Mcu_InitStackPointers (.CSM_CODE:Csm_Mcu_InitStackPointers)
00000000  local     .CSM_CODE:Csm_Mcu_IntDivByZero_Disable (.CSM_CODE:Csm_Mcu_IntDivByZero_Disable)
00000000  local     .CSM_CODE:Csm_Mcu_IntDivByZero_Enable (.CSM_CODE:Csm_Mcu_IntDivByZero_Enable)
000a0624  local     .CSM_CODE:Csm_Mcu_PBIST_Asm (.CSM_CODE:Csm_Mcu_PBIST_Asm)
00000000  local     .CSM_CODE:Csm_Mcu_SetEnabledFpuExceptions (.CSM_CODE:Csm_Mcu_SetEnabledFpuExceptions)
000a2b00  local     .CSM_CODE:Csm_Mcu_StackPointerSave (.CSM_CODE:Csm_Mcu_StackPointerSave)
00000000  local     .CSM_CODE:Csm_Mcu_SwitchToUserMode (.CSM_CODE:Csm_Mcu_SwitchToUserMode)
000a05cc  local     .CSM_CODE:Csm_Mcu_SystemInit (.CSM_CODE:Csm_Mcu_SystemInit)
000a0890  local     .CSM_CODE:Csm_Mcu_TestPBIST_Asm (.CSM_CODE:Csm_Mcu_TestPBIST_Asm)
000a0910  local     .CSM_CODE:Csm_Mcu_TestRam_TwoSteps (.CSM_CODE:Csm_Mcu_TestRam_TwoSteps)
000a1874  local     .CSM_CODE:Csm_Mcu_Vim_Disable_HW_Vec_Mode_Asm (.CSM_CODE:Csm_Mcu_Vim_Disable_HW_Vec_Mode_Asm)
000a185c  local     .CSM_CODE:Csm_Mcu_Vim_Enable_HW_Vec_Mode_Asm (.CSM_CODE:Csm_Mcu_Vim_Enable_HW_Vec_Mode_Asm)
000ad3cc  local     .CSM_CODE:Csm_Mcu_Vim_Read_HW_Vec_Mode_Asm (.CSM_CODE:Csm_Mcu_Vim_Read_HW_Vec_Mode_Asm)
00000000  local     .text (.text)
000a0518  local     AllCyclesCounted (.CSM_CODE:Csm_Mcu_CountClocks_Asm)
000a023c  local     CheckAlign (.CSM_CODE:Csm_Mcu_CheckSharedMemory)
000a029c  local     CheckFinish (.CSM_CODE:Csm_Mcu_CheckSharedMemory)
000a024c  local     CheckFitsSection (.CSM_CODE:Csm_Mcu_CheckSharedMemory)
000a118c  local     CheckRamInitResult (.CSM_CODE:Csm_Mcu_InitCore)
000a2afc  local     CheckStackPointerSave_finish (.CSM_CODE:Csm_Mcu_CheckStackPointerSave)
000a0fe4  local     Check_CpuSelftTest (.CSM_CODE:Csm_Mcu_InitCore)
000a090c  local     Copy_Finish (.CSM_CODE:Csm_Mcu_CopyMemory)
000a11b8  local     CoreInitFinish (.CSM_CODE:Csm_Mcu_InitCore)
000a01b0  local     CosmoSharedMemSize (.CSM_CODE:Csm_Mcu_CalculateSharedMemorySize)
000a01d0  local     CosmoSharedMemSize_check (.CSM_CODE:Csm_Mcu_CheckSharedMemory)
000a0508  local     CountCyle (.CSM_CODE:Csm_Mcu_CountClocks_Asm)
000a0e60  local     CpuSelfTestoffset (.CSM_CODE:Csm_Mcu_InitCore)
000a01b4  global    Csm_Mcu_CalculateSharedMemorySize (.CSM_CODE:Csm_Mcu_CalculateSharedMemorySize)
000a01e0  global    Csm_Mcu_CheckSharedMemory (.CSM_CODE:Csm_Mcu_CheckSharedMemory)
000a2ae0  global    Csm_Mcu_CheckStackPointerSave (.CSM_CODE:Csm_Mcu_CheckStackPointerSave)
000a08ec  global    Csm_Mcu_CopyMemory (.CSM_CODE:Csm_Mcu_CopyMemory)
000a0504  global    Csm_Mcu_CountClocks_Asm (.CSM_CODE:Csm_Mcu_CountClocks_Asm)
000a02d4  global    Csm_Mcu_DisableEccFlash (.CSM_CODE:Csm_Mcu_DisableEccFlash)
000a09d4  global    Csm_Mcu_DisableEccRam (.CSM_CODE:Csm_Mcu_DisableEccRam)
000a02b0  global    Csm_Mcu_DisableEventBusExport (.CSM_CODE:Csm_Mcu_DisableEventBusExport)
000a02c0  global    Csm_Mcu_EnableEccFlash (.CSM_CODE:Csm_Mcu_EnableEccFlash)
000a09c0  global    Csm_Mcu_EnableEccRam (.CSM_CODE:Csm_Mcu_EnableEccRam)
000a02a0  global    Csm_Mcu_EnableEventBusExport (.CSM_CODE:Csm_Mcu_EnableEventBusExport)
000a0100  global    Csm_Mcu_EnableFpu (.CSM_CODE:Csm_Mcu_EnableFpu)
000a09e8  global    Csm_Mcu_Errata_CORTEXR4_66 (.CSM_CODE:Csm_Mcu_Errata_CORTEXR4_66)
000a3730  local     Csm_Mcu_FPU_Skip_Restore (.CSM_CODE:Csm_Mcu_StackPointerSave)
000a3030  local     Csm_Mcu_FPU_Skip_Save (.CSM_CODE:Csm_Mcu_StackPointerSave)
000af34c  local     Csm_Mcu_FPU_finish (.CSM_CODE:Csm_Mcu_GetFpuExceptionFlags)
000af308  global    Csm_Mcu_GetFpuExceptionFlags (.CSM_CODE:Csm_Mcu_GetFpuExceptionFlags)
000a0e68  global    Csm_Mcu_InitCore (.CSM_CODE:Csm_Mcu_InitCore)
000a0a60  global    Csm_Mcu_InitRamSaveSharedMemory (.CSM_CODE:Csm_Mcu_InitRamSaveSharedMemory)
000a09fc  global    Csm_Mcu_InitRamSectionSW_Asm (.CSM_CODE:Csm_Mcu_InitRamSectionSW_Asm)
000a0aec  global    Csm_Mcu_InitRamSection_Asm (.CSM_CODE:Csm_Mcu_InitRamSection_Asm)
000a08c8  global    Csm_Mcu_InitSharedMemorySize (.CSM_CODE:Csm_Mcu_InitSharedMemorySize)
000a0130  global    Csm_Mcu_InitStackPointers (.CSM_CODE:Csm_Mcu_InitStackPointers)
00000000  global    Csm_Mcu_IntDivByZero_Disable (.CSM_CODE:Csm_Mcu_IntDivByZero_Disable)
00000000  global    Csm_Mcu_IntDivByZero_Enable (.CSM_CODE:Csm_Mcu_IntDivByZero_Enable)
000a0644  global    Csm_Mcu_PBIST_Asm (.CSM_CODE:Csm_Mcu_PBIST_Asm)
00000000  global    Csm_Mcu_SetEnabledFpuExceptions (.CSM_CODE:Csm_Mcu_SetEnabledFpuExceptions)
000a39b0  local     Csm_Mcu_Skip_Lock (.CSM_CODE:Csm_Mcu_StackPointerSave)
000a3220  global    Csm_Mcu_StackPointerRestore (.CSM_CODE:Csm_Mcu_StackPointerSave)
000a2b08  global    Csm_Mcu_StackPointerSave (.CSM_CODE:Csm_Mcu_StackPointerSave)
00000000  global    Csm_Mcu_SwitchToUserMode (.CSM_CODE:Csm_Mcu_SwitchToUserMode)
000a05cc  global    Csm_Mcu_SystemInit (.CSM_CODE:Csm_Mcu_SystemInit)
000a0890  global    Csm_Mcu_TestPBIST_Asm (.CSM_CODE:Csm_Mcu_TestPBIST_Asm)
000a0924  global    Csm_Mcu_TestRam_TwoSteps (.CSM_CODE:Csm_Mcu_TestRam_TwoSteps)
000a1874  global    Csm_Mcu_Vim_Disable_HW_Vec_Mode_Asm (.CSM_CODE:Csm_Mcu_Vim_Disable_HW_Vec_Mode_Asm)
000a185c  global    Csm_Mcu_Vim_Enable_HW_Vec_Mode_Asm (.CSM_CODE:Csm_Mcu_Vim_Enable_HW_Vec_Mode_Asm)
000ad3cc  global    Csm_Mcu_Vim_Read_HW_Vec_Mode_Asm (.CSM_CODE:Csm_Mcu_Vim_Read_HW_Vec_Mode_Asm)
000a2b04  local     DBG_ADDR_MASK (.CSM_CODE:Csm_Mcu_StackPointerSave)
000a10f4  local     DiableFlashECC (.CSM_CODE:Csm_Mcu_InitCore)
000a10d8  local     DisableEventExport (.CSM_CODE:Csm_Mcu_InitCore)
000a115c  local     DisableRamECC (.CSM_CODE:Csm_Mcu_InitCore)
000a0938  local     DoRamTestStep1 (.CSM_CODE:Csm_Mcu_TestRam_TwoSteps)
000a0984  local     DoRamTestStep2 (.CSM_CODE:Csm_Mcu_TestRam_TwoSteps)
000a0e3c  local     ESM3PowerUpError (.CSM_CODE:Csm_Mcu_InitCore)
000a10dc  local     EnableEventExport (.CSM_CODE:Csm_Mcu_InitCore)
000a10f8  local     EnableFlashECC (.CSM_CODE:Csm_Mcu_InitCore)
000a1160  local     EnableRamECC (.CSM_CODE:Csm_Mcu_InitCore)
000a0e30  local     EventExportoffset (.CSM_CODE:Csm_Mcu_InitCore)
000a0e38  local     FlashECCEnableoffset (.CSM_CODE:Csm_Mcu_InitCore)
000a0e64  local     FpuExcMasksOffset (.CSM_CODE:Csm_Mcu_InitCore)
000a1184  local     HW_Ram_Init (.CSM_CODE:Csm_Mcu_InitCore)
000a1000  local     IC_normal (.CSM_CODE:Csm_Mcu_InitCore)
000a0b34  local     IRS_Done (.CSM_CODE:Csm_Mcu_InitRamSection_Asm)
000a0b5c  local     IRS_end (.CSM_CODE:Csm_Mcu_InitRamSection_Asm)
000a0b50  local     IRS_illSection (.CSM_CODE:Csm_Mcu_InitRamSection_Asm)
000a0b58  local     IRS_initfail (.CSM_CODE:Csm_Mcu_InitRamSection_Asm)
000a0b1c  local     IRS_loop (.CSM_CODE:Csm_Mcu_InitRamSection_Asm)
000a08d8  local     InitShared_continue (.CSM_CODE:Csm_Mcu_InitSharedMemorySize)
000a08e8  local     InitShared_end (.CSM_CODE:Csm_Mcu_InitSharedMemorySize)
000a0a04  local     Init_continue (.CSM_CODE:Csm_Mcu_InitRamSectionSW_Asm)
000a0a50  local     Init_end (.CSM_CODE:Csm_Mcu_InitRamSectionSW_Asm)
000a0ae4  local     InitallRamSections (.CSM_CODE:Csm_Mcu_InitRamSection_Asm)
000a2b00  local     LOCK_KEY (.CSM_CODE:Csm_Mcu_StackPointerSave)
000a07f8  local     PBIST_Done (.CSM_CODE:Csm_Mcu_PBIST_Asm)
000a08b8  local     PBIST_End (.CSM_CODE:Csm_Mcu_TestPBIST_Asm)
000a08b4  local     PBIST_Error (.CSM_CODE:Csm_Mcu_TestPBIST_Asm)
000a07b8  local     PBIST_all (.CSM_CODE:Csm_Mcu_PBIST_Asm)
000a0770  local     PBIST_doubleRam (.CSM_CODE:Csm_Mcu_PBIST_Asm)
000a0828  local     PBIST_end (.CSM_CODE:Csm_Mcu_PBIST_Asm)
000a0824  local     PBIST_fail (.CSM_CODE:Csm_Mcu_PBIST_Asm)
000a081c  local     PBIST_illSection (.CSM_CODE:Csm_Mcu_PBIST_Asm)
000a07a8  local     PBIST_jump1 (.CSM_CODE:Csm_Mcu_PBIST_Asm)
000a07c8  local     PBIST_jump2 (.CSM_CODE:Csm_Mcu_PBIST_Asm)
000a07e0  local     PBIST_loop (.CSM_CODE:Csm_Mcu_PBIST_Asm)
000a0784  local     PBIST_rom (.CSM_CODE:Csm_Mcu_PBIST_Asm)
000a0798  local     PBIST_selftest (.CSM_CODE:Csm_Mcu_PBIST_Asm)
000a0628  local     PBISTsystemREG1 (.CSM_CODE:Csm_Mcu_PBIST_Asm)
000a0e34  local     RamECCEnableoffset (.CSM_CODE:Csm_Mcu_InitCore)
000a0ae8  local     RamSectionInitTimeout (.CSM_CODE:Csm_Mcu_InitRamSection_Asm)
000a063c  local     RamSectionTestTimeout (.CSM_CODE:Csm_Mcu_PBIST_Asm)
000a0a54  local     RamStartAddressHalf1 (.CSM_CODE:Csm_Mcu_InitRamSaveSharedMemory)
000a0918  local     RamStartAddressHalf1_test (.CSM_CODE:Csm_Mcu_TestRam_TwoSteps)
000a0a58  local     RamStartAddressHalf2 (.CSM_CODE:Csm_Mcu_InitRamSaveSharedMemory)
000a091c  local     RamStartAddressHalf2_test (.CSM_CODE:Csm_Mcu_TestRam_TwoSteps)
000a0e2c  local     RamTestoffset (.CSM_CODE:Csm_Mcu_InitCore)
000a01d8  local     Ram_Start_FirstHalf_check (.CSM_CODE:Csm_Mcu_CheckSharedMemory)
000a01dc  local     Ram_Start_SecondHalf_check (.CSM_CODE:Csm_Mcu_CheckSharedMemory)
000ad3e0  local     Read_HW_Vec_done (.CSM_CODE:Csm_Mcu_Vim_Read_HW_Vec_Mode_Asm)
0000003c  local     SetEnabledFpuExceptions_finish (.CSM_CODE:Csm_Mcu_SetEnabledFpuExceptions)
000a0a5c  local     SharedMemOffset (.CSM_CODE:Csm_Mcu_InitRamSaveSharedMemory)
000a01d4  local     SharedMemOffset_check (.CSM_CODE:Csm_Mcu_CheckSharedMemory)
000a0920  local     SharedMemOffset_test (.CSM_CODE:Csm_Mcu_TestRam_TwoSteps)
000a0e48  local     SharedMemoryoffset (.CSM_CODE:Csm_Mcu_InitCore)
000a0e44  local     SiliconRevA (.CSM_CODE:Csm_Mcu_InitCore)
000a1080  local     SkipErrata140 (.CSM_CODE:Csm_Mcu_InitCore)
000a1174  local     SkipErrata_66 (.CSM_CODE:Csm_Mcu_InitCore)
000a1068  local     SkipErrorPin (.CSM_CODE:Csm_Mcu_InitCore)
000a1144  local     SkipRamTest (.CSM_CODE:Csm_Mcu_InitCore)
000a10c0  local     SkipSaveEsmResetCause (.CSM_CODE:Csm_Mcu_InitCore)
000a0e5c  local     StcTestoffset (.CSM_CODE:Csm_Mcu_InitCore)
000a0638  local     TestDoubleRamSections (.CSM_CODE:Csm_Mcu_PBIST_Asm)
000a09bc  local     TestRamFinish (.CSM_CODE:Csm_Mcu_TestRam_TwoSteps)
000a0630  local     TestRomSections (.CSM_CODE:Csm_Mcu_PBIST_Asm)
000a0e40  local     TestSRAMSections (.CSM_CODE:Csm_Mcu_InitCore)
000a0910  local     TestSRAMSectionsHalf1 (.CSM_CODE:Csm_Mcu_TestRam_TwoSteps)
000a0914  local     TestSRAMSectionsHalf2 (.CSM_CODE:Csm_Mcu_TestRam_TwoSteps)
000a0634  local     TestSingleRamSections (.CSM_CODE:Csm_Mcu_PBIST_Asm)
000a062c  local     TestallRamSections (.CSM_CODE:Csm_Mcu_PBIST_Asm)
000a01ac  local     UserSharedMemSize (.CSM_CODE:Csm_Mcu_CalculateSharedMemorySize)
000a01cc  local     UserSharedMemorySize (.CSM_CODE:Csm_Mcu_CheckSharedMemory)
000a0298  local     WrongSectionError (.CSM_CODE:Csm_Mcu_CheckSharedMemory)
000a3bbc  local     bcr1_bkup (.CSM_CODE:Csm_Mcu_StackPointerSave)
000a3bc0  local     bcr2_bkup (.CSM_CODE:Csm_Mcu_StackPointerSave)
000a3bc4  local     bcr3_bkup (.CSM_CODE:Csm_Mcu_StackPointerSave)
000a3bc8  local     bcr4_bkup (.CSM_CODE:Csm_Mcu_StackPointerSave)
000a3bcc  local     bcr5_bkup (.CSM_CODE:Csm_Mcu_StackPointerSave)
000a3bd0  local     bcr6_bkup (.CSM_CODE:Csm_Mcu_StackPointerSave)
000a3bd4  local     bcr7_bkup (.CSM_CODE:Csm_Mcu_StackPointerSave)
000a3bd8  local     bcr8_bkup (.CSM_CODE:Csm_Mcu_StackPointerSave)
000a3b9c  local     bvr1_bkup (.CSM_CODE:Csm_Mcu_StackPointerSave)
000a3ba0  local     bvr2_bkup (.CSM_CODE:Csm_Mcu_StackPointerSave)
000a3ba4  local     bvr3_bkup (.CSM_CODE:Csm_Mcu_StackPointerSave)
000a3ba8  local     bvr4_bkup (.CSM_CODE:Csm_Mcu_StackPointerSave)
000a3bac  local     bvr5_bkup (.CSM_CODE:Csm_Mcu_StackPointerSave)
000a3bb0  local     bvr6_bkup (.CSM_CODE:Csm_Mcu_StackPointerSave)
000a3bb4  local     bvr7_bkup (.CSM_CODE:Csm_Mcu_StackPointerSave)
000a3bb8  local     bvr8_bkup (.CSM_CODE:Csm_Mcu_StackPointerSave)
000a0e10  local     ccmr4SR (.CSM_CODE:Csm_Mcu_InitCore)
000a0e28  local     ccmr4_err_clr (.CSM_CODE:Csm_Mcu_InitCore)
000a3b10  local     cp13_fpexc_bkup (.CSM_CODE:Csm_Mcu_StackPointerSave)
000a3b14  local     cp13_fpscr_bkup (.CSM_CODE:Csm_Mcu_StackPointerSave)
000a3a64  local     cp15_c0_2_c0_0_bkup (.CSM_CODE:Csm_Mcu_StackPointerSave)
000a3ad4  local     cp15_c11_0_c0_0_bkup (.CSM_CODE:Csm_Mcu_StackPointerSave)
000a3ad8  local     cp15_c13_0_c0_1_bkup (.CSM_CODE:Csm_Mcu_StackPointerSave)
000a3adc  local     cp15_c13_0_c0_2_bkup (.CSM_CODE:Csm_Mcu_StackPointerSave)
000a3ae0  local     cp15_c13_0_c0_3_bkup (.CSM_CODE:Csm_Mcu_StackPointerSave)
000a3ae4  local     cp15_c13_0_c0_4_bkup (.CSM_CODE:Csm_Mcu_StackPointerSave)
000a3ae8  local     cp15_c15_0_c0_0_bkup (.CSM_CODE:Csm_Mcu_StackPointerSave)
000a3aec  local     cp15_c15_0_c1_0_bkup (.CSM_CODE:Csm_Mcu_StackPointerSave)
000a3af0  local     cp15_c15_0_c1_1_bkup (.CSM_CODE:Csm_Mcu_StackPointerSave)
000a3af4  local     cp15_c15_0_c1_2_bkup (.CSM_CODE:Csm_Mcu_StackPointerSave)
000a3af8  local     cp15_c15_0_c1_3_bkup (.CSM_CODE:Csm_Mcu_StackPointerSave)
000a3afc  local     cp15_c15_0_c1_4_bkup (.CSM_CODE:Csm_Mcu_StackPointerSave)
000a3b00  local     cp15_c15_0_c1_5_bkup (.CSM_CODE:Csm_Mcu_StackPointerSave)
000a3b04  local     cp15_c15_0_c1_6_bkup (.CSM_CODE:Csm_Mcu_StackPointerSave)
000a3b08  local     cp15_c15_0_c1_7_bkup (.CSM_CODE:Csm_Mcu_StackPointerSave)
000a3b0c  local     cp15_c15_0_c3_0_bkup (.CSM_CODE:Csm_Mcu_StackPointerSave)
000a3a68  local     cp15_c1_0_c0_0_bkup (.CSM_CODE:Csm_Mcu_StackPointerSave)
000a3a6c  local     cp15_c1_0_c0_1_bkup (.CSM_CODE:Csm_Mcu_StackPointerSave)
000a3a70  local     cp15_c1_0_c0_2_bkup (.CSM_CODE:Csm_Mcu_StackPointerSave)
000a3a74  local     cp15_c5_0_c0_0_bkup (.CSM_CODE:Csm_Mcu_StackPointerSave)
000a3a78  local     cp15_c5_0_c0_1_bkup (.CSM_CODE:Csm_Mcu_StackPointerSave)
000a3a7c  local     cp15_c5_0_c1_0_bkup (.CSM_CODE:Csm_Mcu_StackPointerSave)
000a3a80  local     cp15_c5_0_c1_1_bkup (.CSM_CODE:Csm_Mcu_StackPointerSave)
000a3a84  local     cp15_c6_0_c0_0_bkup (.CSM_CODE:Csm_Mcu_StackPointerSave)
000a3a88  local     cp15_c6_0_c0_2_bkup (.CSM_CODE:Csm_Mcu_StackPointerSave)
000a3a8c  local     cp15_c6_0_c1_0_bkup (.CSM_CODE:Csm_Mcu_StackPointerSave)
000a3a90  local     cp15_c6_0_c1_2_bkup (.CSM_CODE:Csm_Mcu_StackPointerSave)
000a3a94  local     cp15_c6_0_c1_4_bkup (.CSM_CODE:Csm_Mcu_StackPointerSave)
000a3a98  local     cp15_c6_0_c2_0_bkup (.CSM_CODE:Csm_Mcu_StackPointerSave)
000a3aa8  local     cp15_c9_0_c12_0_bkup (.CSM_CODE:Csm_Mcu_StackPointerSave)
000a3aac  local     cp15_c9_0_c12_1_bkup (.CSM_CODE:Csm_Mcu_StackPointerSave)
000a3ab0  local     cp15_c9_0_c12_2_bkup (.CSM_CODE:Csm_Mcu_StackPointerSave)
000a3ab4  local     cp15_c9_0_c12_3_bkup (.CSM_CODE:Csm_Mcu_StackPointerSave)
000a3ab8  local     cp15_c9_0_c12_5_bkup (.CSM_CODE:Csm_Mcu_StackPointerSave)
000a3abc  local     cp15_c9_0_c13_0_bkup (.CSM_CODE:Csm_Mcu_StackPointerSave)
000a3ac0  local     cp15_c9_0_c13_1_bkup (.CSM_CODE:Csm_Mcu_StackPointerSave)
000a3ac4  local     cp15_c9_0_c13_2_bkup (.CSM_CODE:Csm_Mcu_StackPointerSave)
000a3ac8  local     cp15_c9_0_c14_0_bkup (.CSM_CODE:Csm_Mcu_StackPointerSave)
000a3acc  local     cp15_c9_0_c14_1_bkup (.CSM_CODE:Csm_Mcu_StackPointerSave)
000a3ad0  local     cp15_c9_0_c14_2_bkup (.CSM_CODE:Csm_Mcu_StackPointerSave)
000a3a9c  local     cp15_c9_0_c1_0_bkup (.CSM_CODE:Csm_Mcu_StackPointerSave)
000a3aa0  local     cp15_c9_0_c1_1_bkup (.CSM_CODE:Csm_Mcu_StackPointerSave)
000a3aa4  local     cp15_c9_0_c2_0_bkup (.CSM_CODE:Csm_Mcu_StackPointerSave)
000a3a04  local     cpsrreg_svc_bkup (.CSM_CODE:Csm_Mcu_StackPointerSave)
000a3c28  local     dsccr_bkup (.CSM_CODE:Csm_Mcu_StackPointerSave)
000a3c2c  local     dscr_bkup (.CSM_CODE:Csm_Mcu_StackPointerSave)
000a3c24  local     ecr_bkup (.CSM_CODE:Csm_Mcu_StackPointerSave)
000a0e08  local     esmEPSR (.CSM_CODE:Csm_Mcu_InitCore)
000a0e04  local     esmKEY (.CSM_CODE:Csm_Mcu_InitCore)
000a0e4c  local     esmRdResetCause0offset (.CSM_CODE:Csm_Mcu_InitCore)
000a0e50  local     esmRdResetCause1offset (.CSM_CODE:Csm_Mcu_InitCore)
000a0df8  local     esmSR1 (.CSM_CODE:Csm_Mcu_InitCore)
000a0e18  local     esmSR1_err_clr (.CSM_CODE:Csm_Mcu_InitCore)
000a0dfc  local     esmSR2 (.CSM_CODE:Csm_Mcu_InitCore)
000a0e1c  local     esmSR2_err_clr (.CSM_CODE:Csm_Mcu_InitCore)
000a0e00  local     esmSR3 (.CSM_CODE:Csm_Mcu_InitCore)
000a0e0c  local     esmSSR2 (.CSM_CODE:Csm_Mcu_InitCore)
000a0e20  local     esmSSR2_err_clr (.CSM_CODE:Csm_Mcu_InitCore)
000a0e54  local     esmWrResetCause0offset (.CSM_CODE:Csm_Mcu_InitCore)
000a0e58  local     esmWrResetCause1offset (.CSM_CODE:Csm_Mcu_InitCore)
000a3414  local     finish_mpu_regions_restore (.CSM_CODE:Csm_Mcu_StackPointerSave)
000a2d64  local     finish_mpu_regions_save (.CSM_CODE:Csm_Mcu_StackPointerSave)
000a3b1c  local     fpu_d0_high_bkup (.CSM_CODE:Csm_Mcu_StackPointerSave)
000a3b18  local     fpu_d0_low_bkup (.CSM_CODE:Csm_Mcu_StackPointerSave)
000a3b6c  local     fpu_d10_high_bkup (.CSM_CODE:Csm_Mcu_StackPointerSave)
000a3b68  local     fpu_d10_low_bkup (.CSM_CODE:Csm_Mcu_StackPointerSave)
000a3b74  local     fpu_d11_high_bkup (.CSM_CODE:Csm_Mcu_StackPointerSave)
000a3b70  local     fpu_d11_low_bkup (.CSM_CODE:Csm_Mcu_StackPointerSave)
000a3b7c  local     fpu_d12_high_bkup (.CSM_CODE:Csm_Mcu_StackPointerSave)
000a3b78  local     fpu_d12_low_bkup (.CSM_CODE:Csm_Mcu_StackPointerSave)
000a3b84  local     fpu_d13_high_bkup (.CSM_CODE:Csm_Mcu_StackPointerSave)
000a3b80  local     fpu_d13_low_bkup (.CSM_CODE:Csm_Mcu_StackPointerSave)
000a3b8c  local     fpu_d14_high_bkup (.CSM_CODE:Csm_Mcu_StackPointerSave)
000a3b88  local     fpu_d14_low_bkup (.CSM_CODE:Csm_Mcu_StackPointerSave)
000a3b94  local     fpu_d15_high_bkup (.CSM_CODE:Csm_Mcu_StackPointerSave)
000a3b90  local     fpu_d15_low_bkup (.CSM_CODE:Csm_Mcu_StackPointerSave)
000a3b24  local     fpu_d1_high_bkup (.CSM_CODE:Csm_Mcu_StackPointerSave)
000a3b20  local     fpu_d1_low_bkup (.CSM_CODE:Csm_Mcu_StackPointerSave)
000a3b2c  local     fpu_d2_high_bkup (.CSM_CODE:Csm_Mcu_StackPointerSave)
000a3b28  local     fpu_d2_low_bkup (.CSM_CODE:Csm_Mcu_StackPointerSave)
000a3b34  local     fpu_d3_high_bkup (.CSM_CODE:Csm_Mcu_StackPointerSave)
000a3b30  local     fpu_d3_low_bkup (.CSM_CODE:Csm_Mcu_StackPointerSave)
000a3b3c  local     fpu_d4_high_bkup (.CSM_CODE:Csm_Mcu_StackPointerSave)
000a3b38  local     fpu_d4_low_bkup (.CSM_CODE:Csm_Mcu_StackPointerSave)
000a3b44  local     fpu_d5_high_bkup (.CSM_CODE:Csm_Mcu_StackPointerSave)
000a3b40  local     fpu_d5_low_bkup (.CSM_CODE:Csm_Mcu_StackPointerSave)
000a3b4c  local     fpu_d6_high_bkup (.CSM_CODE:Csm_Mcu_StackPointerSave)
000a3b48  local     fpu_d6_low_bkup (.CSM_CODE:Csm_Mcu_StackPointerSave)
000a3b54  local     fpu_d7_high_bkup (.CSM_CODE:Csm_Mcu_StackPointerSave)
000a3b50  local     fpu_d7_low_bkup (.CSM_CODE:Csm_Mcu_StackPointerSave)
000a3b5c  local     fpu_d8_high_bkup (.CSM_CODE:Csm_Mcu_StackPointerSave)
000a3b58  local     fpu_d8_low_bkup (.CSM_CODE:Csm_Mcu_StackPointerSave)
000a3b64  local     fpu_d9_high_bkup (.CSM_CODE:Csm_Mcu_StackPointerSave)
000a3b60  local     fpu_d9_low_bkup (.CSM_CODE:Csm_Mcu_StackPointerSave)
000a0ae0  local     initRamSecSystemREG1 (.CSM_CODE:Csm_Mcu_InitRamSection_Asm)
000a3b98  local     lock_status_bkup (.CSM_CODE:Csm_Mcu_StackPointerSave)
000a39fc  local     lr_abort_bkup (.CSM_CODE:Csm_Mcu_StackPointerSave)
000a39f4  local     lr_fiq_bkup (.CSM_CODE:Csm_Mcu_StackPointerSave)
000a39f8  local     lr_irq_bkup (.CSM_CODE:Csm_Mcu_StackPointerSave)
000a3a00  local     lr_undef_bkup (.CSM_CODE:Csm_Mcu_StackPointerSave)
000a39f0  local     lr_user_bkup (.CSM_CODE:Csm_Mcu_StackPointerSave)
000a0640  local     maskMINITGENA (.CSM_CODE:Csm_Mcu_PBIST_Asm)
000a0624  local     pbistREG (.CSM_CODE:Csm_Mcu_PBIST_Asm)
000a3c30  local     prcr_bkup (.CSM_CODE:Csm_Mcu_StackPointerSave)
000a3a1c  local     r0_bkup (.CSM_CODE:Csm_Mcu_StackPointerSave)
000a3a44  local     r10_bkup (.CSM_CODE:Csm_Mcu_StackPointerSave)
000a3a58  local     r10_fiq_bkup (.CSM_CODE:Csm_Mcu_StackPointerSave)
000a3a48  local     r11_bkup (.CSM_CODE:Csm_Mcu_StackPointerSave)
000a3a5c  local     r11_fiq_bkup (.CSM_CODE:Csm_Mcu_StackPointerSave)
000a3a4c  local     r12_bkup (.CSM_CODE:Csm_Mcu_StackPointerSave)
000a3a60  local     r12_fiq_bkup (.CSM_CODE:Csm_Mcu_StackPointerSave)
000a3a20  local     r1_bkup (.CSM_CODE:Csm_Mcu_StackPointerSave)
000a3a24  local     r2_bkup (.CSM_CODE:Csm_Mcu_StackPointerSave)
000a3a28  local     r3_bkup (.CSM_CODE:Csm_Mcu_StackPointerSave)
000a3a2c  local     r4_bkup (.CSM_CODE:Csm_Mcu_StackPointerSave)
000a3a30  local     r5_bkup (.CSM_CODE:Csm_Mcu_StackPointerSave)
000a3a34  local     r6_bkup (.CSM_CODE:Csm_Mcu_StackPointerSave)
000a3a38  local     r7_bkup (.CSM_CODE:Csm_Mcu_StackPointerSave)
000a3a3c  local     r8_bkup (.CSM_CODE:Csm_Mcu_StackPointerSave)
000a3a50  local     r8_fiq_bkup (.CSM_CODE:Csm_Mcu_StackPointerSave)
000a3a40  local     r9_bkup (.CSM_CODE:Csm_Mcu_StackPointerSave)
000a3a54  local     r9_fiq_bkup (.CSM_CODE:Csm_Mcu_StackPointerSave)
000a39e8  local     sp_abort_bkup (.CSM_CODE:Csm_Mcu_StackPointerSave)
000a39e0  local     sp_fiq_bkup (.CSM_CODE:Csm_Mcu_StackPointerSave)
000a39e4  local     sp_irq_bkup (.CSM_CODE:Csm_Mcu_StackPointerSave)
000a39dc  local     sp_svc_bkup (.CSM_CODE:Csm_Mcu_StackPointerSave)
000a39ec  local     sp_undef_bkup (.CSM_CODE:Csm_Mcu_StackPointerSave)
000a39d8  local     sp_user_bkup (.CSM_CODE:Csm_Mcu_StackPointerSave)
000a3a14  local     spsrreg_abort_bkup (.CSM_CODE:Csm_Mcu_StackPointerSave)
000a3a0c  local     spsrreg_fiq_bkup (.CSM_CODE:Csm_Mcu_StackPointerSave)
000a3a10  local     spsrreg_irq_bkup (.CSM_CODE:Csm_Mcu_StackPointerSave)
000a3a08  local     spsrreg_svc_bkup (.CSM_CODE:Csm_Mcu_StackPointerSave)
000a3a18  local     spsrreg_undef_bkup (.CSM_CODE:Csm_Mcu_StackPointerSave)
000a0128  local     stack_abort (.CSM_CODE:Csm_Mcu_InitStackPointers)
000a0120  local     stack_fiq (.CSM_CODE:Csm_Mcu_InitStackPointers)
000a0124  local     stack_irq (.CSM_CODE:Csm_Mcu_InitStackPointers)
000a011c  local     stack_super (.CSM_CODE:Csm_Mcu_InitStackPointers)
000a012c  local     stack_und (.CSM_CODE:Csm_Mcu_InitStackPointers)
000a0118  local     stack_user (.CSM_CODE:Csm_Mcu_InitStackPointers)
000a33d8  local     start_mpu_regions_restore (.CSM_CODE:Csm_Mcu_StackPointerSave)
000a2d28  local     start_mpu_regions_save (.CSM_CODE:Csm_Mcu_StackPointerSave)
000a0df4  local     stcREG (.CSM_CODE:Csm_Mcu_InitCore)
000a0df0  local     systemREG1 (.CSM_CODE:Csm_Mcu_InitCore)
000a3c20  local     vcr_bkup (.CSM_CODE:Csm_Mcu_StackPointerSave)
000a0e14  local     vimIntREQ (.CSM_CODE:Csm_Mcu_InitCore)
000a0e24  local     vimInt_err_clr (.CSM_CODE:Csm_Mcu_InitCore)
000a3bfc  local     wcr1_bkup (.CSM_CODE:Csm_Mcu_StackPointerSave)
000a3c00  local     wcr2_bkup (.CSM_CODE:Csm_Mcu_StackPointerSave)
000a3c04  local     wcr3_bkup (.CSM_CODE:Csm_Mcu_StackPointerSave)
000a3c08  local     wcr4_bkup (.CSM_CODE:Csm_Mcu_StackPointerSave)
000a3c0c  local     wcr5_bkup (.CSM_CODE:Csm_Mcu_StackPointerSave)
000a3c10  local     wcr6_bkup (.CSM_CODE:Csm_Mcu_StackPointerSave)
000a3c14  local     wcr7_bkup (.CSM_CODE:Csm_Mcu_StackPointerSave)
000a3c18  local     wcr8_bkup (.CSM_CODE:Csm_Mcu_StackPointerSave)
000a3c1c  local     wfar_bkup (.CSM_CODE:Csm_Mcu_StackPointerSave)
000a3bdc  local     wvr1_bkup (.CSM_CODE:Csm_Mcu_StackPointerSave)
000a3be0  local     wvr2_bkup (.CSM_CODE:Csm_Mcu_StackPointerSave)
000a3be4  local     wvr3_bkup (.CSM_CODE:Csm_Mcu_StackPointerSave)
000a3be8  local     wvr4_bkup (.CSM_CODE:Csm_Mcu_StackPointerSave)
000a3bec  local     wvr5_bkup (.CSM_CODE:Csm_Mcu_StackPointerSave)
000a3bf0  local     wvr6_bkup (.CSM_CODE:Csm_Mcu_StackPointerSave)
000a3bf4  local     wvr7_bkup (.CSM_CODE:Csm_Mcu_StackPointerSave)
000a3bf8  local     wvr8_bkup (.CSM_CODE:Csm_Mcu_StackPointerSave)


================================================================================

ttc500.lib : drv_DIAG_INT_ADC_Check.obj

Run/Load            
Value     Binding   Name (Section)
--------  --------  ---------------
000b9e40  local     $C$L1 (.IO_DRIVER_CODE:DIAG_ADC_ShiftRegisterConfigurationCheck)
000b9f9c  local     $C$L10 (.IO_DRIVER_CODE:DIAG_ADC_ShiftRegisterConfigurationCheck)
000b9fb8  local     $C$L11 (.IO_DRIVER_CODE:DIAG_ADC_ShiftRegisterConfigurationCheck)
000b9fd8  local     $C$L12 (.IO_DRIVER_CODE:DIAG_ADC_ShiftRegisterConfigurationCheck)
000ba06c  local     $C$L13 (.IO_DRIVER_CODE:DIAG_ADC_ShiftRegisterConfigurationCheck)
000ba070  local     $C$L14 (.IO_DRIVER_CODE:DIAG_ADC_ShiftRegisterConfigurationCheck)
000ba11c  local     $C$L15 (.IO_DRIVER_CODE:DIAG_ADC_ShiftRegisterConfigurationCheck)
000ba120  local     $C$L16 (.IO_DRIVER_CODE:DIAG_ADC_ShiftRegisterConfigurationCheck)
000ba15c  local     $C$L17 (.IO_DRIVER_CODE:DIAG_ADC_ShiftRegisterConfigurationCheck)
000ba168  local     $C$L18 (.IO_DRIVER_CODE:DIAG_ADC_ShiftRegisterConfigurationCheck)
000ba17c  local     $C$L19 (.IO_DRIVER_CODE:DIAG_ADC_ShiftRegisterConfigurationCheck)
000b9e70  local     $C$L2 (.IO_DRIVER_CODE:DIAG_ADC_ShiftRegisterConfigurationCheck)
000ba180  local     $C$L20 (.IO_DRIVER_CODE:DIAG_ADC_ShiftRegisterConfigurationCheck)
000ba450  local     $C$L21 (.IO_DRIVER_CODE:DIAG_ADC_SSup5V_Check)
000ba47c  local     $C$L22 (.IO_DRIVER_CODE:DIAG_ADC_SSup5V_Check)
000ba48c  local     $C$L23 (.IO_DRIVER_CODE:DIAG_ADC_SSup5V_Check)
000ba1f0  local     $C$L24 (.IO_DRIVER_CODE:DIAG_ADC_RangeCheck)
000ba254  local     $C$L25 (.IO_DRIVER_CODE:DIAG_ADC_RangeCheck)
000ba258  local     $C$L26 (.IO_DRIVER_CODE:DIAG_ADC_RangeCheck)
000ba268  local     $C$L27 (.IO_DRIVER_CODE:DIAG_ADC_RangeCheck)
000ba274  local     $C$L28 (.IO_DRIVER_CODE:DIAG_ADC_RangeCheck)
000ba290  local     $C$L29 (.IO_DRIVER_CODE:DIAG_ADC_RangeCheck)
000b9ee0  local     $C$L3 (.IO_DRIVER_CODE:DIAG_ADC_ShiftRegisterConfigurationCheck)
000ba2ec  local     $C$L30 (.IO_DRIVER_CODE:DIAG_ADC_RangeCheck)
000ba2f0  local     $C$L31 (.IO_DRIVER_CODE:DIAG_ADC_RangeCheck)
000ba300  local     $C$L32 (.IO_DRIVER_CODE:DIAG_ADC_RangeCheck)
000ba3f8  local     $C$L33 (.IO_DRIVER_CODE:DIAG_ADC_BoardTemp_Check)
000ba3fc  local     $C$L34 (.IO_DRIVER_CODE:DIAG_ADC_BoardTemp_Check)
000ba3b4  local     $C$L35 (.IO_DRIVER_CODE:DIAG_ADC_Battery_Check)
000ba3b8  local     $C$L36 (.IO_DRIVER_CODE:DIAG_ADC_Battery_Check)
000be2d0  local     $C$L37 (.IO_DRIVER_CODE:DIAG_ADC_3ModeSwitchTestPerform)
000be340  local     $C$L38 (.IO_DRIVER_CODE:DIAG_ADC_3ModeSwitchTestPerform)
000be360  local     $C$L39 (.IO_DRIVER_CODE:DIAG_ADC_3ModeSwitchTestPerform)
000b9ef4  local     $C$L4 (.IO_DRIVER_CODE:DIAG_ADC_ShiftRegisterConfigurationCheck)
000be3a0  local     $C$L40 (.IO_DRIVER_CODE:DIAG_ADC_3ModeSwitchTestPerform)
000be3e8  local     $C$L41 (.IO_DRIVER_CODE:DIAG_ADC_3ModeSwitchTestPerform)
000be408  local     $C$L42 (.IO_DRIVER_CODE:DIAG_ADC_3ModeSwitchTestPerform)
000be430  local     $C$L43 (.IO_DRIVER_CODE:DIAG_ADC_3ModeSwitchTestPerform)
000be44c  local     $C$L44 (.IO_DRIVER_CODE:DIAG_ADC_3ModeSwitchTestPerform)
000be45c  local     $C$L45 (.IO_DRIVER_CODE:DIAG_ADC_3ModeSwitchTestPerform)
000be470  local     $C$L46 (.IO_DRIVER_CODE:DIAG_ADC_3ModeSwitchTestPerform)
000be480  local     $C$L47 (.IO_DRIVER_CODE:DIAG_ADC_3ModeSwitchTestPerform)
000be4e0  local     $C$L48 (.IO_DRIVER_CODE:DIAG_ADC_3ModeSwitchTestPerform)
000be568  local     $C$L49 (.IO_DRIVER_CODE:DIAG_ADC_3ModeSwitchTestPerform)
000b9f20  local     $C$L5 (.IO_DRIVER_CODE:DIAG_ADC_ShiftRegisterConfigurationCheck)
000be590  local     $C$L50 (.IO_DRIVER_CODE:DIAG_ADC_3ModeSwitchTestPerform)
000be5a0  local     $C$L51 (.IO_DRIVER_CODE:DIAG_ADC_3ModeSwitchTestPerform)
000be5b4  local     $C$L52 (.IO_DRIVER_CODE:DIAG_ADC_3ModeSwitchTestPerform)
000be5c0  local     $C$L53 (.IO_DRIVER_CODE:DIAG_ADC_3ModeSwitchTestPerform)
000be5f0  local     $C$L54 (.IO_DRIVER_CODE:DIAG_ADC_3ModeSwitchTestPerform)
000be6a0  local     $C$L55 (.IO_DRIVER_CODE:DIAG_ADC_3ModeSwitchTestPerform)
000be6d8  local     $C$L56 (.IO_DRIVER_CODE:DIAG_ADC_3ModeSwitchTestPerform)
000be700  local     $C$L57 (.IO_DRIVER_CODE:DIAG_ADC_3ModeSwitchTestPerform)
000be780  local     $C$L58 (.IO_DRIVER_CODE:DIAG_ADC_3ModeSwitchTestPerform)
000be7d0  local     $C$L59 (.IO_DRIVER_CODE:DIAG_ADC_3ModeSwitchTestPerform)
000b9f40  local     $C$L6 (.IO_DRIVER_CODE:DIAG_ADC_ShiftRegisterConfigurationCheck)
000be7e0  local     $C$L60 (.IO_DRIVER_CODE:DIAG_ADC_3ModeSwitchTestPerform)
000be7e4  local     $C$L61 (.IO_DRIVER_CODE:DIAG_ADC_3ModeSwitchTestPerform)
000be7e8  local     $C$L62 (.IO_DRIVER_CODE:DIAG_ADC_3ModeSwitchTestPerform)
000be7fc  local     $C$L63 (.IO_DRIVER_CODE:DIAG_ADC_3ModeSwitchTestPerform)
000be810  local     $C$L64 (.IO_DRIVER_CODE:DIAG_ADC_3ModeSwitchTestPerform)
000be840  local     $C$L65 (.IO_DRIVER_CODE:DIAG_ADC_3ModeSwitchTestPerform)
000be8d0  local     $C$L66 (.IO_DRIVER_CODE:DIAG_ADC_3ModeSwitchTestPerform)
000be8f0  local     $C$L67 (.IO_DRIVER_CODE:DIAG_ADC_3ModeSwitchTestPerform)
000be910  local     $C$L68 (.IO_DRIVER_CODE:DIAG_ADC_3ModeSwitchTestPerform)
000be924  local     $C$L69 (.IO_DRIVER_CODE:DIAG_ADC_3ModeSwitchTestPerform)
000b9f4c  local     $C$L7 (.IO_DRIVER_CODE:DIAG_ADC_ShiftRegisterConfigurationCheck)
000be92c  local     $C$L70 (.IO_DRIVER_CODE:DIAG_ADC_3ModeSwitchTestPerform)
000be948  local     $C$L71 (.IO_DRIVER_CODE:DIAG_ADC_3ModeSwitchTestPerform)
000be94c  local     $C$L72 (.IO_DRIVER_CODE:DIAG_ADC_3ModeSwitchTestPerform)
000b9c10  local     $C$L73 (.IO_DRIVER_CODE:DIAG_ADC_3ModeSwitchPeriodicCheck)
000b9ca0  local     $C$L74 (.IO_DRIVER_CODE:DIAG_ADC_3ModeSwitchPeriodicCheck)
000b9ca4  local     $C$L75 (.IO_DRIVER_CODE:DIAG_ADC_3ModeSwitchPeriodicCheck)
000b9cd0  local     $C$L76 (.IO_DRIVER_CODE:DIAG_ADC_3ModeSwitchPeriodicCheck)
000b9d14  local     $C$L77 (.IO_DRIVER_CODE:DIAG_ADC_3ModeSwitchPeriodicCheck)
000b9d18  local     $C$L78 (.IO_DRIVER_CODE:DIAG_ADC_3ModeSwitchPeriodicCheck)
000b9d40  local     $C$L79 (.IO_DRIVER_CODE:DIAG_ADC_3ModeSwitchPeriodicCheck)
000b9f58  local     $C$L8 (.IO_DRIVER_CODE:DIAG_ADC_ShiftRegisterConfigurationCheck)
000b9d54  local     $C$L80 (.IO_DRIVER_CODE:DIAG_ADC_3ModeSwitchPeriodicCheck)
000ba338  local     $C$L81 (.IO_DRIVER_CODE:DIAG_ADC_2V5Ref_Check)
000ba33c  local     $C$L82 (.IO_DRIVER_CODE:DIAG_ADC_2V5Ref_Check)
000be050  local     $C$L83 (.IO_DRIVER_CODE:DIAG_ADC_2ModeConfTestPerform)
000be100  local     $C$L84 (.IO_DRIVER_CODE:DIAG_ADC_2ModeConfTestPerform)
000be120  local     $C$L85 (.IO_DRIVER_CODE:DIAG_ADC_2ModeConfTestPerform)
000be164  local     $C$L86 (.IO_DRIVER_CODE:DIAG_ADC_2ModeConfTestPerform)
000be170  local     $C$L87 (.IO_DRIVER_CODE:DIAG_ADC_2ModeConfTestPerform)
000be18c  local     $C$L88 (.IO_DRIVER_CODE:DIAG_ADC_2ModeConfTestPerform)
000be190  local     $C$L89 (.IO_DRIVER_CODE:DIAG_ADC_2ModeConfTestPerform)
000b9f98  local     $C$L9 (.IO_DRIVER_CODE:DIAG_ADC_ShiftRegisterConfigurationCheck)
000be198  local     $C$L90 (.IO_DRIVER_CODE:DIAG_ADC_2ModeConfTestPerform)
000be1c0  local     $C$L91 (.IO_DRIVER_CODE:DIAG_ADC_2ModeConfTestPerform)
000be1f0  local     $C$L92 (.IO_DRIVER_CODE:DIAG_ADC_2ModeConfTestPerform)
000be20c  local     $C$L93 (.IO_DRIVER_CODE:DIAG_ADC_2ModeConfTestPerform)
000be210  local     $C$L94 (.IO_DRIVER_CODE:DIAG_ADC_2ModeConfTestPerform)
000ba378  local     $C$L95 (.IO_DRIVER_CODE:DIAG_ADC_1V2_Check)
000ba37c  local     $C$L96 (.IO_DRIVER_CODE:DIAG_ADC_1V2_Check)
000b9dc0  local     $a (.IO_DRIVER_CODE:DIAG_ADC_ShiftRegisterConfigurationCheck)
000ba410  local     $a (.IO_DRIVER_CODE:DIAG_ADC_SSup5V_Check)
000ba190  local     $a (.IO_DRIVER_CODE:DIAG_ADC_RangeCheck)
000b1ff0  local     $a (.IO_DRIVER_CODE:DIAG_ADC_ModuleInit)
000ba3d0  local     $a (.IO_DRIVER_CODE:DIAG_ADC_BoardTemp_Check)
000ba390  local     $a (.IO_DRIVER_CODE:DIAG_ADC_Battery_Check)
000be220  local     $a (.IO_DRIVER_CODE:DIAG_ADC_3ModeSwitchTestPerform)
000c41e0  local     $a (.IO_DRIVER_CODE:DIAG_ADC_3ModeSwitchTestCheck)
000b9bb0  local     $a (.IO_DRIVER_CODE:DIAG_ADC_3ModeSwitchPeriodicCheck)
000ba310  local     $a (.IO_DRIVER_CODE:DIAG_ADC_2V5Ref_Check)
000bdfe0  local     $a (.IO_DRIVER_CODE:DIAG_ADC_2ModeConfTestPerform)
000c41c0  local     $a (.IO_DRIVER_CODE:DIAG_ADC_2ModeConfTestCheck)
000ba350  local     $a (.IO_DRIVER_CODE:DIAG_ADC_1V2_Check)
000caca8  local     $d (.IO_DRIVER_CONST)
000cad30  local     $d (.IO_DRIVER_CONST)
0803b642  local     $d (.IO_DRIVER_DATA_NORMAL)
000ba350  local     .IO_DRIVER_CODE:DIAG_ADC_1V2_Check (.IO_DRIVER_CODE:DIAG_ADC_1V2_Check)
000c41c0  local     .IO_DRIVER_CODE:DIAG_ADC_2ModeConfTestCheck (.IO_DRIVER_CODE:DIAG_ADC_2ModeConfTestCheck)
000bdfe0  local     .IO_DRIVER_CODE:DIAG_ADC_2ModeConfTestPerform (.IO_DRIVER_CODE:DIAG_ADC_2ModeConfTestPerform)
000ba310  local     .IO_DRIVER_CODE:DIAG_ADC_2V5Ref_Check (.IO_DRIVER_CODE:DIAG_ADC_2V5Ref_Check)
000b9bb0  local     .IO_DRIVER_CODE:DIAG_ADC_3ModeSwitchPeriodicCheck (.IO_DRIVER_CODE:DIAG_ADC_3ModeSwitchPeriodicCheck)
000c41e0  local     .IO_DRIVER_CODE:DIAG_ADC_3ModeSwitchTestCheck (.IO_DRIVER_CODE:DIAG_ADC_3ModeSwitchTestCheck)
000be220  local     .IO_DRIVER_CODE:DIAG_ADC_3ModeSwitchTestPerform (.IO_DRIVER_CODE:DIAG_ADC_3ModeSwitchTestPerform)
000ba390  local     .IO_DRIVER_CODE:DIAG_ADC_Battery_Check (.IO_DRIVER_CODE:DIAG_ADC_Battery_Check)
000ba3d0  local     .IO_DRIVER_CODE:DIAG_ADC_BoardTemp_Check (.IO_DRIVER_CODE:DIAG_ADC_BoardTemp_Check)
000b1ff0  local     .IO_DRIVER_CODE:DIAG_ADC_ModuleInit (.IO_DRIVER_CODE:DIAG_ADC_ModuleInit)
000ba190  local     .IO_DRIVER_CODE:DIAG_ADC_RangeCheck (.IO_DRIVER_CODE:DIAG_ADC_RangeCheck)
000ba410  local     .IO_DRIVER_CODE:DIAG_ADC_SSup5V_Check (.IO_DRIVER_CODE:DIAG_ADC_SSup5V_Check)
000b9dc0  local     .IO_DRIVER_CODE:DIAG_ADC_ShiftRegisterConfigurationCheck (.IO_DRIVER_CODE:DIAG_ADC_ShiftRegisterConfigurationCheck)
000caca8  local     .IO_DRIVER_CONST (.IO_DRIVER_CONST)
0803b642  local     .IO_DRIVER_DATA_NORMAL (.IO_DRIVER_DATA_NORMAL)
00000000  local     .text (.text)
000ba350  global    DIAG_ADC_1V2_Check (.IO_DRIVER_CODE:DIAG_ADC_1V2_Check)
000c41c0  global    DIAG_ADC_2ModeConfTestCheck (.IO_DRIVER_CODE:DIAG_ADC_2ModeConfTestCheck)
000bdfe0  global    DIAG_ADC_2ModeConfTestPerform (.IO_DRIVER_CODE:DIAG_ADC_2ModeConfTestPerform)
000ba310  global    DIAG_ADC_2V5Ref_Check (.IO_DRIVER_CODE:DIAG_ADC_2V5Ref_Check)
000b9bb0  global    DIAG_ADC_3ModeSwitchPeriodicCheck (.IO_DRIVER_CODE:DIAG_ADC_3ModeSwitchPeriodicCheck)
000c41e0  global    DIAG_ADC_3ModeSwitchTestCheck (.IO_DRIVER_CODE:DIAG_ADC_3ModeSwitchTestCheck)
000be220  global    DIAG_ADC_3ModeSwitchTestPerform (.IO_DRIVER_CODE:DIAG_ADC_3ModeSwitchTestPerform)
000ba390  global    DIAG_ADC_Battery_Check (.IO_DRIVER_CODE:DIAG_ADC_Battery_Check)
000ba3d0  global    DIAG_ADC_BoardTemp_Check (.IO_DRIVER_CODE:DIAG_ADC_BoardTemp_Check)
000b1ff0  global    DIAG_ADC_ModuleInit (.IO_DRIVER_CODE:DIAG_ADC_ModuleInit)
000ba190  global    DIAG_ADC_RangeCheck (.IO_DRIVER_CODE:DIAG_ADC_RangeCheck)
000ba410  global    DIAG_ADC_SSup5V_Check (.IO_DRIVER_CODE:DIAG_ADC_SSup5V_Check)
000b9dc0  global    DIAG_ADC_ShiftRegisterConfigurationCheck (.IO_DRIVER_CODE:DIAG_ADC_ShiftRegisterConfigurationCheck)
0803b642  local     diag_adc_checker_data (.IO_DRIVER_DATA_NORMAL)
000cad30  local     diag_sr_conf_data (.IO_DRIVER_CONST)
000caca8  local     diag_sr_switch_sum (.IO_DRIVER_CONST)


================================================================================

ttc500.lib : drv_IO_INT_ESM.obj

Run/Load            
Value     Binding   Name (Section)
--------  --------  ---------------
000c7ff0  local     $C$L1 (.IO_DRIVER_CODE:IO_INT_ESM_GetDeviceNumber)
000b27e8  local     $C$L10 (.IO_DRIVER_CODE:IO_INT_ESM_CheckCat1LowStatus)
000b27f8  local     $C$L11 (.IO_DRIVER_CODE:IO_INT_ESM_CheckCat1LowStatus)
000b2800  local     $C$L12 (.IO_DRIVER_CODE:IO_INT_ESM_CheckCat1LowStatus)
000b2824  local     $C$L13 (.IO_DRIVER_CODE:IO_INT_ESM_CheckCat1LowStatus)
000b2828  local     $C$L14 (.IO_DRIVER_CODE:IO_INT_ESM_CheckCat1LowStatus)
000b282c  local     $C$L15 (.IO_DRIVER_CODE:IO_INT_ESM_CheckCat1LowStatus)
000b28d4  local     $C$L16 (.IO_DRIVER_CODE:IO_INT_ESM_CheckCat1HighStatus)
000b2904  local     $C$L17 (.IO_DRIVER_CODE:IO_INT_ESM_CheckCat1HighStatus)
000b290c  local     $C$L18 (.IO_DRIVER_CODE:IO_INT_ESM_CheckCat1HighStatus)
000b2910  local     $C$L19 (.IO_DRIVER_CODE:IO_INT_ESM_CheckCat1HighStatus)
000c8010  local     $C$L2 (.IO_DRIVER_CODE:IO_INT_ESM_GetDeviceNumber)
000b2914  local     $C$L20 (.IO_DRIVER_CODE:IO_INT_ESM_CheckCat1HighStatus)
000b2a6c  local     $C$L21 (.IO_DRIVER_CODE:IO_INT_ESM_CheckEsmInitStatus)
000b2a74  local     $C$L22 (.IO_DRIVER_CODE:IO_INT_ESM_CheckEsmInitStatus)
000b2a78  local     $C$L23 (.IO_DRIVER_CODE:IO_INT_ESM_CheckEsmInitStatus)
000c8020  local     $C$L3 (.IO_DRIVER_CODE:IO_INT_ESM_GetDeviceNumber)
000c80ac  local     $C$L4 (.IO_DRIVER_CODE:IO_INT_ESM_ErrorCallbackLow)
000c80ec  local     $C$L5 (.IO_DRIVER_CODE:IO_INT_ESM_ErrorCallbackLow)
000b7af8  local     $C$L6 (.IO_DRIVER_CODE:IO_INT_ESM_CheckEsmStatus)
000b7afc  local     $C$L7 (.IO_DRIVER_CODE:IO_INT_ESM_CheckEsmStatus)
000b278c  local     $C$L8 (.IO_DRIVER_CODE:IO_INT_ESM_CheckCat1LowStatus)
000b27dc  local     $C$L9 (.IO_DRIVER_CODE:IO_INT_ESM_CheckCat1LowStatus)
000bb1c0  local     $a (.IO_DRIVER_CODE:IO_INT_ESM_LL_interrupt)
000bb1e0  local     $a (.IO_DRIVER_CODE:IO_INT_ESM_LL_ISR)
000c7fd0  local     $a (.IO_DRIVER_CODE:IO_INT_ESM_GetDeviceNumber)
000b7a30  local     $a (.IO_DRIVER_CODE:IO_INT_ESM_GetCallbackLowCnt)
000b7a20  local     $a (.IO_DRIVER_CODE:IO_INT_ESM_GetCallbackHighCnt)
000c8030  local     $a (.IO_DRIVER_CODE:IO_INT_ESM_ErrorCallbackLow)
000c8100  local     $a (.IO_DRIVER_CODE:IO_INT_ESM_ErrorCallbackHigh)
000b7a40  local     $a (.IO_DRIVER_CODE:IO_INT_ESM_CheckEsmStatus)
000b2710  local     $a (.IO_DRIVER_CODE:IO_INT_ESM_CheckCat1LowStatus)
000b2860  local     $a (.IO_DRIVER_CODE:IO_INT_ESM_CheckCat1HighStatus)
000b29a0  local     $a (.IO_DRIVER_CODE:IO_INT_ESM_CheckEsmInitStatus)
0803dc44  local     $d (.IO_DRIVER_DATA_NORMAL)
0803dc48  local     $d (.IO_DRIVER_DATA_NORMAL)
000caea0  local     $d (.IO_DRIVER_CONST)
000b2860  local     .IO_DRIVER_CODE:IO_INT_ESM_CheckCat1HighStatus (.IO_DRIVER_CODE:IO_INT_ESM_CheckCat1HighStatus)
000b2710  local     .IO_DRIVER_CODE:IO_INT_ESM_CheckCat1LowStatus (.IO_DRIVER_CODE:IO_INT_ESM_CheckCat1LowStatus)
000b29a0  local     .IO_DRIVER_CODE:IO_INT_ESM_CheckEsmInitStatus (.IO_DRIVER_CODE:IO_INT_ESM_CheckEsmInitStatus)
000b7a40  local     .IO_DRIVER_CODE:IO_INT_ESM_CheckEsmStatus (.IO_DRIVER_CODE:IO_INT_ESM_CheckEsmStatus)
000c8100  local     .IO_DRIVER_CODE:IO_INT_ESM_ErrorCallbackHigh (.IO_DRIVER_CODE:IO_INT_ESM_ErrorCallbackHigh)
000c8030  local     .IO_DRIVER_CODE:IO_INT_ESM_ErrorCallbackLow (.IO_DRIVER_CODE:IO_INT_ESM_ErrorCallbackLow)
000b7a20  local     .IO_DRIVER_CODE:IO_INT_ESM_GetCallbackHighCnt (.IO_DRIVER_CODE:IO_INT_ESM_GetCallbackHighCnt)
000b7a30  local     .IO_DRIVER_CODE:IO_INT_ESM_GetCallbackLowCnt (.IO_DRIVER_CODE:IO_INT_ESM_GetCallbackLowCnt)
000c7fd0  local     .IO_DRIVER_CODE:IO_INT_ESM_GetDeviceNumber (.IO_DRIVER_CODE:IO_INT_ESM_GetDeviceNumber)
000bb1e0  local     .IO_DRIVER_CODE:IO_INT_ESM_LL_ISR (.IO_DRIVER_CODE:IO_INT_ESM_LL_ISR)
000bb1c0  local     .IO_DRIVER_CODE:IO_INT_ESM_LL_interrupt (.IO_DRIVER_CODE:IO_INT_ESM_LL_interrupt)
000caea0  local     .IO_DRIVER_CONST (.IO_DRIVER_CONST)
0803dc44  local     .IO_DRIVER_DATA_NORMAL (.IO_DRIVER_DATA_NORMAL)
00000000  local     .text (.text)
0803dc44  local     CallbackHighCounter (.IO_DRIVER_DATA_NORMAL)
0803dc48  local     CallbackLowCounter (.IO_DRIVER_DATA_NORMAL)
000caea0  local     Esm_DevNumber (.IO_DRIVER_CONST)
000b2860  local     IO_INT_ESM_CheckCat1HighStatus (.IO_DRIVER_CODE:IO_INT_ESM_CheckCat1HighStatus)
000b2710  local     IO_INT_ESM_CheckCat1LowStatus (.IO_DRIVER_CODE:IO_INT_ESM_CheckCat1LowStatus)
000b29a0  global    IO_INT_ESM_CheckEsmInitStatus (.IO_DRIVER_CODE:IO_INT_ESM_CheckEsmInitStatus)
000b7a40  global    IO_INT_ESM_CheckEsmStatus (.IO_DRIVER_CODE:IO_INT_ESM_CheckEsmStatus)
000c8100  global    IO_INT_ESM_ErrorCallbackHigh (.IO_DRIVER_CODE:IO_INT_ESM_ErrorCallbackHigh)
000c8030  global    IO_INT_ESM_ErrorCallbackLow (.IO_DRIVER_CODE:IO_INT_ESM_ErrorCallbackLow)
000b7a20  global    IO_INT_ESM_GetCallbackHighCnt (.IO_DRIVER_CODE:IO_INT_ESM_GetCallbackHighCnt)
000b7a30  global    IO_INT_ESM_GetCallbackLowCnt (.IO_DRIVER_CODE:IO_INT_ESM_GetCallbackLowCnt)
000c7fd0  global    IO_INT_ESM_GetDeviceNumber (.IO_DRIVER_CODE:IO_INT_ESM_GetDeviceNumber)
000bb1e0  global    IO_INT_ESM_LL_ISR (.IO_DRIVER_CODE:IO_INT_ESM_LL_ISR)
000bb1c0  local     IO_INT_ESM_LL_interrupt (.IO_DRIVER_CODE:IO_INT_ESM_LL_interrupt)


================================================================================

ttc500.lib : drv_DIAG_INT_DIO_Check.obj

Run/Load            
Value     Binding   Name (Section)
--------  --------  ---------------
000bcb90  local     $C$L1 (.IO_DRIVER_CODE:DIAG_DIO_TestPattern_HS)
000bce04  local     $C$L10 (.IO_DRIVER_CODE:DIAG_DIO_TestPattern_HS)
000bde24  local     $C$L100 (.IO_DRIVER_CODE:DIAG_DIO_TestPattern_LS)
000bde38  local     $C$L101 (.IO_DRIVER_CODE:DIAG_DIO_TestPattern_LS)
000bde50  local     $C$L102 (.IO_DRIVER_CODE:DIAG_DIO_TestPattern_LS)
000bde84  local     $C$L103 (.IO_DRIVER_CODE:DIAG_DIO_TestPattern_LS)
000bde90  local     $C$L104 (.IO_DRIVER_CODE:DIAG_DIO_TestPattern_LS)
000bde94  local     $C$L105 (.IO_DRIVER_CODE:DIAG_DIO_TestPattern_LS)
000bdeb4  local     $C$L106 (.IO_DRIVER_CODE:DIAG_DIO_TestPattern_LS)
000bdeb8  local     $C$L107 (.IO_DRIVER_CODE:DIAG_DIO_TestPattern_LS)
000bdebc  local     $C$L108 (.IO_DRIVER_CODE:DIAG_DIO_TestPattern_LS)
000bdec0  local     $C$L109 (.IO_DRIVER_CODE:DIAG_DIO_TestPattern_LS)
000bce08  local     $C$L11 (.IO_DRIVER_CODE:DIAG_DIO_TestPattern_HS)
000bdf20  local     $C$L110 (.IO_DRIVER_CODE:DIAG_DIO_ShortCircuitTestPerform)
000bdf2c  local     $C$L111 (.IO_DRIVER_CODE:DIAG_DIO_ShortCircuitTestPerform)
000bdf68  local     $C$L112 (.IO_DRIVER_CODE:DIAG_DIO_ShortCircuitTestPerform)
000bdf74  local     $C$L113 (.IO_DRIVER_CODE:DIAG_DIO_ShortCircuitTestPerform)
000bdfa0  local     $C$L114 (.IO_DRIVER_CODE:DIAG_DIO_ShortCircuitTestPerform)
000ba500  local     $C$L115 (.IO_DRIVER_CODE:DIAG_DIO_OutputCheck)
000ba5b0  local     $C$L116 (.IO_DRIVER_CODE:DIAG_DIO_OutputCheck)
000ba5d0  local     $C$L117 (.IO_DRIVER_CODE:DIAG_DIO_OutputCheck)
000ba5fc  local     $C$L118 (.IO_DRIVER_CODE:DIAG_DIO_OutputCheck)
000ba604  local     $C$L119 (.IO_DRIVER_CODE:DIAG_DIO_OutputCheck)
000bce30  local     $C$L12 (.IO_DRIVER_CODE:DIAG_DIO_TestPattern_HS)
000c43c0  local     $C$L120 (.IO_DRIVER_CODE:DIAG_DIO_LoadCheck)
000c4430  local     $C$L121 (.IO_DRIVER_CODE:DIAG_DIO_LoadCheck)
000c4440  local     $C$L122 (.IO_DRIVER_CODE:DIAG_DIO_LoadCheck)
000c4458  local     $C$L123 (.IO_DRIVER_CODE:DIAG_DIO_LoadCheck)
000c4464  local     $C$L124 (.IO_DRIVER_CODE:DIAG_DIO_LoadCheck)
000c448c  local     $C$L125 (.IO_DRIVER_CODE:DIAG_DIO_LoadCheck)
000c4494  local     $C$L126 (.IO_DRIVER_CODE:DIAG_DIO_LoadCheck)
000bce4c  local     $C$L13 (.IO_DRIVER_CODE:DIAG_DIO_TestPattern_HS)
000bce6c  local     $C$L14 (.IO_DRIVER_CODE:DIAG_DIO_TestPattern_HS)
000bce70  local     $C$L15 (.IO_DRIVER_CODE:DIAG_DIO_TestPattern_HS)
000bceb0  local     $C$L16 (.IO_DRIVER_CODE:DIAG_DIO_TestPattern_HS)
000bcec0  local     $C$L17 (.IO_DRIVER_CODE:DIAG_DIO_TestPattern_HS)
000bcf60  local     $C$L18 (.IO_DRIVER_CODE:DIAG_DIO_TestPattern_HS)
000bcfa8  local     $C$L19 (.IO_DRIVER_CODE:DIAG_DIO_TestPattern_HS)
000bcc34  local     $C$L2 (.IO_DRIVER_CODE:DIAG_DIO_TestPattern_HS)
000bcff4  local     $C$L20 (.IO_DRIVER_CODE:DIAG_DIO_TestPattern_HS)
000bd000  local     $C$L21 (.IO_DRIVER_CODE:DIAG_DIO_TestPattern_HS)
000bd01c  local     $C$L22 (.IO_DRIVER_CODE:DIAG_DIO_TestPattern_HS)
000bd050  local     $C$L23 (.IO_DRIVER_CODE:DIAG_DIO_TestPattern_HS)
000bd068  local     $C$L24 (.IO_DRIVER_CODE:DIAG_DIO_TestPattern_HS)
000bd080  local     $C$L25 (.IO_DRIVER_CODE:DIAG_DIO_TestPattern_HS)
000bd084  local     $C$L26 (.IO_DRIVER_CODE:DIAG_DIO_TestPattern_HS)
000bd08c  local     $C$L27 (.IO_DRIVER_CODE:DIAG_DIO_TestPattern_HS)
000bd0a0  local     $C$L28 (.IO_DRIVER_CODE:DIAG_DIO_TestPattern_HS)
000bd0d4  local     $C$L29 (.IO_DRIVER_CODE:DIAG_DIO_TestPattern_HS)
000bcc84  local     $C$L3 (.IO_DRIVER_CODE:DIAG_DIO_TestPattern_HS)
000bd0d8  local     $C$L30 (.IO_DRIVER_CODE:DIAG_DIO_TestPattern_HS)
000bd170  local     $C$L31 (.IO_DRIVER_CODE:DIAG_DIO_TestPattern_PVG)
000bd1f4  local     $C$L32 (.IO_DRIVER_CODE:DIAG_DIO_TestPattern_PVG)
000bd204  local     $C$L33 (.IO_DRIVER_CODE:DIAG_DIO_TestPattern_PVG)
000bd230  local     $C$L34 (.IO_DRIVER_CODE:DIAG_DIO_TestPattern_PVG)
000bd25c  local     $C$L35 (.IO_DRIVER_CODE:DIAG_DIO_TestPattern_PVG)
000bd260  local     $C$L36 (.IO_DRIVER_CODE:DIAG_DIO_TestPattern_PVG)
000bd2a4  local     $C$L37 (.IO_DRIVER_CODE:DIAG_DIO_TestPattern_PVG)
000bd2a8  local     $C$L38 (.IO_DRIVER_CODE:DIAG_DIO_TestPattern_PVG)
000bd2c0  local     $C$L39 (.IO_DRIVER_CODE:DIAG_DIO_TestPattern_PVG)
000bcce0  local     $C$L4 (.IO_DRIVER_CODE:DIAG_DIO_TestPattern_HS)
000bd2f0  local     $C$L40 (.IO_DRIVER_CODE:DIAG_DIO_TestPattern_PVG)
000bd34c  local     $C$L41 (.IO_DRIVER_CODE:DIAG_DIO_TestPattern_PVG)
000bd35c  local     $C$L42 (.IO_DRIVER_CODE:DIAG_DIO_TestPattern_PVG)
000bd3a4  local     $C$L43 (.IO_DRIVER_CODE:DIAG_DIO_TestPattern_PVG)
000bd3b0  local     $C$L44 (.IO_DRIVER_CODE:DIAG_DIO_TestPattern_PVG)
000bd400  local     $C$L45 (.IO_DRIVER_CODE:DIAG_DIO_TestPattern_PVG)
000bd444  local     $C$L46 (.IO_DRIVER_CODE:DIAG_DIO_TestPattern_PVG)
000bd448  local     $C$L47 (.IO_DRIVER_CODE:DIAG_DIO_TestPattern_PVG)
000bd4f0  local     $C$L48 (.IO_DRIVER_CODE:DIAG_DIO_TestPattern_LS)
000bd500  local     $C$L49 (.IO_DRIVER_CODE:DIAG_DIO_TestPattern_LS)
000bcd60  local     $C$L5 (.IO_DRIVER_CODE:DIAG_DIO_TestPattern_HS)
000bd5a0  local     $C$L50 (.IO_DRIVER_CODE:DIAG_DIO_TestPattern_LS)
000bd5e4  local     $C$L51 (.IO_DRIVER_CODE:DIAG_DIO_TestPattern_LS)
000bd658  local     $C$L52 (.IO_DRIVER_CODE:DIAG_DIO_TestPattern_LS)
000bd6a0  local     $C$L53 (.IO_DRIVER_CODE:DIAG_DIO_TestPattern_LS)
000bd6f0  local     $C$L54 (.IO_DRIVER_CODE:DIAG_DIO_TestPattern_LS)
000bd750  local     $C$L55 (.IO_DRIVER_CODE:DIAG_DIO_TestPattern_LS)
000bd778  local     $C$L56 (.IO_DRIVER_CODE:DIAG_DIO_TestPattern_LS)
000bd79c  local     $C$L57 (.IO_DRIVER_CODE:DIAG_DIO_TestPattern_LS)
000bd7b0  local     $C$L58 (.IO_DRIVER_CODE:DIAG_DIO_TestPattern_LS)
000bd7cc  local     $C$L59 (.IO_DRIVER_CODE:DIAG_DIO_TestPattern_LS)
000bcd74  local     $C$L6 (.IO_DRIVER_CODE:DIAG_DIO_TestPattern_HS)
000bd83c  local     $C$L60 (.IO_DRIVER_CODE:DIAG_DIO_TestPattern_LS)
000bd890  local     $C$L61 (.IO_DRIVER_CODE:DIAG_DIO_TestPattern_LS)
000bd8e4  local     $C$L62 (.IO_DRIVER_CODE:DIAG_DIO_TestPattern_LS)
000bd910  local     $C$L63 (.IO_DRIVER_CODE:DIAG_DIO_TestPattern_LS)
000bd934  local     $C$L64 (.IO_DRIVER_CODE:DIAG_DIO_TestPattern_LS)
000bd938  local     $C$L65 (.IO_DRIVER_CODE:DIAG_DIO_TestPattern_LS)
000bd958  local     $C$L66 (.IO_DRIVER_CODE:DIAG_DIO_TestPattern_LS)
000bd964  local     $C$L67 (.IO_DRIVER_CODE:DIAG_DIO_TestPattern_LS)
000bd990  local     $C$L68 (.IO_DRIVER_CODE:DIAG_DIO_TestPattern_LS)
000bd9c0  local     $C$L69 (.IO_DRIVER_CODE:DIAG_DIO_TestPattern_LS)
000bcdc0  local     $C$L7 (.IO_DRIVER_CODE:DIAG_DIO_TestPattern_HS)
000bd9e0  local     $C$L70 (.IO_DRIVER_CODE:DIAG_DIO_TestPattern_LS)
000bda00  local     $C$L71 (.IO_DRIVER_CODE:DIAG_DIO_TestPattern_LS)
000bda20  local     $C$L72 (.IO_DRIVER_CODE:DIAG_DIO_TestPattern_LS)
000bda44  local     $C$L73 (.IO_DRIVER_CODE:DIAG_DIO_TestPattern_LS)
000bda48  local     $C$L74 (.IO_DRIVER_CODE:DIAG_DIO_TestPattern_LS)
000bda60  local     $C$L75 (.IO_DRIVER_CODE:DIAG_DIO_TestPattern_LS)
000bda80  local     $C$L76 (.IO_DRIVER_CODE:DIAG_DIO_TestPattern_LS)
000bdab4  local     $C$L77 (.IO_DRIVER_CODE:DIAG_DIO_TestPattern_LS)
000bdac8  local     $C$L78 (.IO_DRIVER_CODE:DIAG_DIO_TestPattern_LS)
000bdae0  local     $C$L79 (.IO_DRIVER_CODE:DIAG_DIO_TestPattern_LS)
000bcdd8  local     $C$L8 (.IO_DRIVER_CODE:DIAG_DIO_TestPattern_HS)
000bdb14  local     $C$L80 (.IO_DRIVER_CODE:DIAG_DIO_TestPattern_LS)
000bdb20  local     $C$L81 (.IO_DRIVER_CODE:DIAG_DIO_TestPattern_LS)
000bdb24  local     $C$L82 (.IO_DRIVER_CODE:DIAG_DIO_TestPattern_LS)
000bdb50  local     $C$L83 (.IO_DRIVER_CODE:DIAG_DIO_TestPattern_LS)
000bdb94  local     $C$L84 (.IO_DRIVER_CODE:DIAG_DIO_TestPattern_LS)
000bdba0  local     $C$L85 (.IO_DRIVER_CODE:DIAG_DIO_TestPattern_LS)
000bdbec  local     $C$L86 (.IO_DRIVER_CODE:DIAG_DIO_TestPattern_LS)
000bdc3c  local     $C$L87 (.IO_DRIVER_CODE:DIAG_DIO_TestPattern_LS)
000bdc90  local     $C$L88 (.IO_DRIVER_CODE:DIAG_DIO_TestPattern_LS)
000bdcc4  local     $C$L89 (.IO_DRIVER_CODE:DIAG_DIO_TestPattern_LS)
000bcdf8  local     $C$L9 (.IO_DRIVER_CODE:DIAG_DIO_TestPattern_HS)
000bdcc8  local     $C$L90 (.IO_DRIVER_CODE:DIAG_DIO_TestPattern_LS)
000bdcf8  local     $C$L91 (.IO_DRIVER_CODE:DIAG_DIO_TestPattern_LS)
000bdd14  local     $C$L92 (.IO_DRIVER_CODE:DIAG_DIO_TestPattern_LS)
000bdd18  local     $C$L93 (.IO_DRIVER_CODE:DIAG_DIO_TestPattern_LS)
000bdd20  local     $C$L94 (.IO_DRIVER_CODE:DIAG_DIO_TestPattern_LS)
000bdd30  local     $C$L95 (.IO_DRIVER_CODE:DIAG_DIO_TestPattern_LS)
000bdd70  local     $C$L96 (.IO_DRIVER_CODE:DIAG_DIO_TestPattern_LS)
000bddb8  local     $C$L97 (.IO_DRIVER_CODE:DIAG_DIO_TestPattern_LS)
000bddc0  local     $C$L98 (.IO_DRIVER_CODE:DIAG_DIO_TestPattern_LS)
000bddf0  local     $C$L99 (.IO_DRIVER_CODE:DIAG_DIO_TestPattern_LS)
000bcb00  local     $a (.IO_DRIVER_CODE:DIAG_DIO_TestPattern_HS)
000bd0e0  local     $a (.IO_DRIVER_CODE:DIAG_DIO_TestPattern_PVG)
000bd450  local     $a (.IO_DRIVER_CODE:DIAG_DIO_TestPattern_LS)
000bded0  local     $a (.IO_DRIVER_CODE:DIAG_DIO_ShortCircuitTestPerform)
000c4220  local     $a (.IO_DRIVER_CODE:DIAG_DIO_ShortCircuitTestCheck)
000ba4a0  local     $a (.IO_DRIVER_CODE:DIAG_DIO_OutputCheck)
000ba57c  local     $a (.IO_DRIVER_CODE:DIAG_DIO_OutputCheck)
000b2030  local     $a (.IO_DRIVER_CODE:DIAG_DIO_ModuleInit)
000c4370  local     $a (.IO_DRIVER_CODE:DIAG_DIO_LoadCheck)
0803dbba  local     $d (.IO_DRIVER_DATA_NORMAL)
000ba574  local     $t (.IO_DRIVER_CODE:DIAG_DIO_OutputCheck)
000c4370  local     .IO_DRIVER_CODE:DIAG_DIO_LoadCheck (.IO_DRIVER_CODE:DIAG_DIO_LoadCheck)
000b2030  local     .IO_DRIVER_CODE:DIAG_DIO_ModuleInit (.IO_DRIVER_CODE:DIAG_DIO_ModuleInit)
000ba4a0  local     .IO_DRIVER_CODE:DIAG_DIO_OutputCheck (.IO_DRIVER_CODE:DIAG_DIO_OutputCheck)
000c4220  local     .IO_DRIVER_CODE:DIAG_DIO_ShortCircuitTestCheck (.IO_DRIVER_CODE:DIAG_DIO_ShortCircuitTestCheck)
000bded0  local     .IO_DRIVER_CODE:DIAG_DIO_ShortCircuitTestPerform (.IO_DRIVER_CODE:DIAG_DIO_ShortCircuitTestPerform)
000bcb00  local     .IO_DRIVER_CODE:DIAG_DIO_TestPattern_HS (.IO_DRIVER_CODE:DIAG_DIO_TestPattern_HS)
000bd450  local     .IO_DRIVER_CODE:DIAG_DIO_TestPattern_LS (.IO_DRIVER_CODE:DIAG_DIO_TestPattern_LS)
000bd0e0  local     .IO_DRIVER_CODE:DIAG_DIO_TestPattern_PVG (.IO_DRIVER_CODE:DIAG_DIO_TestPattern_PVG)
0803dbba  local     .IO_DRIVER_DATA_NORMAL (.IO_DRIVER_DATA_NORMAL)
00000000  local     .text (.text)
000c4370  global    DIAG_DIO_LoadCheck (.IO_DRIVER_CODE:DIAG_DIO_LoadCheck)
000b2030  global    DIAG_DIO_ModuleInit (.IO_DRIVER_CODE:DIAG_DIO_ModuleInit)
000ba4a0  global    DIAG_DIO_OutputCheck (.IO_DRIVER_CODE:DIAG_DIO_OutputCheck)
000c4220  global    DIAG_DIO_ShortCircuitTestCheck (.IO_DRIVER_CODE:DIAG_DIO_ShortCircuitTestCheck)
000bded0  global    DIAG_DIO_ShortCircuitTestPerform (.IO_DRIVER_CODE:DIAG_DIO_ShortCircuitTestPerform)
000bcb00  local     DIAG_DIO_TestPattern_HS (.IO_DRIVER_CODE:DIAG_DIO_TestPattern_HS)
000bd450  local     DIAG_DIO_TestPattern_LS (.IO_DRIVER_CODE:DIAG_DIO_TestPattern_LS)
000bd0e0  local     DIAG_DIO_TestPattern_PVG (.IO_DRIVER_CODE:DIAG_DIO_TestPattern_PVG)
0803dbba  local     diag_dio_checker_data (.IO_DRIVER_DATA_NORMAL)


================================================================================

ttc500.lib : drv_IO_INT_UART.obj

Run/Load            
Value     Binding   Name (Section)
--------  --------  ---------------
000c7a70  local     $C$L1 (.IO_DRIVER_CODE:IO_INT_UART_interrupt)
000c7b54  local     $C$L10 (.IO_DRIVER_CODE:IO_INT_UART_CircularBufferWrite)
000c7ba0  local     $C$L11 (.IO_DRIVER_CODE:IO_INT_UART_CircularBufferWrite)
000c7be4  local     $C$L12 (.IO_DRIVER_CODE:IO_INT_UART_CircularBufferWrite)
000c7bfc  local     $C$L13 (.IO_DRIVER_CODE:IO_INT_UART_CircularBufferWrite)
000c7c00  local     $C$L14 (.IO_DRIVER_CODE:IO_INT_UART_CircularBufferWrite)
000c7c90  local     $C$L15 (.IO_DRIVER_CODE:IO_INT_UART_RxDMAHandler)
000c7d00  local     $C$L16 (.IO_DRIVER_CODE:IO_INT_UART_RxDMAHandler)
000c7d18  local     $C$L17 (.IO_DRIVER_CODE:IO_INT_UART_RxDMAHandler)
000c7d4c  local     $C$L18 (.IO_DRIVER_CODE:IO_INT_UART_RxDMAHandler)
000c7d54  local     $C$L19 (.IO_DRIVER_CODE:IO_INT_UART_RxDMAHandler)
000c7a80  local     $C$L2 (.IO_DRIVER_CODE:IO_INT_UART_interrupt)
000c7d5c  local     $C$L20 (.IO_DRIVER_CODE:IO_INT_UART_RxDMAHandler)
000c7d9c  local     $C$L21 (.IO_DRIVER_CODE:IO_INT_UART_RxDMAHandler)
000c7da8  local     $C$L22 (.IO_DRIVER_CODE:IO_INT_UART_RxDMAHandler)
000c7a8c  local     $C$L3 (.IO_DRIVER_CODE:IO_INT_UART_interrupt)
000bf094  local     $C$L4 (.IO_DRIVER_CODE:IO_INT_UART_CircularBufferRead)
000bf0e8  local     $C$L5 (.IO_DRIVER_CODE:IO_INT_UART_CircularBufferRead)
000bf130  local     $C$L6 (.IO_DRIVER_CODE:IO_INT_UART_CircularBufferRead)
000bf13c  local     $C$L7 (.IO_DRIVER_CODE:IO_INT_UART_CircularBufferRead)
000bf210  local     $C$L8 (.IO_DRIVER_CODE:IO_INT_UART_StartTxDMA)
000bf040  local     $C$L9 (.IO_DRIVER_CODE:IO_INT_UART_StopTxDMA)
000cb984  local     $P$T0$1 (.const)
000cb988  local     $P$T1$2 (.const)
000c7a10  local     $a (.IO_DRIVER_CODE:IO_INT_UART_interrupt)
000c7aa0  local     $a (.IO_DRIVER_CODE:IO_INT_UART_int)
000bf050  local     $a (.IO_DRIVER_CODE:IO_INT_UART_CircularBufferRead)
000bf150  local     $a (.IO_DRIVER_CODE:IO_INT_UART_StartTxDMA)
000bf220  local     $a (.IO_DRIVER_CODE:IO_INT_UART_TxDMAHandler)
000beff0  local     $a (.IO_DRIVER_CODE:IO_INT_UART_StopTxDMA)
00000000  local     $a (.IO_DRIVER_CODE:IO_INT_UART_StopRxDMA)
00000000  local     $a (.IO_DRIVER_CODE:IO_INT_UART_StartRxDMA)
000c7b10  local     $a (.IO_DRIVER_CODE:IO_INT_UART_CircularBufferWrite)
000c7c10  local     $a (.IO_DRIVER_CODE:IO_INT_UART_RxDMAHandler)
00000000  local     $a (.IO_DRIVER_CODE:IO_INT_UART_CircularBufferGetUsed)
00000000  local     $a (.IO_DRIVER_CODE:IO_INT_UART_CircularBufferGetFree)
0803c3f0  local     $d (.IO_DRIVER_DATA_NORMAL)
0803c5fc  local     $d (.IO_DRIVER_DATA_NORMAL)
0803c808  local     $d (.IO_DRIVER_DATA_NORMAL)
0803c80c  local     $d (.IO_DRIVER_DATA_NORMAL)
0803c84c  local     $d (.IO_DRIVER_DATA_NORMAL)
0803c850  local     $d (.IO_DRIVER_DATA_NORMAL)
000cb984  local     $d (.const)
000cb988  local     $d (.const)
00000000  local     .IO_DRIVER_CODE:IO_INT_UART_CircularBufferGetFree (.IO_DRIVER_CODE:IO_INT_UART_CircularBufferGetFree)
00000000  local     .IO_DRIVER_CODE:IO_INT_UART_CircularBufferGetUsed (.IO_DRIVER_CODE:IO_INT_UART_CircularBufferGetUsed)
000bf050  local     .IO_DRIVER_CODE:IO_INT_UART_CircularBufferRead (.IO_DRIVER_CODE:IO_INT_UART_CircularBufferRead)
000c7b10  local     .IO_DRIVER_CODE:IO_INT_UART_CircularBufferWrite (.IO_DRIVER_CODE:IO_INT_UART_CircularBufferWrite)
000c7c10  local     .IO_DRIVER_CODE:IO_INT_UART_RxDMAHandler (.IO_DRIVER_CODE:IO_INT_UART_RxDMAHandler)
00000000  local     .IO_DRIVER_CODE:IO_INT_UART_StartRxDMA (.IO_DRIVER_CODE:IO_INT_UART_StartRxDMA)
000bf150  local     .IO_DRIVER_CODE:IO_INT_UART_StartTxDMA (.IO_DRIVER_CODE:IO_INT_UART_StartTxDMA)
00000000  local     .IO_DRIVER_CODE:IO_INT_UART_StopRxDMA (.IO_DRIVER_CODE:IO_INT_UART_StopRxDMA)
000beff0  local     .IO_DRIVER_CODE:IO_INT_UART_StopTxDMA (.IO_DRIVER_CODE:IO_INT_UART_StopTxDMA)
000bf220  local     .IO_DRIVER_CODE:IO_INT_UART_TxDMAHandler (.IO_DRIVER_CODE:IO_INT_UART_TxDMAHandler)
000c7aa0  local     .IO_DRIVER_CODE:IO_INT_UART_int (.IO_DRIVER_CODE:IO_INT_UART_int)
000c7a10  local     .IO_DRIVER_CODE:IO_INT_UART_interrupt (.IO_DRIVER_CODE:IO_INT_UART_interrupt)
0803c3f0  local     .IO_DRIVER_DATA_NORMAL (.IO_DRIVER_DATA_NORMAL)
000cb984  local     .const (.const)
00000000  local     .text (.text)
00000000  global    IO_INT_UART_CircularBufferGetFree (.IO_DRIVER_CODE:IO_INT_UART_CircularBufferGetFree)
00000000  global    IO_INT_UART_CircularBufferGetUsed (.IO_DRIVER_CODE:IO_INT_UART_CircularBufferGetUsed)
000bf050  global    IO_INT_UART_CircularBufferRead (.IO_DRIVER_CODE:IO_INT_UART_CircularBufferRead)
000c7b10  global    IO_INT_UART_CircularBufferWrite (.IO_DRIVER_CODE:IO_INT_UART_CircularBufferWrite)
000c7c10  global    IO_INT_UART_RxDMAHandler (.IO_DRIVER_CODE:IO_INT_UART_RxDMAHandler)
0803c850  global    IO_INT_UART_RxDmaBuffer (.IO_DRIVER_DATA_NORMAL)
00000000  global    IO_INT_UART_StartRxDMA (.IO_DRIVER_CODE:IO_INT_UART_StartRxDMA)
000bf150  local     IO_INT_UART_StartTxDMA (.IO_DRIVER_CODE:IO_INT_UART_StartTxDMA)
00000000  global    IO_INT_UART_StopRxDMA (.IO_DRIVER_CODE:IO_INT_UART_StopRxDMA)
000beff0  global    IO_INT_UART_StopTxDMA (.IO_DRIVER_CODE:IO_INT_UART_StopTxDMA)
000bf220  global    IO_INT_UART_TxDMAHandler (.IO_DRIVER_CODE:IO_INT_UART_TxDMAHandler)
0803c80c  global    IO_INT_UART_TxDmaBuffer (.IO_DRIVER_DATA_NORMAL)
0803c84c  global    IO_INT_UART_TxDmaRunning (.IO_DRIVER_DATA_NORMAL)
000c7aa0  global    IO_INT_UART_int (.IO_DRIVER_CODE:IO_INT_UART_int)
000c7a10  local     IO_INT_UART_interrupt (.IO_DRIVER_CODE:IO_INT_UART_interrupt)
0803c5fc  global    io_int_uart_buffer_rx (.IO_DRIVER_DATA_NORMAL)
0803c3f0  global    io_int_uart_buffer_tx (.IO_DRIVER_DATA_NORMAL)
0803c808  global    io_int_uart_int_rx_error (.IO_DRIVER_DATA_NORMAL)


================================================================================

ttc500.lib : drv_IO_POWER.obj

Run/Load            
Value     Binding   Name (Section)
--------  --------  ---------------
000b0ca0  local     $C$L1 (.IO_DRIVER_CODE:IO_POWER_DisableSSWOutputs)
000b13f0  local     $C$L10 (.IO_DRIVER_CODE:IO_POWER_WriteMode)
000b1460  local     $C$L11 (.IO_DRIVER_CODE:IO_POWER_WriteMode)
000b1474  local     $C$L12 (.IO_DRIVER_CODE:IO_POWER_WriteMode)
000b1490  local     $C$L13 (.IO_DRIVER_CODE:IO_POWER_WriteMode)
000b14c0  local     $C$L14 (.IO_DRIVER_CODE:IO_POWER_WriteMode)
000b1500  local     $C$L15 (.IO_DRIVER_CODE:IO_POWER_WriteMode)
000b1504  local     $C$L16 (.IO_DRIVER_CODE:IO_POWER_WriteMode)
000b1590  local     $C$L17 (.IO_DRIVER_CODE:IO_POWER_WriteMode)
000b15cc  local     $C$L18 (.IO_DRIVER_CODE:IO_POWER_WriteMode)
000b15d4  local     $C$L19 (.IO_DRIVER_CODE:IO_POWER_WriteMode)
000b0ce0  local     $C$L2 (.IO_DRIVER_CODE:IO_POWER_DisableSSWOutputs)
000b15e8  local     $C$L20 (.IO_DRIVER_CODE:IO_POWER_WriteMode)
000b15f0  local     $C$L21 (.IO_DRIVER_CODE:IO_POWER_WriteMode)
000b15f4  local     $C$L22 (.IO_DRIVER_CODE:IO_POWER_WriteMode)
000b161c  local     $C$L23 (.IO_DRIVER_CODE:IO_POWER_WriteMode)
000b1624  local     $C$L24 (.IO_DRIVER_CODE:IO_POWER_WriteMode)
000b1628  local     $C$L25 (.IO_DRIVER_CODE:IO_POWER_WriteMode)
000b162c  local     $C$L26 (.IO_DRIVER_CODE:IO_POWER_WriteMode)
000bf80c  local     $C$L27 (.IO_DRIVER_CODE:IO_POWER_ShutDown_Task)
000bf810  local     $C$L28 (.IO_DRIVER_CODE:IO_POWER_ShutDown_Task)
000bf834  local     $C$L29 (.IO_DRIVER_CODE:IO_POWER_ShutDown_Task)
000b11f0  local     $C$L3 (.IO_DRIVER_CODE:IO_POWER_EnableSSWOutputs)
000bf850  local     $C$L30 (.IO_DRIVER_CODE:IO_POWER_ShutDown_Task)
000bf858  local     $C$L31 (.IO_DRIVER_CODE:IO_POWER_ShutDown_Task)
000bf870  local     $C$L32 (.IO_DRIVER_CODE:IO_POWER_ShutDown_Task)
00000078  local     $C$L33 (.IO_DRIVER_CODE:IO_POWER_Set)
00000088  local     $C$L34 (.IO_DRIVER_CODE:IO_POWER_Set)
000000d0  local     $C$L35 (.IO_DRIVER_CODE:IO_POWER_Set)
000000f8  local     $C$L36 (.IO_DRIVER_CODE:IO_POWER_Set)
00000104  local     $C$L37 (.IO_DRIVER_CODE:IO_POWER_Set)
0000010c  local     $C$L38 (.IO_DRIVER_CODE:IO_POWER_Set)
000b3f90  local     $C$L39 (.IO_DRIVER_CODE:IO_POWER_Init)
000b123c  local     $C$L4 (.IO_DRIVER_CODE:IO_POWER_EnableSSWOutputs)
00000098  local     $C$L40 (.IO_DRIVER_CODE:IO_POWER_Get)
00000100  local     $C$L41 (.IO_DRIVER_CODE:IO_POWER_Get)
00000120  local     $C$L42 (.IO_DRIVER_CODE:IO_POWER_Get)
00000174  local     $C$L43 (.IO_DRIVER_CODE:IO_POWER_Get)
0000017c  local     $C$L44 (.IO_DRIVER_CODE:IO_POWER_Get)
00000194  local     $C$L45 (.IO_DRIVER_CODE:IO_POWER_Get)
0000019c  local     $C$L46 (.IO_DRIVER_CODE:IO_POWER_Get)
000001b0  local     $C$L47 (.IO_DRIVER_CODE:IO_POWER_Get)
000001c0  local     $C$L48 (.IO_DRIVER_CODE:IO_POWER_Get)
000001c4  local     $C$L49 (.IO_DRIVER_CODE:IO_POWER_Get)
000b1360  local     $C$L5 (.IO_DRIVER_CODE:IO_POWER_WriteMode)
000001c8  local     $C$L50 (.IO_DRIVER_CODE:IO_POWER_Get)
000001cc  local     $C$L51 (.IO_DRIVER_CODE:IO_POWER_Get)
000000fc  local     $C$L52 (.IO_DRIVER_CODE:IO_POWER_EnableExtShutOff)
00000100  local     $C$L53 (.IO_DRIVER_CODE:IO_POWER_EnableExtShutOff)
000b13ac  local     $C$L6 (.IO_DRIVER_CODE:IO_POWER_WriteMode)
000b13b0  local     $C$L7 (.IO_DRIVER_CODE:IO_POWER_WriteMode)
000b13bc  local     $C$L8 (.IO_DRIVER_CODE:IO_POWER_WriteMode)
000b13c8  local     $C$L9 (.IO_DRIVER_CODE:IO_POWER_WriteMode)
000b0c70  local     $a (.IO_DRIVER_CODE:IO_POWER_DisableSSWOutputs)
000b11b0  local     $a (.IO_DRIVER_CODE:IO_POWER_EnableSSWOutputs)
000b1250  local     $a (.IO_DRIVER_CODE:IO_POWER_WriteMode)
000bf7a0  local     $a (.IO_DRIVER_CODE:IO_POWER_ShutDown_Task)
00000000  local     $a (.IO_DRIVER_CODE:IO_POWER_Set)
000c40f0  local     $a (.IO_DRIVER_CODE:IO_POWER_Restore)
000b3f50  local     $a (.IO_DRIVER_CODE:IO_POWER_Init)
00000000  local     $a (.IO_DRIVER_CODE:IO_POWER_GetExtShutOff)
00000000  local     $a (.IO_DRIVER_CODE:IO_POWER_Get)
00000000  local     $a (.IO_DRIVER_CODE:IO_POWER_EnableExtShutOff)
000cb15c  local     $d (.IO_DRIVER_CONST)
0803db84  local     $d (.IO_DRIVER_DATA_NORMAL)
0803db9c  local     $d (.IO_DRIVER_DATA_NORMAL)
0803db9d  local     $d (.IO_DRIVER_DATA_NORMAL)
0803db9e  local     $d (.IO_DRIVER_DATA_NORMAL)
000b0c70  local     .IO_DRIVER_CODE:IO_POWER_DisableSSWOutputs (.IO_DRIVER_CODE:IO_POWER_DisableSSWOutputs)
00000000  local     .IO_DRIVER_CODE:IO_POWER_EnableExtShutOff (.IO_DRIVER_CODE:IO_POWER_EnableExtShutOff)
000b11b0  local     .IO_DRIVER_CODE:IO_POWER_EnableSSWOutputs (.IO_DRIVER_CODE:IO_POWER_EnableSSWOutputs)
00000000  local     .IO_DRIVER_CODE:IO_POWER_Get (.IO_DRIVER_CODE:IO_POWER_Get)
00000000  local     .IO_DRIVER_CODE:IO_POWER_GetExtShutOff (.IO_DRIVER_CODE:IO_POWER_GetExtShutOff)
000b3f50  local     .IO_DRIVER_CODE:IO_POWER_Init (.IO_DRIVER_CODE:IO_POWER_Init)
000c40f0  local     .IO_DRIVER_CODE:IO_POWER_Restore (.IO_DRIVER_CODE:IO_POWER_Restore)
00000000  local     .IO_DRIVER_CODE:IO_POWER_Set (.IO_DRIVER_CODE:IO_POWER_Set)
000bf7a0  local     .IO_DRIVER_CODE:IO_POWER_ShutDown_Task (.IO_DRIVER_CODE:IO_POWER_ShutDown_Task)
000b1250  local     .IO_DRIVER_CODE:IO_POWER_WriteMode (.IO_DRIVER_CODE:IO_POWER_WriteMode)
000cb15c  local     .IO_DRIVER_CONST (.IO_DRIVER_CONST)
0803db84  local     .IO_DRIVER_DATA_NORMAL (.IO_DRIVER_DATA_NORMAL)
00000000  local     .text (.text)
000b0c70  local     IO_POWER_DisableSSWOutputs (.IO_DRIVER_CODE:IO_POWER_DisableSSWOutputs)
00000000  global    IO_POWER_EnableExtShutOff (.IO_DRIVER_CODE:IO_POWER_EnableExtShutOff)
000b11b0  local     IO_POWER_EnableSSWOutputs (.IO_DRIVER_CODE:IO_POWER_EnableSSWOutputs)
00000000  global    IO_POWER_Get (.IO_DRIVER_CODE:IO_POWER_Get)
00000000  global    IO_POWER_GetExtShutOff (.IO_DRIVER_CODE:IO_POWER_GetExtShutOff)
000b3f50  global    IO_POWER_Init (.IO_DRIVER_CODE:IO_POWER_Init)
000c40f0  global    IO_POWER_Restore (.IO_DRIVER_CODE:IO_POWER_Restore)
00000000  global    IO_POWER_Set (.IO_DRIVER_CODE:IO_POWER_Set)
000bf7a0  global    IO_POWER_ShutDown_Task (.IO_DRIVER_CODE:IO_POWER_ShutDown_Task)
000b1250  global    IO_POWER_WriteMode (.IO_DRIVER_CODE:IO_POWER_WriteMode)
0803db9d  local     io_power_shutdown_req (.IO_DRIVER_DATA_NORMAL)
000cb15c  local     io_power_ssup_voltage (.IO_DRIVER_CONST)
0803db9c  global    io_power_stage_enable (.IO_DRIVER_DATA_NORMAL)
0803db84  global    io_power_stat_tb (.IO_DRIVER_DATA_NORMAL)
0803db9e  local     shut_down_state (.IO_DRIVER_DATA_NORMAL)


================================================================================

ttc500.lib : drv_DIAG_INT_ENTR_Check.obj

Run/Load            
Value     Binding   Name (Section)
--------  --------  ---------------
000bc048  local     $C$L1 (.IO_DRIVER_CODE:DIAG_ENTR_TestPerform)
000bc29c  local     $C$L10 (.IO_DRIVER_CODE:DIAG_ENTR_TestPerform)
000bc2ac  local     $C$L11 (.IO_DRIVER_CODE:DIAG_ENTR_TestPerform)
000bc2b8  local     $C$L12 (.IO_DRIVER_CODE:DIAG_ENTR_TestPerform)
000bc2bc  local     $C$L13 (.IO_DRIVER_CODE:DIAG_ENTR_TestPerform)
000bc2d0  local     $C$L14 (.IO_DRIVER_CODE:DIAG_ENTR_TestPerform)
000bc2e0  local     $C$L15 (.IO_DRIVER_CODE:DIAG_ENTR_TestPerform)
000bc310  local     $C$L16 (.IO_DRIVER_CODE:DIAG_ENTR_TestPerform)
000bc37c  local     $C$L17 (.IO_DRIVER_CODE:DIAG_ENTR_TestPerform)
000bc3ec  local     $C$L18 (.IO_DRIVER_CODE:DIAG_ENTR_TestPerform)
000bc3fc  local     $C$L19 (.IO_DRIVER_CODE:DIAG_ENTR_TestPerform)
000bc090  local     $C$L2 (.IO_DRIVER_CODE:DIAG_ENTR_TestPerform)
000bc420  local     $C$L20 (.IO_DRIVER_CODE:DIAG_ENTR_TestPerform)
000bc494  local     $C$L21 (.IO_DRIVER_CODE:DIAG_ENTR_TestPerform)
000bc4a8  local     $C$L22 (.IO_DRIVER_CODE:DIAG_ENTR_TestPerform)
000bc4c8  local     $C$L23 (.IO_DRIVER_CODE:DIAG_ENTR_TestPerform)
000bc510  local     $C$L24 (.IO_DRIVER_CODE:DIAG_ENTR_TestPerform)
000bc538  local     $C$L25 (.IO_DRIVER_CODE:DIAG_ENTR_TestPerform)
000bc550  local     $C$L26 (.IO_DRIVER_CODE:DIAG_ENTR_TestPerform)
000bc580  local     $C$L27 (.IO_DRIVER_CODE:DIAG_ENTR_TestPerform)
000bc594  local     $C$L28 (.IO_DRIVER_CODE:DIAG_ENTR_TestPerform)
000bc5b0  local     $C$L29 (.IO_DRIVER_CODE:DIAG_ENTR_TestPerform)
000bc104  local     $C$L3 (.IO_DRIVER_CODE:DIAG_ENTR_TestPerform)
000bc604  local     $C$L30 (.IO_DRIVER_CODE:DIAG_ENTR_TestPerform)
000bc614  local     $C$L31 (.IO_DRIVER_CODE:DIAG_ENTR_TestPerform)
000bc630  local     $C$L32 (.IO_DRIVER_CODE:DIAG_ENTR_TestPerform)
000bc674  local     $C$L33 (.IO_DRIVER_CODE:DIAG_ENTR_TestPerform)
000bc6a4  local     $C$L34 (.IO_DRIVER_CODE:DIAG_ENTR_TestPerform)
000bc6ec  local     $C$L35 (.IO_DRIVER_CODE:DIAG_ENTR_TestPerform)
000bc720  local     $C$L36 (.IO_DRIVER_CODE:DIAG_ENTR_TestPerform)
000bc724  local     $C$L37 (.IO_DRIVER_CODE:DIAG_ENTR_TestPerform)
000bc730  local     $C$L38 (.IO_DRIVER_CODE:DIAG_ENTR_TestPerform)
000bc74c  local     $C$L39 (.IO_DRIVER_CODE:DIAG_ENTR_TestPerform)
000bc120  local     $C$L4 (.IO_DRIVER_CODE:DIAG_ENTR_TestPerform)
000bc780  local     $C$L40 (.IO_DRIVER_CODE:DIAG_ENTR_TestPerform)
000bc7a0  local     $C$L41 (.IO_DRIVER_CODE:DIAG_ENTR_TestPerform)
000bc80c  local     $C$L42 (.IO_DRIVER_CODE:DIAG_ENTR_TestPerform)
000bc880  local     $C$L43 (.IO_DRIVER_CODE:DIAG_ENTR_TestPerform)
000bc884  local     $C$L44 (.IO_DRIVER_CODE:DIAG_ENTR_TestPerform)
000bc890  local     $C$L45 (.IO_DRIVER_CODE:DIAG_ENTR_TestPerform)
000bc8d0  local     $C$L46 (.IO_DRIVER_CODE:DIAG_ENTR_TestPerform)
000bc8f8  local     $C$L47 (.IO_DRIVER_CODE:DIAG_ENTR_TestPerform)
000bc910  local     $C$L48 (.IO_DRIVER_CODE:DIAG_ENTR_TestPerform)
000bc940  local     $C$L49 (.IO_DRIVER_CODE:DIAG_ENTR_TestPerform)
000bc140  local     $C$L5 (.IO_DRIVER_CODE:DIAG_ENTR_TestPerform)
000bc970  local     $C$L50 (.IO_DRIVER_CODE:DIAG_ENTR_TestPerform)
000bc994  local     $C$L51 (.IO_DRIVER_CODE:DIAG_ENTR_TestPerform)
000bc9c0  local     $C$L52 (.IO_DRIVER_CODE:DIAG_ENTR_TestPerform)
000bc9f0  local     $C$L53 (.IO_DRIVER_CODE:DIAG_ENTR_TestPerform)
000bca64  local     $C$L54 (.IO_DRIVER_CODE:DIAG_ENTR_TestPerform)
000bca78  local     $C$L55 (.IO_DRIVER_CODE:DIAG_ENTR_TestPerform)
000bcaa4  local     $C$L56 (.IO_DRIVER_CODE:DIAG_ENTR_TestPerform)
000bcad0  local     $C$L57 (.IO_DRIVER_CODE:DIAG_ENTR_TestPerform)
000bcae0  local     $C$L58 (.IO_DRIVER_CODE:DIAG_ENTR_TestPerform)
000bcaf0  local     $C$L59 (.IO_DRIVER_CODE:DIAG_ENTR_TestPerform)
000bc194  local     $C$L6 (.IO_DRIVER_CODE:DIAG_ENTR_TestPerform)
000bcaf4  local     $C$L60 (.IO_DRIVER_CODE:DIAG_ENTR_TestPerform)
000bc1a4  local     $C$L7 (.IO_DRIVER_CODE:DIAG_ENTR_TestPerform)
000bc1c0  local     $C$L8 (.IO_DRIVER_CODE:DIAG_ENTR_TestPerform)
000bc22c  local     $C$L9 (.IO_DRIVER_CODE:DIAG_ENTR_TestPerform)
000bc020  local     $C$SW1 (.IO_DRIVER_CODE:DIAG_ENTR_TestPerform)
000bbfc0  local     $a (.IO_DRIVER_CODE:DIAG_ENTR_TestPerform)
000bc048  local     $a (.IO_DRIVER_CODE:DIAG_ENTR_TestPerform)
000c41a0  local     $a (.IO_DRIVER_CODE:DIAG_ENTR_TestCheck)
000b2080  local     $a (.IO_DRIVER_CODE:DIAG_ENTR_ModuleInit)
000bc020  local     $d (.IO_DRIVER_CODE:DIAG_ENTR_TestPerform)
0803dc4c  local     $d (.IO_DRIVER_DATA_NORMAL)
000b2080  local     .IO_DRIVER_CODE:DIAG_ENTR_ModuleInit (.IO_DRIVER_CODE:DIAG_ENTR_ModuleInit)
000c41a0  local     .IO_DRIVER_CODE:DIAG_ENTR_TestCheck (.IO_DRIVER_CODE:DIAG_ENTR_TestCheck)
000bbfc0  local     .IO_DRIVER_CODE:DIAG_ENTR_TestPerform (.IO_DRIVER_CODE:DIAG_ENTR_TestPerform)
0803dc4c  local     .IO_DRIVER_DATA_NORMAL (.IO_DRIVER_DATA_NORMAL)
00000000  local     .text (.text)
000b2080  global    DIAG_ENTR_ModuleInit (.IO_DRIVER_CODE:DIAG_ENTR_ModuleInit)
000c41a0  global    DIAG_ENTR_TestCheck (.IO_DRIVER_CODE:DIAG_ENTR_TestCheck)
000bbfc0  global    DIAG_ENTR_TestPerform (.IO_DRIVER_CODE:DIAG_ENTR_TestPerform)
0803dc4c  local     diag_entr_checker_data (.IO_DRIVER_DATA_NORMAL)


================================================================================

ttc500.lib : drv_IO_PWM.obj

Run/Load            
Value     Binding   Name (Section)
--------  --------  ---------------
000b60a4  local     $C$L1 (.IO_DRIVER_CODE:IO_PWM_StatusInit)
000c3644  local     $C$L10 (.IO_DRIVER_CODE:IO_PWM_WriteOutput)
000c3f04  local     $C$L100 (.IO_DRIVER_CODE:IO_PWM_ProtectionTask)
000c3f54  local     $C$L101 (.IO_DRIVER_CODE:IO_PWM_ProtectionTask)
000c3f58  local     $C$L102 (.IO_DRIVER_CODE:IO_PWM_ProtectionTask)
000bb320  local     $C$L103 (.IO_DRIVER_CODE:IO_PWM_ReadDuty)
000bb338  local     $C$L104 (.IO_DRIVER_CODE:IO_PWM_ReadDuty)
000bb37c  local     $C$L105 (.IO_DRIVER_CODE:IO_PWM_ReadDuty)
000bb388  local     $C$L106 (.IO_DRIVER_CODE:IO_PWM_ReadDuty)
000bb470  local     $C$L107 (.IO_DRIVER_CODE:IO_PWM_ReadFeedback)
000bb480  local     $C$L108 (.IO_DRIVER_CODE:IO_PWM_ReadFeedback)
000bb490  local     $C$L109 (.IO_DRIVER_CODE:IO_PWM_ReadFeedback)
000c3648  local     $C$L11 (.IO_DRIVER_CODE:IO_PWM_WriteOutput)
000bb4d0  local     $C$L110 (.IO_DRIVER_CODE:IO_PWM_ReadFeedback)
000bb4e0  local     $C$L111 (.IO_DRIVER_CODE:IO_PWM_ReadFeedback)
000bb4e4  local     $C$L112 (.IO_DRIVER_CODE:IO_PWM_ReadFeedback)
000bb4f4  local     $C$L113 (.IO_DRIVER_CODE:IO_PWM_ReadFeedback)
000bb4f8  local     $C$L114 (.IO_DRIVER_CODE:IO_PWM_ReadFeedback)
000bb504  local     $C$L115 (.IO_DRIVER_CODE:IO_PWM_ReadFeedback)
000bb5a0  local     $C$L116 (.IO_DRIVER_CODE:IO_PWM_ReadFeedback)
000bb5b8  local     $C$L117 (.IO_DRIVER_CODE:IO_PWM_ReadFeedback)
000bb5cc  local     $C$L118 (.IO_DRIVER_CODE:IO_PWM_ReadFeedback)
000bb5e0  local     $C$L119 (.IO_DRIVER_CODE:IO_PWM_ReadFeedback)
000c364c  local     $C$L12 (.IO_DRIVER_CODE:IO_PWM_WriteOutput)
000bb5e4  local     $C$L120 (.IO_DRIVER_CODE:IO_PWM_ReadFeedback)
000bb610  local     $C$L121 (.IO_DRIVER_CODE:IO_PWM_ReadFeedback)
000bb620  local     $C$L122 (.IO_DRIVER_CODE:IO_PWM_ReadFeedback)
000bb634  local     $C$L123 (.IO_DRIVER_CODE:IO_PWM_ReadFeedback)
000bb64c  local     $C$L124 (.IO_DRIVER_CODE:IO_PWM_ReadFeedback)
000bb6a8  local     $C$L125 (.IO_DRIVER_CODE:IO_PWM_ReadFeedback)
000bb6c4  local     $C$L126 (.IO_DRIVER_CODE:IO_PWM_ReadFeedback)
000bb700  local     $C$L127 (.IO_DRIVER_CODE:IO_PWM_ReadFeedback)
000bb724  local     $C$L128 (.IO_DRIVER_CODE:IO_PWM_ReadFeedback)
000bb728  local     $C$L129 (.IO_DRIVER_CODE:IO_PWM_ReadFeedback)
000000b0  local     $C$L13 (.IO_DRIVER_CODE:IO_PWM_SafetyStep)
000bbd68  local     $C$L130 (.IO_DRIVER_CODE:IO_PWM_Startup)
000bbde0  local     $C$L131 (.IO_DRIVER_CODE:IO_PWM_N2HETx_interrupt)
000bbe14  local     $C$L132 (.IO_DRIVER_CODE:IO_PWM_N2HETx_interrupt)
000bbe20  local     $C$L133 (.IO_DRIVER_CODE:IO_PWM_N2HETx_interrupt)
000bbe38  local     $C$L134 (.IO_DRIVER_CODE:IO_PWM_N2HETx_interrupt)
000bbe40  local     $C$L135 (.IO_DRIVER_CODE:IO_PWM_N2HETx_interrupt)
000bbe44  local     $C$L136 (.IO_DRIVER_CODE:IO_PWM_N2HETx_interrupt)
000bbe68  local     $C$L137 (.IO_DRIVER_CODE:IO_PWM_N2HETx_interrupt)
000bbe74  local     $C$L138 (.IO_DRIVER_CODE:IO_PWM_N2HETx_interrupt)
000bbe7c  local     $C$L139 (.IO_DRIVER_CODE:IO_PWM_N2HETx_interrupt)
00000088  local     $C$L14 (.IO_DRIVER_CODE:IO_PWM_SetDuty_Int)
000bbe90  local     $C$L140 (.IO_DRIVER_CODE:IO_PWM_N2HETx_interrupt)
000bbec0  local     $C$L141 (.IO_DRIVER_CODE:IO_PWM_N2HETx_interrupt)
000bbeec  local     $C$L142 (.IO_DRIVER_CODE:IO_PWM_N2HETx_interrupt)
000bbef8  local     $C$L143 (.IO_DRIVER_CODE:IO_PWM_N2HETx_interrupt)
000bbf14  local     $C$L144 (.IO_DRIVER_CODE:IO_PWM_N2HETx_interrupt)
000bbf18  local     $C$L145 (.IO_DRIVER_CODE:IO_PWM_N2HETx_interrupt)
000bbf3c  local     $C$L146 (.IO_DRIVER_CODE:IO_PWM_N2HETx_interrupt)
000bbf48  local     $C$L147 (.IO_DRIVER_CODE:IO_PWM_N2HETx_interrupt)
000bbf50  local     $C$L148 (.IO_DRIVER_CODE:IO_PWM_N2HETx_interrupt)
000bbf64  local     $C$L149 (.IO_DRIVER_CODE:IO_PWM_N2HETx_interrupt)
00000094  local     $C$L15 (.IO_DRIVER_CODE:IO_PWM_SetDuty_Int)
00000058  local     $C$L150 (.IO_DRIVER_CODE:IO_PWM_CheckSafetyConf)
000000f4  local     $C$L151 (.IO_DRIVER_CODE:IO_PWM_SafetyInit)
000000e4  local     $C$L152 (.IO_DRIVER_CODE:IO_PWM_Init)
000000ec  local     $C$L153 (.IO_DRIVER_CODE:IO_PWM_Init)
00000124  local     $C$L154 (.IO_DRIVER_CODE:IO_PWM_Init)
00000130  local     $C$L155 (.IO_DRIVER_CODE:IO_PWM_Init)
000001a0  local     $C$L156 (.IO_DRIVER_CODE:IO_PWM_Init)
000001d8  local     $C$L157 (.IO_DRIVER_CODE:IO_PWM_Init)
00000210  local     $C$L158 (.IO_DRIVER_CODE:IO_PWM_Init)
00000220  local     $C$L159 (.IO_DRIVER_CODE:IO_PWM_Init)
00000098  local     $C$L16 (.IO_DRIVER_CODE:IO_PWM_SetDuty_Int)
0000032c  local     $C$L160 (.IO_DRIVER_CODE:IO_PWM_Init)
00000330  local     $C$L161 (.IO_DRIVER_CODE:IO_PWM_Init)
00000334  local     $C$L162 (.IO_DRIVER_CODE:IO_PWM_Init)
00000094  local     $C$L163 (.IO_DRIVER_CODE:IO_PWM_InitWithoutTruncationCheck)
00000060  local     $C$L164 (.IO_DRIVER_CODE:IO_PWM_InitWithLowside)
00000068  local     $C$L165 (.IO_DRIVER_CODE:IO_PWM_InitWithLowside)
00000094  local     $C$L166 (.IO_DRIVER_CODE:IO_PWM_InitWithLowside)
0000011c  local     $C$L167 (.IO_DRIVER_CODE:IO_PWM_GetCurQueue)
00000140  local     $C$L168 (.IO_DRIVER_CODE:IO_PWM_GetCurQueue)
00000170  local     $C$L169 (.IO_DRIVER_CODE:IO_PWM_GetCurQueue)
000000ac  local     $C$L17 (.IO_DRIVER_CODE:IO_PWM_SetDuty_Int)
000001a4  local     $C$L170 (.IO_DRIVER_CODE:IO_PWM_GetCurQueue)
000001e8  local     $C$L171 (.IO_DRIVER_CODE:IO_PWM_GetCurQueue)
000001ec  local     $C$L172 (.IO_DRIVER_CODE:IO_PWM_GetCurQueue)
00000134  local     $C$L173 (.IO_DRIVER_CODE:IO_PWM_GetCur)
00000160  local     $C$L174 (.IO_DRIVER_CODE:IO_PWM_GetCur)
00000170  local     $C$L175 (.IO_DRIVER_CODE:IO_PWM_GetCur)
00000070  local     $C$L176 (.IO_DRIVER_CODE:IO_PWM_SafetyDeInit)
00000090  local     $C$L177 (.IO_DRIVER_CODE:IO_PWM_SafetyDeInit)
000000b4  local     $C$L178 (.IO_DRIVER_CODE:IO_PWM_SafetyDeInit)
000000d8  local     $C$L179 (.IO_DRIVER_CODE:IO_PWM_SafetyDeInit)
000000f0  local     $C$L18 (.IO_DRIVER_CODE:IO_PWM_SetDuty)
00000120  local     $C$L180 (.IO_DRIVER_CODE:IO_PWM_SafetyDeInit)
0000017c  local     $C$L181 (.IO_DRIVER_CODE:IO_PWM_SafetyDeInit)
000000f4  local     $C$L182 (.IO_DRIVER_CODE:IO_PWM_DeInit)
00000150  local     $C$L183 (.IO_DRIVER_CODE:IO_PWM_DeInit)
00000198  local     $C$L184 (.IO_DRIVER_CODE:IO_PWM_DeInit)
0000019c  local     $C$L185 (.IO_DRIVER_CODE:IO_PWM_DeInit)
000001cc  local     $C$L186 (.IO_DRIVER_CODE:IO_PWM_DeInit)
000001d0  local     $C$L187 (.IO_DRIVER_CODE:IO_PWM_DeInit)
000bee70  local     $C$L188 (.IO_DRIVER_CODE:IO_PWM_CurrentCalc)
000beed0  local     $C$L189 (.IO_DRIVER_CODE:IO_PWM_CurrentCalc)
000000f4  local     $C$L19 (.IO_DRIVER_CODE:IO_PWM_SetDuty)
000beee0  local     $C$L190 (.IO_DRIVER_CODE:IO_PWM_CurrentCalc)
000beef4  local     $C$L191 (.IO_DRIVER_CODE:IO_PWM_CurrentCalc)
000bef0c  local     $C$L192 (.IO_DRIVER_CODE:IO_PWM_CurrentCalc)
000bef2c  local     $C$L193 (.IO_DRIVER_CODE:IO_PWM_CurrentCalc)
000bef3c  local     $C$L194 (.IO_DRIVER_CODE:IO_PWM_CurrentCalc)
00000078  local     $C$L2 (.IO_DRIVER_CODE:IO_PWM_Diag)
0000013c  local     $C$L20 (.IO_DRIVER_CODE:IO_PWM_SetDuty)
00000178  local     $C$L21 (.IO_DRIVER_CODE:IO_PWM_SetDuty)
00000194  local     $C$L22 (.IO_DRIVER_CODE:IO_PWM_SetDuty)
000001a4  local     $C$L23 (.IO_DRIVER_CODE:IO_PWM_SetDuty)
000001ac  local     $C$L24 (.IO_DRIVER_CODE:IO_PWM_SetDuty)
000001b4  local     $C$L25 (.IO_DRIVER_CODE:IO_PWM_SetDuty)
000001bc  local     $C$L26 (.IO_DRIVER_CODE:IO_PWM_SetDuty)
000001c4  local     $C$L27 (.IO_DRIVER_CODE:IO_PWM_SetDuty)
000001cc  local     $C$L28 (.IO_DRIVER_CODE:IO_PWM_SetDuty)
000001e0  local     $C$L29 (.IO_DRIVER_CODE:IO_PWM_SetDuty)
00000084  local     $C$L3 (.IO_DRIVER_CODE:IO_PWM_Diag)
00000200  local     $C$L30 (.IO_DRIVER_CODE:IO_PWM_SetDuty)
00000204  local     $C$L31 (.IO_DRIVER_CODE:IO_PWM_SetDuty)
0000020c  local     $C$L32 (.IO_DRIVER_CODE:IO_PWM_SetDuty)
000c3090  local     $C$L33 (.IO_DRIVER_CODE:IO_PWM_CalcPwmData)
000c30b0  local     $C$L34 (.IO_DRIVER_CODE:IO_PWM_CalcPwmData)
000c30c8  local     $C$L35 (.IO_DRIVER_CODE:IO_PWM_CalcPwmData)
000c3120  local     $C$L36 (.IO_DRIVER_CODE:IO_PWM_CalcPwmData)
000c3134  local     $C$L37 (.IO_DRIVER_CODE:IO_PWM_CalcPwmData)
00000104  local     $C$L38 (.IO_DRIVER_CODE:IO_PWM_ResetProtection)
0000010c  local     $C$L39 (.IO_DRIVER_CODE:IO_PWM_ResetProtection)
00000090  local     $C$L4 (.IO_DRIVER_CODE:IO_PWM_Diag)
00000114  local     $C$L40 (.IO_DRIVER_CODE:IO_PWM_ResetProtection)
00000120  local     $C$L41 (.IO_DRIVER_CODE:IO_PWM_ResetProtection)
00000134  local     $C$L42 (.IO_DRIVER_CODE:IO_PWM_ResetProtection)
000bb7e8  local     $C$L43 (.IO_DRIVER_CODE:IO_PWM_ReadPinLevel)
000bb808  local     $C$L44 (.IO_DRIVER_CODE:IO_PWM_ReadPinLevel)
000bb828  local     $C$L45 (.IO_DRIVER_CODE:IO_PWM_ReadPinLevel)
000bb82c  local     $C$L46 (.IO_DRIVER_CODE:IO_PWM_ReadPinLevel)
000c2c9c  local     $C$L47 (.IO_DRIVER_CODE:IO_PWM_CheckDOProtLimit)
000c2cc0  local     $C$L48 (.IO_DRIVER_CODE:IO_PWM_CheckDOProtLimit)
000c2cd0  local     $C$L49 (.IO_DRIVER_CODE:IO_PWM_CheckDOProtLimit)
00000098  local     $C$L5 (.IO_DRIVER_CODE:IO_PWM_Diag)
000c2cd8  local     $C$L50 (.IO_DRIVER_CODE:IO_PWM_CheckDOProtLimit)
000c2d18  local     $C$L51 (.IO_DRIVER_CODE:IO_PWM_CalcCurLimit)
000c2e14  local     $C$L52 (.IO_DRIVER_CODE:IO_PWM_CheckPWMProtLimit)
000c2e90  local     $C$L53 (.IO_DRIVER_CODE:IO_PWM_CheckPWMProtLimit)
000c2eb0  local     $C$L54 (.IO_DRIVER_CODE:IO_PWM_CheckPWMProtLimit)
000c2ecc  local     $C$L55 (.IO_DRIVER_CODE:IO_PWM_CheckPWMProtLimit)
000c2ed8  local     $C$L56 (.IO_DRIVER_CODE:IO_PWM_CheckPWMProtLimit)
000c2edc  local     $C$L57 (.IO_DRIVER_CODE:IO_PWM_CheckPWMProtLimit)
000c2f2c  local     $C$L58 (.IO_DRIVER_CODE:IO_PWM_CheckPWMProtLimit)
000c2f30  local     $C$L59 (.IO_DRIVER_CODE:IO_PWM_CheckPWMProtLimit)
000c35c0  local     $C$L6 (.IO_DRIVER_CODE:IO_PWM_WriteOutput)
000c2f58  local     $C$L60 (.IO_DRIVER_CODE:IO_PWM_CheckPWMProtLimit)
000c2f5c  local     $C$L61 (.IO_DRIVER_CODE:IO_PWM_CheckPWMProtLimit)
000c2f60  local     $C$L62 (.IO_DRIVER_CODE:IO_PWM_CheckPWMProtLimit)
000c2fc4  local     $C$L63 (.IO_DRIVER_CODE:IO_PWM_ProtectionTask_Int)
000c2fcc  local     $C$L64 (.IO_DRIVER_CODE:IO_PWM_ProtectionTask_Int)
000c3810  local     $C$L65 (.IO_DRIVER_CODE:IO_PWM_ProtectionTask)
000c3890  local     $C$L66 (.IO_DRIVER_CODE:IO_PWM_ProtectionTask)
000c38c0  local     $C$L67 (.IO_DRIVER_CODE:IO_PWM_ProtectionTask)
000c38f4  local     $C$L68 (.IO_DRIVER_CODE:IO_PWM_ProtectionTask)
000c3950  local     $C$L69 (.IO_DRIVER_CODE:IO_PWM_ProtectionTask)
000c35d0  local     $C$L7 (.IO_DRIVER_CODE:IO_PWM_WriteOutput)
000c3984  local     $C$L70 (.IO_DRIVER_CODE:IO_PWM_ProtectionTask)
000c39d0  local     $C$L71 (.IO_DRIVER_CODE:IO_PWM_ProtectionTask)
000c3a00  local     $C$L72 (.IO_DRIVER_CODE:IO_PWM_ProtectionTask)
000c3a1c  local     $C$L73 (.IO_DRIVER_CODE:IO_PWM_ProtectionTask)
000c3a28  local     $C$L74 (.IO_DRIVER_CODE:IO_PWM_ProtectionTask)
000c3a68  local     $C$L75 (.IO_DRIVER_CODE:IO_PWM_ProtectionTask)
000c3a6c  local     $C$L76 (.IO_DRIVER_CODE:IO_PWM_ProtectionTask)
000c3ac8  local     $C$L77 (.IO_DRIVER_CODE:IO_PWM_ProtectionTask)
000c3ad4  local     $C$L78 (.IO_DRIVER_CODE:IO_PWM_ProtectionTask)
000c3ae0  local     $C$L79 (.IO_DRIVER_CODE:IO_PWM_ProtectionTask)
000c3618  local     $C$L8 (.IO_DRIVER_CODE:IO_PWM_WriteOutput)
000c3ae4  local     $C$L80 (.IO_DRIVER_CODE:IO_PWM_ProtectionTask)
000c3b3c  local     $C$L81 (.IO_DRIVER_CODE:IO_PWM_ProtectionTask)
000c3b50  local     $C$L82 (.IO_DRIVER_CODE:IO_PWM_ProtectionTask)
000c3be0  local     $C$L83 (.IO_DRIVER_CODE:IO_PWM_ProtectionTask)
000c3c88  local     $C$L84 (.IO_DRIVER_CODE:IO_PWM_ProtectionTask)
000c3ca0  local     $C$L85 (.IO_DRIVER_CODE:IO_PWM_ProtectionTask)
000c3cd0  local     $C$L86 (.IO_DRIVER_CODE:IO_PWM_ProtectionTask)
000c3d28  local     $C$L87 (.IO_DRIVER_CODE:IO_PWM_ProtectionTask)
000c3d34  local     $C$L88 (.IO_DRIVER_CODE:IO_PWM_ProtectionTask)
000c3d80  local     $C$L89 (.IO_DRIVER_CODE:IO_PWM_ProtectionTask)
000c3638  local     $C$L9 (.IO_DRIVER_CODE:IO_PWM_WriteOutput)
000c3da8  local     $C$L90 (.IO_DRIVER_CODE:IO_PWM_ProtectionTask)
000c3de4  local     $C$L91 (.IO_DRIVER_CODE:IO_PWM_ProtectionTask)
000c3de8  local     $C$L92 (.IO_DRIVER_CODE:IO_PWM_ProtectionTask)
000c3e10  local     $C$L93 (.IO_DRIVER_CODE:IO_PWM_ProtectionTask)
000c3e24  local     $C$L94 (.IO_DRIVER_CODE:IO_PWM_ProtectionTask)
000c3e94  local     $C$L95 (.IO_DRIVER_CODE:IO_PWM_ProtectionTask)
000c3ea0  local     $C$L96 (.IO_DRIVER_CODE:IO_PWM_ProtectionTask)
000c3ec0  local     $C$L97 (.IO_DRIVER_CODE:IO_PWM_ProtectionTask)
000c3ef8  local     $C$L98 (.IO_DRIVER_CODE:IO_PWM_ProtectionTask)
000c3efc  local     $C$L99 (.IO_DRIVER_CODE:IO_PWM_ProtectionTask)
000b6010  local     $a (.IO_DRIVER_CODE:IO_PWM_StatusInit)
00000000  local     $a (.IO_DRIVER_CODE:IO_PWM_Diag)
000c3550  local     $a (.IO_DRIVER_CODE:IO_PWM_WriteOutput)
00000000  local     $a (.IO_DRIVER_CODE:IO_PWM_SafetyStep)
00000000  local     $a (.IO_DRIVER_CODE:IO_PWM_SetDuty_Int)
00000000  local     $a (.IO_DRIVER_CODE:IO_PWM_SetDuty)
000c3020  local     $a (.IO_DRIVER_CODE:IO_PWM_CalcPwmData)
000c304c  local     $a (.IO_DRIVER_CODE:IO_PWM_CalcPwmData)
000c3140  local     $a (.IO_DRIVER_CODE:IO_PWM_ConvertLrp)
000c3650  local     $a (.IO_DRIVER_CODE:IO_PWM_ForceOutputLow)
00000000  local     $a (.IO_DRIVER_CODE:IO_PWM_ResolveOpenLoadShortCircuit)
00000000  local     $a (.IO_DRIVER_CODE:IO_PWM_ResetProtection)
000bb7b0  local     $a (.IO_DRIVER_CODE:IO_PWM_ReadPinLevel)
000c2b80  local     $a (.IO_DRIVER_CODE:IO_PWM_CalcDiodePowerLimit)
000c2c20  local     $a (.IO_DRIVER_CODE:IO_PWM_CheckDOProtLimit)
000c2c98  local     $a (.IO_DRIVER_CODE:IO_PWM_CheckDOProtLimit)
000c2ce0  local     $a (.IO_DRIVER_CODE:IO_PWM_CalcCurLimit)
000c2d20  local     $a (.IO_DRIVER_CODE:IO_PWM_CalcDiodePowerDis)
000c2d58  local     $a (.IO_DRIVER_CODE:IO_PWM_CalcDiodePowerDis)
000c2d80  local     $a (.IO_DRIVER_CODE:IO_PWM_CheckPWMProtLimit)
000c2e10  local     $a (.IO_DRIVER_CODE:IO_PWM_CheckPWMProtLimit)
000c2e2c  local     $a (.IO_DRIVER_CODE:IO_PWM_CheckPWMProtLimit)
000c2f70  local     $a (.IO_DRIVER_CODE:IO_PWM_ProtectionTask_Int)
000c37b0  local     $a (.IO_DRIVER_CODE:IO_PWM_ProtectionTask)
000bb2c0  local     $a (.IO_DRIVER_CODE:IO_PWM_ReadDuty)
000bb390  local     $a (.IO_DRIVER_CODE:IO_PWM_ReadFeedback)
000bbd40  local     $a (.IO_DRIVER_CODE:IO_PWM_Startup)
000bbd70  local     $a (.IO_DRIVER_CODE:IO_PWM_N2HETx_interrupt)
00000000  local     $a (.IO_DRIVER_CODE:IO_PWM_CheckSafetyConf)
00000000  local     $a (.IO_DRIVER_CODE:IO_PWM_CalcDiagMargin)
00000020  local     $a (.IO_DRIVER_CODE:IO_PWM_CalcDiagMargin)
00000000  local     $a (.IO_DRIVER_CODE:IO_PWM_CalcSafetyDutyTimeout)
00000000  local     $a (.IO_DRIVER_CODE:IO_PWM_CalcSafetyCurTimeout)
00000000  local     $a (.IO_DRIVER_CODE:IO_PWM_SafetyInit)
00000000  local     $a (.IO_DRIVER_CODE:IO_PWM_Init)
00000000  local     $a (.IO_DRIVER_CODE:IO_PWM_InitWithoutTruncationCheck)
00000000  local     $a (.IO_DRIVER_CODE:IO_PWM_InitWithLowside)
00000000  local     $a (.IO_DRIVER_CODE:IO_PWM_CurrentSafetyStep)
00000000  local     $a (.IO_DRIVER_CODE:IO_PWM_GetCurQueue)
000001a0  local     $a (.IO_DRIVER_CODE:IO_PWM_GetCurQueue)
000001c0  local     $a (.IO_DRIVER_CODE:IO_PWM_GetCurQueue)
00000000  local     $a (.IO_DRIVER_CODE:IO_PWM_GetCur)
00000130  local     $a (.IO_DRIVER_CODE:IO_PWM_GetCur)
00000154  local     $a (.IO_DRIVER_CODE:IO_PWM_GetCur)
00000000  local     $a (.IO_DRIVER_CODE:IO_PWM_SafetyDeInit)
00000000  local     $a (.IO_DRIVER_CODE:IO_PWM_DeInit)
000bee10  local     $a (.IO_DRIVER_CODE:IO_PWM_CurrentCalc)
0803b644  local     $d (.IO_DRIVER_DATA_NORMAL)
0803bd94  local     $d (.IO_DRIVER_DATA_NORMAL)
0803bd98  local     $d (.IO_DRIVER_DATA_NORMAL)
000c3044  local     $t (.IO_DRIVER_CODE:IO_PWM_CalcPwmData)
000c2c90  local     $t (.IO_DRIVER_CODE:IO_PWM_CheckDOProtLimit)
000c2d50  local     $t (.IO_DRIVER_CODE:IO_PWM_CalcDiodePowerDis)
000c2e08  local     $t (.IO_DRIVER_CODE:IO_PWM_CheckPWMProtLimit)
000c2e24  local     $t (.IO_DRIVER_CODE:IO_PWM_CheckPWMProtLimit)
00000018  local     $t (.IO_DRIVER_CODE:IO_PWM_CalcDiagMargin)
00000198  local     $t (.IO_DRIVER_CODE:IO_PWM_GetCurQueue)
000001b8  local     $t (.IO_DRIVER_CODE:IO_PWM_GetCurQueue)
00000128  local     $t (.IO_DRIVER_CODE:IO_PWM_GetCur)
0000014c  local     $t (.IO_DRIVER_CODE:IO_PWM_GetCur)
000c2ce0  local     .IO_DRIVER_CODE:IO_PWM_CalcCurLimit (.IO_DRIVER_CODE:IO_PWM_CalcCurLimit)
00000000  local     .IO_DRIVER_CODE:IO_PWM_CalcDiagMargin (.IO_DRIVER_CODE:IO_PWM_CalcDiagMargin)
000c2d20  local     .IO_DRIVER_CODE:IO_PWM_CalcDiodePowerDis (.IO_DRIVER_CODE:IO_PWM_CalcDiodePowerDis)
000c2b80  local     .IO_DRIVER_CODE:IO_PWM_CalcDiodePowerLimit (.IO_DRIVER_CODE:IO_PWM_CalcDiodePowerLimit)
000c3020  local     .IO_DRIVER_CODE:IO_PWM_CalcPwmData (.IO_DRIVER_CODE:IO_PWM_CalcPwmData)
00000000  local     .IO_DRIVER_CODE:IO_PWM_CalcSafetyCurTimeout (.IO_DRIVER_CODE:IO_PWM_CalcSafetyCurTimeout)
00000000  local     .IO_DRIVER_CODE:IO_PWM_CalcSafetyDutyTimeout (.IO_DRIVER_CODE:IO_PWM_CalcSafetyDutyTimeout)
000c2c20  local     .IO_DRIVER_CODE:IO_PWM_CheckDOProtLimit (.IO_DRIVER_CODE:IO_PWM_CheckDOProtLimit)
000c2d80  local     .IO_DRIVER_CODE:IO_PWM_CheckPWMProtLimit (.IO_DRIVER_CODE:IO_PWM_CheckPWMProtLimit)
00000000  local     .IO_DRIVER_CODE:IO_PWM_CheckSafetyConf (.IO_DRIVER_CODE:IO_PWM_CheckSafetyConf)
000c3140  local     .IO_DRIVER_CODE:IO_PWM_ConvertLrp (.IO_DRIVER_CODE:IO_PWM_ConvertLrp)
000bee10  local     .IO_DRIVER_CODE:IO_PWM_CurrentCalc (.IO_DRIVER_CODE:IO_PWM_CurrentCalc)
00000000  local     .IO_DRIVER_CODE:IO_PWM_CurrentSafetyStep (.IO_DRIVER_CODE:IO_PWM_CurrentSafetyStep)
00000000  local     .IO_DRIVER_CODE:IO_PWM_DeInit (.IO_DRIVER_CODE:IO_PWM_DeInit)
00000000  local     .IO_DRIVER_CODE:IO_PWM_Diag (.IO_DRIVER_CODE:IO_PWM_Diag)
000c3650  local     .IO_DRIVER_CODE:IO_PWM_ForceOutputLow (.IO_DRIVER_CODE:IO_PWM_ForceOutputLow)
00000000  local     .IO_DRIVER_CODE:IO_PWM_GetCur (.IO_DRIVER_CODE:IO_PWM_GetCur)
00000000  local     .IO_DRIVER_CODE:IO_PWM_GetCurQueue (.IO_DRIVER_CODE:IO_PWM_GetCurQueue)
00000000  local     .IO_DRIVER_CODE:IO_PWM_Init (.IO_DRIVER_CODE:IO_PWM_Init)
00000000  local     .IO_DRIVER_CODE:IO_PWM_InitWithLowside (.IO_DRIVER_CODE:IO_PWM_InitWithLowside)
00000000  local     .IO_DRIVER_CODE:IO_PWM_InitWithoutTruncationCheck (.IO_DRIVER_CODE:IO_PWM_InitWithoutTruncationCheck)
000bbd70  local     .IO_DRIVER_CODE:IO_PWM_N2HETx_interrupt (.IO_DRIVER_CODE:IO_PWM_N2HETx_interrupt)
000c37b0  local     .IO_DRIVER_CODE:IO_PWM_ProtectionTask (.IO_DRIVER_CODE:IO_PWM_ProtectionTask)
000c2f70  local     .IO_DRIVER_CODE:IO_PWM_ProtectionTask_Int (.IO_DRIVER_CODE:IO_PWM_ProtectionTask_Int)
000bb2c0  local     .IO_DRIVER_CODE:IO_PWM_ReadDuty (.IO_DRIVER_CODE:IO_PWM_ReadDuty)
000bb390  local     .IO_DRIVER_CODE:IO_PWM_ReadFeedback (.IO_DRIVER_CODE:IO_PWM_ReadFeedback)
000bb7b0  local     .IO_DRIVER_CODE:IO_PWM_ReadPinLevel (.IO_DRIVER_CODE:IO_PWM_ReadPinLevel)
00000000  local     .IO_DRIVER_CODE:IO_PWM_ResetProtection (.IO_DRIVER_CODE:IO_PWM_ResetProtection)
00000000  local     .IO_DRIVER_CODE:IO_PWM_ResolveOpenLoadShortCircuit (.IO_DRIVER_CODE:IO_PWM_ResolveOpenLoadShortCircuit)
00000000  local     .IO_DRIVER_CODE:IO_PWM_SafetyDeInit (.IO_DRIVER_CODE:IO_PWM_SafetyDeInit)
00000000  local     .IO_DRIVER_CODE:IO_PWM_SafetyInit (.IO_DRIVER_CODE:IO_PWM_SafetyInit)
00000000  local     .IO_DRIVER_CODE:IO_PWM_SafetyStep (.IO_DRIVER_CODE:IO_PWM_SafetyStep)
00000000  local     .IO_DRIVER_CODE:IO_PWM_SetDuty (.IO_DRIVER_CODE:IO_PWM_SetDuty)
00000000  local     .IO_DRIVER_CODE:IO_PWM_SetDuty_Int (.IO_DRIVER_CODE:IO_PWM_SetDuty_Int)
000bbd40  local     .IO_DRIVER_CODE:IO_PWM_Startup (.IO_DRIVER_CODE:IO_PWM_Startup)
000b6010  local     .IO_DRIVER_CODE:IO_PWM_StatusInit (.IO_DRIVER_CODE:IO_PWM_StatusInit)
000c3550  local     .IO_DRIVER_CODE:IO_PWM_WriteOutput (.IO_DRIVER_CODE:IO_PWM_WriteOutput)
0803b644  local     .IO_DRIVER_DATA_NORMAL (.IO_DRIVER_DATA_NORMAL)
00000000  local     .text (.text)
000c2ce0  local     IO_PWM_CalcCurLimit (.IO_DRIVER_CODE:IO_PWM_CalcCurLimit)
00000000  local     IO_PWM_CalcDiagMargin (.IO_DRIVER_CODE:IO_PWM_CalcDiagMargin)
000c2d20  local     IO_PWM_CalcDiodePowerDis (.IO_DRIVER_CODE:IO_PWM_CalcDiodePowerDis)
000c2b80  local     IO_PWM_CalcDiodePowerLimit (.IO_DRIVER_CODE:IO_PWM_CalcDiodePowerLimit)
000c3020  local     IO_PWM_CalcPwmData (.IO_DRIVER_CODE:IO_PWM_CalcPwmData)
00000000  global    IO_PWM_CalcSafetyCurTimeout (.IO_DRIVER_CODE:IO_PWM_CalcSafetyCurTimeout)
00000000  global    IO_PWM_CalcSafetyDutyTimeout (.IO_DRIVER_CODE:IO_PWM_CalcSafetyDutyTimeout)
000c2c20  local     IO_PWM_CheckDOProtLimit (.IO_DRIVER_CODE:IO_PWM_CheckDOProtLimit)
000c2d80  local     IO_PWM_CheckPWMProtLimit (.IO_DRIVER_CODE:IO_PWM_CheckPWMProtLimit)
00000000  local     IO_PWM_CheckSafetyConf (.IO_DRIVER_CODE:IO_PWM_CheckSafetyConf)
000c3140  local     IO_PWM_ConvertLrp (.IO_DRIVER_CODE:IO_PWM_ConvertLrp)
000bee10  global    IO_PWM_CurrentCalc (.IO_DRIVER_CODE:IO_PWM_CurrentCalc)
00000000  local     IO_PWM_CurrentSafetyStep (.IO_DRIVER_CODE:IO_PWM_CurrentSafetyStep)
00000000  global    IO_PWM_DeInit (.IO_DRIVER_CODE:IO_PWM_DeInit)
00000000  local     IO_PWM_Diag (.IO_DRIVER_CODE:IO_PWM_Diag)
000c3650  local     IO_PWM_ForceOutputLow (.IO_DRIVER_CODE:IO_PWM_ForceOutputLow)
00000000  global    IO_PWM_GetCur (.IO_DRIVER_CODE:IO_PWM_GetCur)
00000000  global    IO_PWM_GetCurQueue (.IO_DRIVER_CODE:IO_PWM_GetCurQueue)
00000000  global    IO_PWM_Init (.IO_DRIVER_CODE:IO_PWM_Init)
00000000  global    IO_PWM_InitWithLowside (.IO_DRIVER_CODE:IO_PWM_InitWithLowside)
00000000  global    IO_PWM_InitWithoutTruncationCheck (.IO_DRIVER_CODE:IO_PWM_InitWithoutTruncationCheck)
000bbd70  global    IO_PWM_N2HETx_interrupt (.IO_DRIVER_CODE:IO_PWM_N2HETx_interrupt)
000c37b0  global    IO_PWM_ProtectionTask (.IO_DRIVER_CODE:IO_PWM_ProtectionTask)
000c2f70  local     IO_PWM_ProtectionTask_Int (.IO_DRIVER_CODE:IO_PWM_ProtectionTask_Int)
000bb2c0  local     IO_PWM_ReadDuty (.IO_DRIVER_CODE:IO_PWM_ReadDuty)
000bb390  local     IO_PWM_ReadFeedback (.IO_DRIVER_CODE:IO_PWM_ReadFeedback)
000bb7b0  global    IO_PWM_ReadPinLevel (.IO_DRIVER_CODE:IO_PWM_ReadPinLevel)
00000000  global    IO_PWM_ResetProtection (.IO_DRIVER_CODE:IO_PWM_ResetProtection)
00000000  global    IO_PWM_ResolveOpenLoadShortCircuit (.IO_DRIVER_CODE:IO_PWM_ResolveOpenLoadShortCircuit)
00000000  local     IO_PWM_SafetyDeInit (.IO_DRIVER_CODE:IO_PWM_SafetyDeInit)
00000000  local     IO_PWM_SafetyInit (.IO_DRIVER_CODE:IO_PWM_SafetyInit)
00000000  local     IO_PWM_SafetyStep (.IO_DRIVER_CODE:IO_PWM_SafetyStep)
00000000  global    IO_PWM_SetDuty (.IO_DRIVER_CODE:IO_PWM_SetDuty)
00000000  local     IO_PWM_SetDuty_Int (.IO_DRIVER_CODE:IO_PWM_SetDuty_Int)
000bbd40  local     IO_PWM_Startup (.IO_DRIVER_CODE:IO_PWM_Startup)
000b6010  global    IO_PWM_StatusInit (.IO_DRIVER_CODE:IO_PWM_StatusInit)
000c3550  local     IO_PWM_WriteOutput (.IO_DRIVER_CODE:IO_PWM_WriteOutput)
0803bd94  local     io_pwm_resolve_active (.IO_DRIVER_DATA_NORMAL)
0803bd98  local     io_pwm_resolve_timestamp (.IO_DRIVER_DATA_NORMAL)
0803b644  global    io_pwm_stat_tb (.IO_DRIVER_DATA_NORMAL)


================================================================================

ttc500.lib : drv_DIAG_INT_SSW_Check.obj

Run/Load            
Value     Binding   Name (Section)
--------  --------  ---------------
000b9830  local     $C$L1 (.IO_DRIVER_CODE:DIAG_SSW_VPGate_Check)
000b99c8  local     $C$L10 (.IO_DRIVER_CODE:DIAG_SSW_VPGate_Check)
000b99d0  local     $C$L11 (.IO_DRIVER_CODE:DIAG_SSW_VPGate_Check)
000b9a00  local     $C$L12 (.IO_DRIVER_CODE:DIAG_SSW_VPGate_Check)
000b9a08  local     $C$L13 (.IO_DRIVER_CODE:DIAG_SSW_VPGate_Check)
000b9a10  local     $C$L14 (.IO_DRIVER_CODE:DIAG_SSW_VPGate_Check)
000b9a1c  local     $C$L15 (.IO_DRIVER_CODE:DIAG_SSW_VPGate_Check)
000bea00  local     $C$L16 (.IO_DRIVER_CODE:DIAG_SSW_TestPerform)
000bea80  local     $C$L17 (.IO_DRIVER_CODE:DIAG_SSW_TestPerform)
000beacc  local     $C$L18 (.IO_DRIVER_CODE:DIAG_SSW_TestPerform)
000beae4  local     $C$L19 (.IO_DRIVER_CODE:DIAG_SSW_TestPerform)
000b9868  local     $C$L2 (.IO_DRIVER_CODE:DIAG_SSW_VPGate_Check)
000beb18  local     $C$L20 (.IO_DRIVER_CODE:DIAG_SSW_TestPerform)
000beb20  local     $C$L21 (.IO_DRIVER_CODE:DIAG_SSW_TestPerform)
000beb64  local     $C$L22 (.IO_DRIVER_CODE:DIAG_SSW_TestPerform)
000beb74  local     $C$L23 (.IO_DRIVER_CODE:DIAG_SSW_TestPerform)
000beba0  local     $C$L24 (.IO_DRIVER_CODE:DIAG_SSW_TestPerform)
000bec18  local     $C$L25 (.IO_DRIVER_CODE:DIAG_SSW_TestPerform)
000bec1c  local     $C$L26 (.IO_DRIVER_CODE:DIAG_SSW_TestPerform)
000bec40  local     $C$L27 (.IO_DRIVER_CODE:DIAG_SSW_TestPerform)
000bec48  local     $C$L28 (.IO_DRIVER_CODE:DIAG_SSW_TestPerform)
000bec4c  local     $C$L29 (.IO_DRIVER_CODE:DIAG_SSW_TestPerform)
000b988c  local     $C$L3 (.IO_DRIVER_CODE:DIAG_SSW_VPGate_Check)
000b9aa0  local     $C$L30 (.IO_DRIVER_CODE:DIAG_SSW_ExtShutOff_Check)
000b9adc  local     $C$L31 (.IO_DRIVER_CODE:DIAG_SSW_ExtShutOff_Check)
000b9b0c  local     $C$L32 (.IO_DRIVER_CODE:DIAG_SSW_ExtShutOff_Check)
000b9b14  local     $C$L33 (.IO_DRIVER_CODE:DIAG_SSW_ExtShutOff_Check)
000b9b20  local     $C$L34 (.IO_DRIVER_CODE:DIAG_SSW_ExtShutOff_Check)
000b9b38  local     $C$L35 (.IO_DRIVER_CODE:DIAG_SSW_ExtShutOff_Check)
000b94a0  local     $C$L36 (.IO_DRIVER_CODE:DIAG_SSW_Drop_Check)
000b9510  local     $C$L37 (.IO_DRIVER_CODE:DIAG_SSW_Drop_Check)
000b98a0  local     $C$L4 (.IO_DRIVER_CODE:DIAG_SSW_VPGate_Check)
000b98fc  local     $C$L5 (.IO_DRIVER_CODE:DIAG_SSW_VPGate_Check)
000b9920  local     $C$L6 (.IO_DRIVER_CODE:DIAG_SSW_VPGate_Check)
000b9940  local     $C$L7 (.IO_DRIVER_CODE:DIAG_SSW_VPGate_Check)
000b999c  local     $C$L8 (.IO_DRIVER_CODE:DIAG_SSW_VPGate_Check)
000b99c0  local     $C$L9 (.IO_DRIVER_CODE:DIAG_SSW_VPGate_Check)
000b97e0  local     $a (.IO_DRIVER_CODE:DIAG_SSW_VPGate_Check)
000be950  local     $a (.IO_DRIVER_CODE:DIAG_SSW_TestPerform)
000c4240  local     $a (.IO_DRIVER_CODE:DIAG_SSW_TestCheck)
000b1fd0  local     $a (.IO_DRIVER_CODE:DIAG_SSW_ModuleInit)
000b9a30  local     $a (.IO_DRIVER_CODE:DIAG_SSW_ExtShutOff_Check)
000b9430  local     $a (.IO_DRIVER_CODE:DIAG_SSW_Drop_Check)
0803c3ed  local     $d (.IO_DRIVER_DATA_NORMAL)
000b9430  local     .IO_DRIVER_CODE:DIAG_SSW_Drop_Check (.IO_DRIVER_CODE:DIAG_SSW_Drop_Check)
000b9a30  local     .IO_DRIVER_CODE:DIAG_SSW_ExtShutOff_Check (.IO_DRIVER_CODE:DIAG_SSW_ExtShutOff_Check)
000b1fd0  local     .IO_DRIVER_CODE:DIAG_SSW_ModuleInit (.IO_DRIVER_CODE:DIAG_SSW_ModuleInit)
000c4240  local     .IO_DRIVER_CODE:DIAG_SSW_TestCheck (.IO_DRIVER_CODE:DIAG_SSW_TestCheck)
000be950  local     .IO_DRIVER_CODE:DIAG_SSW_TestPerform (.IO_DRIVER_CODE:DIAG_SSW_TestPerform)
000b97e0  local     .IO_DRIVER_CODE:DIAG_SSW_VPGate_Check (.IO_DRIVER_CODE:DIAG_SSW_VPGate_Check)
0803c3ed  local     .IO_DRIVER_DATA_NORMAL (.IO_DRIVER_DATA_NORMAL)
00000000  local     .text (.text)
000b9430  global    DIAG_SSW_Drop_Check (.IO_DRIVER_CODE:DIAG_SSW_Drop_Check)
000b9a30  global    DIAG_SSW_ExtShutOff_Check (.IO_DRIVER_CODE:DIAG_SSW_ExtShutOff_Check)
000b1fd0  global    DIAG_SSW_ModuleInit (.IO_DRIVER_CODE:DIAG_SSW_ModuleInit)
000c4240  global    DIAG_SSW_TestCheck (.IO_DRIVER_CODE:DIAG_SSW_TestCheck)
000be950  global    DIAG_SSW_TestPerform (.IO_DRIVER_CODE:DIAG_SSW_TestPerform)
000b97e0  global    DIAG_SSW_VPGate_Check (.IO_DRIVER_CODE:DIAG_SSW_VPGate_Check)
0803c3ed  local     diag_ssw_checker_data (.IO_DRIVER_DATA_NORMAL)


================================================================================

ttc500.lib : drv_IO_INT_UDP.obj

Run/Load            
Value     Binding   Name (Section)
--------  --------  ---------------
00000050  local     $C$L1 (.IO_DRIVER_CODE:IO_INT_UDP_inet_aton)
000c1f18  local     $C$L10 (.IO_DRIVER_CODE:IO_INT_UDP_CalcIpChecksum)
000c1f80  local     $C$L11 (.IO_DRIVER_CODE:IO_INT_UDP_CalcUdpChecksum)
000c1fc8  local     $C$L12 (.IO_DRIVER_CODE:IO_INT_UDP_CalcUdpChecksum)
000c1ff4  local     $C$L13 (.IO_DRIVER_CODE:IO_INT_UDP_CalcUdpChecksum)
000c2040  local     $C$L14 (.IO_DRIVER_CODE:IO_INT_UDP_CalcUdpChecksum)
000c2048  local     $C$L15 (.IO_DRIVER_CODE:IO_INT_UDP_CalcUdpChecksum)
000000c0  local     $C$L16 (.IO_DRIVER_CODE:IO_INT_UDP_PrepareHeader)
000000d0  local     $C$L17 (.IO_DRIVER_CODE:IO_INT_UDP_PrepareHeader)
00000164  local     $C$L18 (.IO_DRIVER_CODE:IO_INT_UDP_PrepareHeader)
00000090  local     $C$L2 (.IO_DRIVER_CODE:IO_INT_UDP_inet_aton)
000000d4  local     $C$L3 (.IO_DRIVER_CODE:IO_INT_UDP_inet_aton)
000000f8  local     $C$L4 (.IO_DRIVER_CODE:IO_INT_UDP_inet_aton)
00000100  local     $C$L5 (.IO_DRIVER_CODE:IO_INT_UDP_inet_aton)
00000104  local     $C$L6 (.IO_DRIVER_CODE:IO_INT_UDP_inet_aton)
00000114  local     $C$L7 (.IO_DRIVER_CODE:IO_INT_UDP_inet_aton)
00000140  local     $C$L8 (.IO_DRIVER_CODE:IO_INT_UDP_inet_aton)
000c1f10  local     $C$L9 (.IO_DRIVER_CODE:IO_INT_UDP_CalcIpChecksum)
00000000  local     $a (.IO_DRIVER_CODE:IO_INT_UDP_inet_aton)
000c1e50  local     $a (.IO_DRIVER_CODE:IO_INT_UDP_CalcIpChecksum)
000c1f30  local     $a (.IO_DRIVER_CODE:IO_INT_UDP_CalcUdpChecksum)
00000000  local     $a (.IO_DRIVER_CODE:IO_INT_UDP_PrepareHeader)
00000000  local     $d (.IO_DRIVER_DATA_NORMAL)
000c1e50  local     .IO_DRIVER_CODE:IO_INT_UDP_CalcIpChecksum (.IO_DRIVER_CODE:IO_INT_UDP_CalcIpChecksum)
000c1f30  local     .IO_DRIVER_CODE:IO_INT_UDP_CalcUdpChecksum (.IO_DRIVER_CODE:IO_INT_UDP_CalcUdpChecksum)
00000000  local     .IO_DRIVER_CODE:IO_INT_UDP_PrepareHeader (.IO_DRIVER_CODE:IO_INT_UDP_PrepareHeader)
00000000  local     .IO_DRIVER_CODE:IO_INT_UDP_inet_aton (.IO_DRIVER_CODE:IO_INT_UDP_inet_aton)
00000000  local     .IO_DRIVER_DATA_NORMAL (.IO_DRIVER_DATA_NORMAL)
00000000  local     .text (.text)
000c1e50  global    IO_INT_UDP_CalcIpChecksum (.IO_DRIVER_CODE:IO_INT_UDP_CalcIpChecksum)
000c1f30  global    IO_INT_UDP_CalcUdpChecksum (.IO_DRIVER_CODE:IO_INT_UDP_CalcUdpChecksum)
00000000  global    IO_INT_UDP_PrepareHeader (.IO_DRIVER_CODE:IO_INT_UDP_PrepareHeader)
00000000  global    IO_INT_UDP_inet_aton (.IO_DRIVER_CODE:IO_INT_UDP_inet_aton)
00000000  global    IO_UDP_INT_OwnIp (.IO_DRIVER_DATA_NORMAL)


================================================================================

ttc500.lib : drv_IO_INT_Data.obj

Run/Load            
Value     Binding   Name (Section)
--------  --------  ---------------
0803ae10  local     $d (.IO_DRIVER_DATA_NORMAL)
0803b640  local     $d (.IO_DRIVER_DATA_NORMAL)
0803ae10  local     .IO_DRIVER_DATA_NORMAL (.IO_DRIVER_DATA_NORMAL)
00000000  local     .text (.text)
0803b640  global    io_diag_state (.IO_DRIVER_DATA_NORMAL)
0803ae10  global    io_int_data (.IO_DRIVER_DATA_NORMAL)


================================================================================

ttc500.lib : drv_Csm2_Mcu.obj

Run/Load            
Value     Binding   Name (Section)
--------  --------  ---------------
000a43e0  local     $C$L1 (.CSM_CODE:Csm2_Mcu_ConditionalWait)
000a4500  local     $C$L10 (.CSM_CODE:Csm2_Mcu_TestPll1Slip)
000a451c  local     $C$L11 (.CSM_CODE:Csm2_Mcu_TestPll1Slip)
000a4528  local     $C$L12 (.CSM_CODE:Csm2_Mcu_TestPll1Slip)
000a452c  local     $C$L13 (.CSM_CODE:Csm2_Mcu_TestPll1Slip)
000a4594  local     $C$L14 (.CSM_CODE:Csm2_Mcu_TestPll1Slip)
000a4598  local     $C$L15 (.CSM_CODE:Csm2_Mcu_TestPll1Slip)
000a4408  local     $C$L2 (.CSM_CODE:Csm2_Mcu_ConditionalWait)
000a4410  local     $C$L3 (.CSM_CODE:Csm2_Mcu_ConditionalWait)
000a4650  local     $C$L4 (.CSM_CODE:Csm2_Mcu_TestPll2Slip)
000a466c  local     $C$L5 (.CSM_CODE:Csm2_Mcu_TestPll2Slip)
000a4678  local     $C$L6 (.CSM_CODE:Csm2_Mcu_TestPll2Slip)
000a467c  local     $C$L7 (.CSM_CODE:Csm2_Mcu_TestPll2Slip)
000a46dc  local     $C$L8 (.CSM_CODE:Csm2_Mcu_TestPll2Slip)
000a46e0  local     $C$L9 (.CSM_CODE:Csm2_Mcu_TestPll2Slip)
000a43a0  local     $a (.CSM_CODE:Csm2_Mcu_ConditionalWait)
000a45a0  local     $a (.CSM_CODE:Csm2_Mcu_TestPll2Slip)
000a4430  local     $a (.CSM_CODE:Csm2_Mcu_TestPll1Slip)
000a43a0  local     .CSM_CODE:Csm2_Mcu_ConditionalWait (.CSM_CODE:Csm2_Mcu_ConditionalWait)
000a4430  local     .CSM_CODE:Csm2_Mcu_TestPll1Slip (.CSM_CODE:Csm2_Mcu_TestPll1Slip)
000a45a0  local     .CSM_CODE:Csm2_Mcu_TestPll2Slip (.CSM_CODE:Csm2_Mcu_TestPll2Slip)
00000000  local     .text (.text)
000a43a0  local     Csm2_Mcu_ConditionalWait (.CSM_CODE:Csm2_Mcu_ConditionalWait)
000a4430  global    Csm2_Mcu_TestPll1Slip (.CSM_CODE:Csm2_Mcu_TestPll1Slip)
000a45a0  global    Csm2_Mcu_TestPll2Slip (.CSM_CODE:Csm2_Mcu_TestPll2Slip)


================================================================================

ttc500.lib : drv_IO_FLASH.obj

Run/Load            
Value     Binding   Name (Section)
--------  --------  ---------------
00000054  local     $C$L1 (.IO_DRIVER_CODE:IO_FLASH_CheckFlashAvailable)
000c57f0  local     $C$L10 (.IO_DRIVER_CODE:IO_FLASH_SuspendResumeTask)
00000078  local     $C$L100 (.IO_DRIVER_CODE:IO_FLASH_BankSelect)
000000b8  local     $C$L101 (.IO_DRIVER_CODE:IO_FLASH_BankSelect)
000000c0  local     $C$L102 (.IO_DRIVER_CODE:IO_FLASH_BankSelect)
00000070  local     $C$L103 (.IO_DRIVER_CODE:IO_FLASH_Init)
00000088  local     $C$L104 (.IO_DRIVER_CODE:IO_FLASH_Init)
00000050  local     $C$L105 (.IO_DRIVER_CODE:IO_FLASH_GetBank)
00000070  local     $C$L106 (.IO_DRIVER_CODE:IO_FLASH_GetBank)
000000b8  local     $C$L107 (.IO_DRIVER_CODE:IO_FLASH_GetBank)
000000c0  local     $C$L108 (.IO_DRIVER_CODE:IO_FLASH_GetBank)
000000dc  local     $C$L109 (.IO_DRIVER_CODE:IO_FLASH_GetBank)
000c5804  local     $C$L11 (.IO_DRIVER_CODE:IO_FLASH_SuspendResumeTask)
000000e0  local     $C$L110 (.IO_DRIVER_CODE:IO_FLASH_GetBank)
000000e8  local     $C$L111 (.IO_DRIVER_CODE:IO_FLASH_GetBank)
000000f0  local     $C$L112 (.IO_DRIVER_CODE:IO_FLASH_GetBank)
00000034  local     $C$L113 (.IO_DRIVER_CODE:IO_FLASH_CheckBlockOffset)
00000044  local     $C$L114 (.IO_DRIVER_CODE:IO_FLASH_CheckBlockOffset)
00000058  local     $C$L115 (.IO_DRIVER_CODE:IO_FLASH_CheckBlockOffset)
00000060  local     $C$L116 (.IO_DRIVER_CODE:IO_FLASH_CheckBlockOffset)
000c5838  local     $C$L12 (.IO_DRIVER_CODE:IO_FLASH_SuspendResumeTask)
000c5858  local     $C$L13 (.IO_DRIVER_CODE:IO_FLASH_SuspendResumeTask)
000c5864  local     $C$L14 (.IO_DRIVER_CODE:IO_FLASH_SuspendResumeTask)
000c5868  local     $C$L15 (.IO_DRIVER_CODE:IO_FLASH_SuspendResumeTask)
000c586c  local     $C$L16 (.IO_DRIVER_CODE:IO_FLASH_SuspendResumeTask)
000c5878  local     $C$L17 (.IO_DRIVER_CODE:IO_FLASH_SuspendResumeTask)
000c587c  local     $C$L18 (.IO_DRIVER_CODE:IO_FLASH_SuspendResumeTask)
000c5904  local     $C$L19 (.IO_DRIVER_CODE:IO_FLASH_ProcessRead)
00000038  local     $C$L2 (.IO_DRIVER_CODE:IO_FLASH_CheckFlashParameters)
000c5920  local     $C$L20 (.IO_DRIVER_CODE:IO_FLASH_ProcessRead)
000c5970  local     $C$L21 (.IO_DRIVER_CODE:IO_FLASH_ProcessRead)
000c59a0  local     $C$L22 (.IO_DRIVER_CODE:IO_FLASH_ProcessRead)
000c59bc  local     $C$L23 (.IO_DRIVER_CODE:IO_FLASH_ProcessRead)
000c59e0  local     $C$L24 (.IO_DRIVER_CODE:IO_FLASH_ProcessRead)
000c5a98  local     $C$L25 (.IO_DRIVER_CODE:IO_FLASH_ProcessRead)
000c5ac0  local     $C$L26 (.IO_DRIVER_CODE:IO_FLASH_ProcessRead)
000c5af0  local     $C$L27 (.IO_DRIVER_CODE:IO_FLASH_ProcessRead)
000c5b0c  local     $C$L28 (.IO_DRIVER_CODE:IO_FLASH_ProcessRead)
000c5bd0  local     $C$L29 (.IO_DRIVER_CODE:IO_FLASH_ReadTask)
00000040  local     $C$L3 (.IO_DRIVER_CODE:IO_FLASH_CheckFlashParameters)
000c5be4  local     $C$L30 (.IO_DRIVER_CODE:IO_FLASH_ReadTask)
000c5c44  local     $C$L31 (.IO_DRIVER_CODE:IO_FLASH_CheckWriteStatus)
000c5c4c  local     $C$L32 (.IO_DRIVER_CODE:IO_FLASH_CheckWriteStatus)
000c5d5c  local     $C$L33 (.IO_DRIVER_CODE:IO_FLASH_ProcessWrite)
000c5d78  local     $C$L34 (.IO_DRIVER_CODE:IO_FLASH_ProcessWrite)
000c5db0  local     $C$L35 (.IO_DRIVER_CODE:IO_FLASH_ProcessWrite)
000c5de8  local     $C$L36 (.IO_DRIVER_CODE:IO_FLASH_ProcessWrite)
000c5e0c  local     $C$L37 (.IO_DRIVER_CODE:IO_FLASH_ProcessWrite)
000c5e28  local     $C$L38 (.IO_DRIVER_CODE:IO_FLASH_ProcessWrite)
000c5ed4  local     $C$L39 (.IO_DRIVER_CODE:IO_FLASH_ProcessBlankCheck)
0000008c  local     $C$L4 (.IO_DRIVER_CODE:IO_FLASH_Write)
000c5eec  local     $C$L40 (.IO_DRIVER_CODE:IO_FLASH_ProcessBlankCheck)
000c5f40  local     $C$L41 (.IO_DRIVER_CODE:IO_FLASH_ProcessBlankCheck)
000c5f60  local     $C$L42 (.IO_DRIVER_CODE:IO_FLASH_ProcessBlankCheck)
000c5f78  local     $C$L43 (.IO_DRIVER_CODE:IO_FLASH_ProcessBlankCheck)
000c5f7c  local     $C$L44 (.IO_DRIVER_CODE:IO_FLASH_ProcessBlankCheck)
000c5fa0  local     $C$L45 (.IO_DRIVER_CODE:IO_FLASH_ProcessBlankCheck)
000c5fd8  local     $C$L46 (.IO_DRIVER_CODE:IO_FLASH_ProcessBlankCheck)
000c5ff8  local     $C$L47 (.IO_DRIVER_CODE:IO_FLASH_ProcessBlankCheck)
000c5ffc  local     $C$L48 (.IO_DRIVER_CODE:IO_FLASH_ProcessBlankCheck)
000c6020  local     $C$L49 (.IO_DRIVER_CODE:IO_FLASH_ProcessBlankCheck)
000c5720  local     $C$L5 (.IO_DRIVER_CODE:IO_FLASH_CheckBusyStatus)
000c6040  local     $C$L50 (.IO_DRIVER_CODE:IO_FLASH_ProcessBlankCheck)
000c6058  local     $C$L51 (.IO_DRIVER_CODE:IO_FLASH_ProcessBlankCheck)
000c605c  local     $C$L52 (.IO_DRIVER_CODE:IO_FLASH_ProcessBlankCheck)
000c608c  local     $C$L53 (.IO_DRIVER_CODE:IO_FLASH_ProcessBlankCheck)
000c6128  local     $C$L54 (.IO_DRIVER_CODE:IO_FLASH_WriteTask)
000c6160  local     $C$L55 (.IO_DRIVER_CODE:IO_FLASH_WriteTask)
000c618c  local     $C$L56 (.IO_DRIVER_CODE:IO_FLASH_WriteTask)
000c6194  local     $C$L57 (.IO_DRIVER_CODE:IO_FLASH_WriteTask)
000c61b4  local     $C$L58 (.IO_DRIVER_CODE:IO_FLASH_WriteTask)
000c61e8  local     $C$L59 (.IO_DRIVER_CODE:IO_FLASH_WriteTask)
000c5728  local     $C$L6 (.IO_DRIVER_CODE:IO_FLASH_CheckBusyStatus)
000c6204  local     $C$L60 (.IO_DRIVER_CODE:IO_FLASH_WriteTask)
000c632c  local     $C$L61 (.IO_DRIVER_CODE:IO_FLASH_ChipEraseTask)
000c6340  local     $C$L62 (.IO_DRIVER_CODE:IO_FLASH_ChipEraseTask)
000c636c  local     $C$L63 (.IO_DRIVER_CODE:IO_FLASH_ChipEraseTask)
000c6394  local     $C$L64 (.IO_DRIVER_CODE:IO_FLASH_ChipEraseTask)
000c63b0  local     $C$L65 (.IO_DRIVER_CODE:IO_FLASH_ChipEraseTask)
000c63d0  local     $C$L66 (.IO_DRIVER_CODE:IO_FLASH_ChipEraseTask)
000c64e0  local     $C$L67 (.IO_DRIVER_CODE:IO_FLASH_BlockEraseTask)
000c6504  local     $C$L68 (.IO_DRIVER_CODE:IO_FLASH_BlockEraseTask)
000c6524  local     $C$L69 (.IO_DRIVER_CODE:IO_FLASH_BlockEraseTask)
000c57a8  local     $C$L7 (.IO_DRIVER_CODE:IO_FLASH_SuspendResumeTask)
000c654c  local     $C$L70 (.IO_DRIVER_CODE:IO_FLASH_BlockEraseTask)
000c6568  local     $C$L71 (.IO_DRIVER_CODE:IO_FLASH_BlockEraseTask)
000c6590  local     $C$L72 (.IO_DRIVER_CODE:IO_FLASH_BlockEraseTask)
000c65a8  local     $C$L73 (.IO_DRIVER_CODE:IO_FLASH_BlockEraseTask)
000c65ac  local     $C$L74 (.IO_DRIVER_CODE:IO_FLASH_BlockEraseTask)
000c66e0  local     $C$L75 (.IO_DRIVER_CODE:IO_FLASH_Task)
000c66e8  local     $C$L76 (.IO_DRIVER_CODE:IO_FLASH_Task)
000c66f0  local     $C$L77 (.IO_DRIVER_CODE:IO_FLASH_Task)
000c66fc  local     $C$L78 (.IO_DRIVER_CODE:IO_FLASH_Task)
000c6708  local     $C$L79 (.IO_DRIVER_CODE:IO_FLASH_Task)
000c57b0  local     $C$L8 (.IO_DRIVER_CODE:IO_FLASH_SuspendResumeTask)
000c6714  local     $C$L80 (.IO_DRIVER_CODE:IO_FLASH_Task)
000c6720  local     $C$L81 (.IO_DRIVER_CODE:IO_FLASH_Task)
000c6728  local     $C$L82 (.IO_DRIVER_CODE:IO_FLASH_Task)
000c6734  local     $C$L83 (.IO_DRIVER_CODE:IO_FLASH_Task)
000c6740  local     $C$L84 (.IO_DRIVER_CODE:IO_FLASH_Task)
000000a0  local     $C$L85 (.IO_DRIVER_CODE:IO_FLASH_Suspend)
000000c0  local     $C$L86 (.IO_DRIVER_CODE:IO_FLASH_Suspend)
000000f4  local     $C$L87 (.IO_DRIVER_CODE:IO_FLASH_Suspend)
000000fc  local     $C$L88 (.IO_DRIVER_CODE:IO_FLASH_Suspend)
00000110  local     $C$L89 (.IO_DRIVER_CODE:IO_FLASH_Suspend)
000c57b4  local     $C$L9 (.IO_DRIVER_CODE:IO_FLASH_SuspendResumeTask)
00000130  local     $C$L90 (.IO_DRIVER_CODE:IO_FLASH_Suspend)
00000144  local     $C$L91 (.IO_DRIVER_CODE:IO_FLASH_Suspend)
00000080  local     $C$L92 (.IO_DRIVER_CODE:IO_FLASH_Read)
00000088  local     $C$L93 (.IO_DRIVER_CODE:IO_FLASH_IntInit)
000000b8  local     $C$L94 (.IO_DRIVER_CODE:IO_FLASH_IntInit)
000000c0  local     $C$L95 (.IO_DRIVER_CODE:IO_FLASH_IntInit)
000000dc  local     $C$L96 (.IO_DRIVER_CODE:IO_FLASH_IntInit)
00000050  local     $C$L97 (.IO_DRIVER_CODE:IO_FLASH_BankSelect)
00000060  local     $C$L98 (.IO_DRIVER_CODE:IO_FLASH_BankSelect)
00000070  local     $C$L99 (.IO_DRIVER_CODE:IO_FLASH_BankSelect)
000c6090  local     $C$LL1 (.IO_DRIVER_CODE:IO_FLASH_ProcessBlankCheck)
00000000  local     $a (.IO_DRIVER_CODE:IO_FLASH_CheckFlashAvailable)
00000000  local     $a (.IO_DRIVER_CODE:IO_FLASH_CheckFlashParameters)
00000000  local     $a (.IO_DRIVER_CODE:IO_FLASH_SetWriteConfig)
00000000  local     $a (.IO_DRIVER_CODE:IO_FLASH_SetReadConfig)
00000000  local     $a (.IO_DRIVER_CODE:IO_FLASH_Write)
000c56b0  local     $a (.IO_DRIVER_CODE:FlashRead)
000c56c0  local     $a (.IO_DRIVER_CODE:IO_FLASH_CheckBusyStatus)
000c5730  local     $a (.IO_DRIVER_CODE:FlashWrite)
000c5740  local     $a (.IO_DRIVER_CODE:IO_FLASH_IssueEraseResume)
000c5750  local     $a (.IO_DRIVER_CODE:IO_FLASH_IssueEraseSuspend)
000c5760  local     $a (.IO_DRIVER_CODE:IO_FLASH_SuspendResumeTask)
000c5880  local     $a (.IO_DRIVER_CODE:IO_FLASH_Read_CalculateStopAddress)
000c58a0  local     $a (.IO_DRIVER_CODE:IO_FLASH_ProcessRead)
000c5b30  local     $a (.IO_DRIVER_CODE:IO_FLASH_IssueReset)
000c5b60  local     $a (.IO_DRIVER_CODE:IO_FLASH_ReadTask)
000c5bf0  local     $a (.IO_DRIVER_CODE:IO_FLASH_CheckWriteStatus)
000c5c50  local     $a (.IO_DRIVER_CODE:IO_FLASH_Write_CalculateStopAddress)
000c5c80  local     $a (.IO_DRIVER_CODE:IO_FLASH_IssueWriteToBuffer)
000c5cc0  local     $a (.IO_DRIVER_CODE:IO_FLASH_IssueBufferProgramConfirm)
000c5cf0  local     $a (.IO_DRIVER_CODE:IO_FLASH_ProcessWrite)
000c5e50  local     $a (.IO_DRIVER_CODE:IO_FLASH_ProcessBlankCheck)
000c60a0  local     $a (.IO_DRIVER_CODE:IO_FLASH_WriteTask)
000c6210  local     $a (.IO_DRIVER_CODE:IO_FLASH_IssueChipErase)
000c6260  local     $a (.IO_DRIVER_CODE:IO_FLASH_CheckEraseStatus)
000c62a0  local     $a (.IO_DRIVER_CODE:IO_FLASH_ChipEraseTask)
000c63e0  local     $a (.IO_DRIVER_CODE:IO_FLASH_IssueBlockErase)
000c6440  local     $a (.IO_DRIVER_CODE:IO_FLASH_BlockEraseTask)
000c65c0  local     $a (.IO_DRIVER_CODE:IO_FLASH_InitVariables)
000c6680  local     $a (.IO_DRIVER_CODE:IO_FLASH_Task)
00000000  local     $a (.IO_DRIVER_CODE:IO_FLASH_Suspend)
00000000  local     $a (.IO_DRIVER_CODE:IO_FLASH_Read)
00000000  local     $a (.IO_DRIVER_CODE:IO_FLASH_ReadDeviceAndManufacturerId)
00000000  local     $a (.IO_DRIVER_CODE:IO_FLASH_IntInit)
00000000  local     $a (.IO_DRIVER_CODE:IO_FLASH_BankSelect)
00000000  local     $a (.IO_DRIVER_CODE:IO_FLASH_Init)
00000000  local     $a (.IO_DRIVER_CODE:IO_FLASH_GetStatus)
00000000  local     $a (.IO_DRIVER_CODE:IO_FLASH_GetBank)
00000000  local     $a (.IO_DRIVER_CODE:IO_FLASH_DeInit)
00000000  local     $a (.IO_DRIVER_CODE:IO_FLASH_ChipErase)
00000000  local     $a (.IO_DRIVER_CODE:IO_FLASH_CheckBlockOffset)
00000000  local     $a (.IO_DRIVER_CODE:IO_FLASH_BlockErase)
000c6090  local     $d (.IO_DRIVER_CODE:IO_FLASH_ProcessBlankCheck)
0803da88  local     $d (.IO_DRIVER_DATA_NORMAL)
000c56b0  local     .IO_DRIVER_CODE:FlashRead (.IO_DRIVER_CODE:FlashRead)
000c5730  local     .IO_DRIVER_CODE:FlashWrite (.IO_DRIVER_CODE:FlashWrite)
00000000  local     .IO_DRIVER_CODE:IO_FLASH_BankSelect (.IO_DRIVER_CODE:IO_FLASH_BankSelect)
00000000  local     .IO_DRIVER_CODE:IO_FLASH_BlockErase (.IO_DRIVER_CODE:IO_FLASH_BlockErase)
000c6440  local     .IO_DRIVER_CODE:IO_FLASH_BlockEraseTask (.IO_DRIVER_CODE:IO_FLASH_BlockEraseTask)
00000000  local     .IO_DRIVER_CODE:IO_FLASH_CheckBlockOffset (.IO_DRIVER_CODE:IO_FLASH_CheckBlockOffset)
000c56c0  local     .IO_DRIVER_CODE:IO_FLASH_CheckBusyStatus (.IO_DRIVER_CODE:IO_FLASH_CheckBusyStatus)
000c6260  local     .IO_DRIVER_CODE:IO_FLASH_CheckEraseStatus (.IO_DRIVER_CODE:IO_FLASH_CheckEraseStatus)
00000000  local     .IO_DRIVER_CODE:IO_FLASH_CheckFlashAvailable (.IO_DRIVER_CODE:IO_FLASH_CheckFlashAvailable)
00000000  local     .IO_DRIVER_CODE:IO_FLASH_CheckFlashParameters (.IO_DRIVER_CODE:IO_FLASH_CheckFlashParameters)
000c5bf0  local     .IO_DRIVER_CODE:IO_FLASH_CheckWriteStatus (.IO_DRIVER_CODE:IO_FLASH_CheckWriteStatus)
00000000  local     .IO_DRIVER_CODE:IO_FLASH_ChipErase (.IO_DRIVER_CODE:IO_FLASH_ChipErase)
000c62a0  local     .IO_DRIVER_CODE:IO_FLASH_ChipEraseTask (.IO_DRIVER_CODE:IO_FLASH_ChipEraseTask)
00000000  local     .IO_DRIVER_CODE:IO_FLASH_DeInit (.IO_DRIVER_CODE:IO_FLASH_DeInit)
00000000  local     .IO_DRIVER_CODE:IO_FLASH_GetBank (.IO_DRIVER_CODE:IO_FLASH_GetBank)
00000000  local     .IO_DRIVER_CODE:IO_FLASH_GetStatus (.IO_DRIVER_CODE:IO_FLASH_GetStatus)
00000000  local     .IO_DRIVER_CODE:IO_FLASH_Init (.IO_DRIVER_CODE:IO_FLASH_Init)
000c65c0  local     .IO_DRIVER_CODE:IO_FLASH_InitVariables (.IO_DRIVER_CODE:IO_FLASH_InitVariables)
00000000  local     .IO_DRIVER_CODE:IO_FLASH_IntInit (.IO_DRIVER_CODE:IO_FLASH_IntInit)
000c63e0  local     .IO_DRIVER_CODE:IO_FLASH_IssueBlockErase (.IO_DRIVER_CODE:IO_FLASH_IssueBlockErase)
000c5cc0  local     .IO_DRIVER_CODE:IO_FLASH_IssueBufferProgramConfirm (.IO_DRIVER_CODE:IO_FLASH_IssueBufferProgramConfirm)
000c6210  local     .IO_DRIVER_CODE:IO_FLASH_IssueChipErase (.IO_DRIVER_CODE:IO_FLASH_IssueChipErase)
000c5740  local     .IO_DRIVER_CODE:IO_FLASH_IssueEraseResume (.IO_DRIVER_CODE:IO_FLASH_IssueEraseResume)
000c5750  local     .IO_DRIVER_CODE:IO_FLASH_IssueEraseSuspend (.IO_DRIVER_CODE:IO_FLASH_IssueEraseSuspend)
000c5b30  local     .IO_DRIVER_CODE:IO_FLASH_IssueReset (.IO_DRIVER_CODE:IO_FLASH_IssueReset)
000c5c80  local     .IO_DRIVER_CODE:IO_FLASH_IssueWriteToBuffer (.IO_DRIVER_CODE:IO_FLASH_IssueWriteToBuffer)
000c5e50  local     .IO_DRIVER_CODE:IO_FLASH_ProcessBlankCheck (.IO_DRIVER_CODE:IO_FLASH_ProcessBlankCheck)
000c58a0  local     .IO_DRIVER_CODE:IO_FLASH_ProcessRead (.IO_DRIVER_CODE:IO_FLASH_ProcessRead)
000c5cf0  local     .IO_DRIVER_CODE:IO_FLASH_ProcessWrite (.IO_DRIVER_CODE:IO_FLASH_ProcessWrite)
00000000  local     .IO_DRIVER_CODE:IO_FLASH_Read (.IO_DRIVER_CODE:IO_FLASH_Read)
00000000  local     .IO_DRIVER_CODE:IO_FLASH_ReadDeviceAndManufacturerId (.IO_DRIVER_CODE:IO_FLASH_ReadDeviceAndManufacturerId)
000c5b60  local     .IO_DRIVER_CODE:IO_FLASH_ReadTask (.IO_DRIVER_CODE:IO_FLASH_ReadTask)
000c5880  local     .IO_DRIVER_CODE:IO_FLASH_Read_CalculateStopAddress (.IO_DRIVER_CODE:IO_FLASH_Read_CalculateStopAddress)
00000000  local     .IO_DRIVER_CODE:IO_FLASH_SetReadConfig (.IO_DRIVER_CODE:IO_FLASH_SetReadConfig)
00000000  local     .IO_DRIVER_CODE:IO_FLASH_SetWriteConfig (.IO_DRIVER_CODE:IO_FLASH_SetWriteConfig)
00000000  local     .IO_DRIVER_CODE:IO_FLASH_Suspend (.IO_DRIVER_CODE:IO_FLASH_Suspend)
000c5760  local     .IO_DRIVER_CODE:IO_FLASH_SuspendResumeTask (.IO_DRIVER_CODE:IO_FLASH_SuspendResumeTask)
000c6680  local     .IO_DRIVER_CODE:IO_FLASH_Task (.IO_DRIVER_CODE:IO_FLASH_Task)
00000000  local     .IO_DRIVER_CODE:IO_FLASH_Write (.IO_DRIVER_CODE:IO_FLASH_Write)
000c60a0  local     .IO_DRIVER_CODE:IO_FLASH_WriteTask (.IO_DRIVER_CODE:IO_FLASH_WriteTask)
000c5c50  local     .IO_DRIVER_CODE:IO_FLASH_Write_CalculateStopAddress (.IO_DRIVER_CODE:IO_FLASH_Write_CalculateStopAddress)
0803da88  local     .IO_DRIVER_DATA_NORMAL (.IO_DRIVER_DATA_NORMAL)
00000000  local     .text (.text)
000c56b0  local     FlashRead (.IO_DRIVER_CODE:FlashRead)
000c5730  local     FlashWrite (.IO_DRIVER_CODE:FlashWrite)
00000000  global    IO_FLASH_BankSelect (.IO_DRIVER_CODE:IO_FLASH_BankSelect)
00000000  global    IO_FLASH_BlockErase (.IO_DRIVER_CODE:IO_FLASH_BlockErase)
000c6440  local     IO_FLASH_BlockEraseTask (.IO_DRIVER_CODE:IO_FLASH_BlockEraseTask)
00000000  local     IO_FLASH_CheckBlockOffset (.IO_DRIVER_CODE:IO_FLASH_CheckBlockOffset)
000c56c0  local     IO_FLASH_CheckBusyStatus (.IO_DRIVER_CODE:IO_FLASH_CheckBusyStatus)
000c6260  local     IO_FLASH_CheckEraseStatus (.IO_DRIVER_CODE:IO_FLASH_CheckEraseStatus)
00000000  local     IO_FLASH_CheckFlashAvailable (.IO_DRIVER_CODE:IO_FLASH_CheckFlashAvailable)
00000000  local     IO_FLASH_CheckFlashParameters (.IO_DRIVER_CODE:IO_FLASH_CheckFlashParameters)
000c5bf0  local     IO_FLASH_CheckWriteStatus (.IO_DRIVER_CODE:IO_FLASH_CheckWriteStatus)
00000000  global    IO_FLASH_ChipErase (.IO_DRIVER_CODE:IO_FLASH_ChipErase)
000c62a0  local     IO_FLASH_ChipEraseTask (.IO_DRIVER_CODE:IO_FLASH_ChipEraseTask)
00000000  global    IO_FLASH_DeInit (.IO_DRIVER_CODE:IO_FLASH_DeInit)
0803da90  local     IO_FLASH_EraseBlockState (.IO_DRIVER_DATA_NORMAL)
0803da94  local     IO_FLASH_EraseBlockWordOffset_u4 (.IO_DRIVER_DATA_NORMAL)
0803da98  local     IO_FLASH_EraseChipState (.IO_DRIVER_DATA_NORMAL)
00000000  global    IO_FLASH_GetBank (.IO_DRIVER_CODE:IO_FLASH_GetBank)
00000000  global    IO_FLASH_GetStatus (.IO_DRIVER_CODE:IO_FLASH_GetStatus)
00000000  global    IO_FLASH_Init (.IO_DRIVER_CODE:IO_FLASH_Init)
000c65c0  local     IO_FLASH_InitVariables (.IO_DRIVER_CODE:IO_FLASH_InitVariables)
00000000  global    IO_FLASH_IntInit (.IO_DRIVER_CODE:IO_FLASH_IntInit)
000c63e0  local     IO_FLASH_IssueBlockErase (.IO_DRIVER_CODE:IO_FLASH_IssueBlockErase)
000c5cc0  local     IO_FLASH_IssueBufferProgramConfirm (.IO_DRIVER_CODE:IO_FLASH_IssueBufferProgramConfirm)
000c6210  local     IO_FLASH_IssueChipErase (.IO_DRIVER_CODE:IO_FLASH_IssueChipErase)
000c5740  local     IO_FLASH_IssueEraseResume (.IO_DRIVER_CODE:IO_FLASH_IssueEraseResume)
000c5750  local     IO_FLASH_IssueEraseSuspend (.IO_DRIVER_CODE:IO_FLASH_IssueEraseSuspend)
000c5b30  local     IO_FLASH_IssueReset (.IO_DRIVER_CODE:IO_FLASH_IssueReset)
000c5c80  local     IO_FLASH_IssueWriteToBuffer (.IO_DRIVER_CODE:IO_FLASH_IssueWriteToBuffer)
0803da8a  local     IO_FLASH_OpResult (.IO_DRIVER_DATA_NORMAL)
0803da8c  local     IO_FLASH_OpTicks (.IO_DRIVER_DATA_NORMAL)
0803da88  local     IO_FLASH_Operation (.IO_DRIVER_DATA_NORMAL)
000c5e50  local     IO_FLASH_ProcessBlankCheck (.IO_DRIVER_CODE:IO_FLASH_ProcessBlankCheck)
000c58a0  local     IO_FLASH_ProcessRead (.IO_DRIVER_CODE:IO_FLASH_ProcessRead)
000c5cf0  local     IO_FLASH_ProcessWrite (.IO_DRIVER_CODE:IO_FLASH_ProcessWrite)
00000000  global    IO_FLASH_Read (.IO_DRIVER_CODE:IO_FLASH_Read)
0803dab8  local     IO_FLASH_ReadConfig (.IO_DRIVER_DATA_NORMAL)
00000000  local     IO_FLASH_ReadDeviceAndManufacturerId (.IO_DRIVER_CODE:IO_FLASH_ReadDeviceAndManufacturerId)
0803dab4  local     IO_FLASH_ReadState (.IO_DRIVER_DATA_NORMAL)
000c5b60  local     IO_FLASH_ReadTask (.IO_DRIVER_CODE:IO_FLASH_ReadTask)
000c5880  local     IO_FLASH_Read_CalculateStopAddress (.IO_DRIVER_CODE:IO_FLASH_Read_CalculateStopAddress)
00000000  local     IO_FLASH_SetReadConfig (.IO_DRIVER_CODE:IO_FLASH_SetReadConfig)
00000000  local     IO_FLASH_SetWriteConfig (.IO_DRIVER_CODE:IO_FLASH_SetWriteConfig)
00000000  global    IO_FLASH_Suspend (.IO_DRIVER_CODE:IO_FLASH_Suspend)
000c5760  local     IO_FLASH_SuspendResumeTask (.IO_DRIVER_CODE:IO_FLASH_SuspendResumeTask)
0803dac8  local     IO_FLASH_SuspendState (.IO_DRIVER_DATA_NORMAL)
000c6680  global    IO_FLASH_Task (.IO_DRIVER_CODE:IO_FLASH_Task)
00000000  global    IO_FLASH_Write (.IO_DRIVER_CODE:IO_FLASH_Write)
0803da9c  local     IO_FLASH_WriteConfig (.IO_DRIVER_DATA_NORMAL)
0803da99  local     IO_FLASH_WriteState (.IO_DRIVER_DATA_NORMAL)
000c60a0  local     IO_FLASH_WriteTask (.IO_DRIVER_CODE:IO_FLASH_WriteTask)
000c5c50  local     IO_FLASH_Write_CalculateStopAddress (.IO_DRIVER_CODE:IO_FLASH_Write_CalculateStopAddress)
0803dac9  local     variant_option_flash (.IO_DRIVER_DATA_NORMAL)


================================================================================

ttc500.lib : drv_IO_EEPROM.obj

Run/Load            
Value     Binding   Name (Section)
--------  --------  ---------------
00000068  local     $C$L1 (.IO_DRIVER_CODE:IO_EEPROM_Write)
000c701c  local     $C$L10 (.IO_DRIVER_CODE:IO_EEPROM_ReadTask)
000c7050  local     $C$L11 (.IO_DRIVER_CODE:IO_EEPROM_ReadTask)
000c7094  local     $C$L12 (.IO_DRIVER_CODE:IO_EEPROM_ReadTask)
000c70ec  local     $C$L13 (.IO_DRIVER_CODE:IO_EEPROM_ReadTask)
000c70f4  local     $C$L14 (.IO_DRIVER_CODE:IO_EEPROM_ReadTask)
000c7110  local     $C$L15 (.IO_DRIVER_CODE:IO_EEPROM_ReadTask)
000c7124  local     $C$L16 (.IO_DRIVER_CODE:IO_EEPROM_ReadTask)
000c7128  local     $C$L17 (.IO_DRIVER_CODE:IO_EEPROM_ReadTask)
000c7138  local     $C$L18 (.IO_DRIVER_CODE:IO_EEPROM_ReadTask)
000c713c  local     $C$L19 (.IO_DRIVER_CODE:IO_EEPROM_ReadTask)
0000007c  local     $C$L2 (.IO_DRIVER_CODE:IO_EEPROM_Write)
000c7238  local     $C$L20 (.IO_DRIVER_CODE:IO_EEPROM_WriteTask)
000c729c  local     $C$L21 (.IO_DRIVER_CODE:IO_EEPROM_WriteTask)
000c7310  local     $C$L22 (.IO_DRIVER_CODE:IO_EEPROM_WriteTask)
000c7318  local     $C$L23 (.IO_DRIVER_CODE:IO_EEPROM_WriteTask)
000c7350  local     $C$L24 (.IO_DRIVER_CODE:IO_EEPROM_WriteTask)
000c7390  local     $C$L25 (.IO_DRIVER_CODE:IO_EEPROM_WriteTask)
000c73ac  local     $C$L26 (.IO_DRIVER_CODE:IO_EEPROM_WriteTask)
000c73c8  local     $C$L27 (.IO_DRIVER_CODE:IO_EEPROM_WriteTask)
000c73dc  local     $C$L28 (.IO_DRIVER_CODE:IO_EEPROM_WriteTask)
000c73e0  local     $C$L29 (.IO_DRIVER_CODE:IO_EEPROM_WriteTask)
000000f0  local     $C$L3 (.IO_DRIVER_CODE:IO_EEPROM_Write)
000c73e8  local     $C$L30 (.IO_DRIVER_CODE:IO_EEPROM_WriteTask)
000c73ec  local     $C$L31 (.IO_DRIVER_CODE:IO_EEPROM_WriteTask)
000c7448  local     $C$L32 (.IO_DRIVER_CODE:IO_EEPROM_Task)
00000068  local     $C$L33 (.IO_DRIVER_CODE:IO_EEPROM_Read)
0000007c  local     $C$L34 (.IO_DRIVER_CODE:IO_EEPROM_Read)
000000f0  local     $C$L35 (.IO_DRIVER_CODE:IO_EEPROM_Read)
000000f8  local     $C$L36 (.IO_DRIVER_CODE:IO_EEPROM_Read)
00000100  local     $C$L37 (.IO_DRIVER_CODE:IO_EEPROM_Read)
00000108  local     $C$L38 (.IO_DRIVER_CODE:IO_EEPROM_Read)
0000010c  local     $C$L39 (.IO_DRIVER_CODE:IO_EEPROM_Read)
000000f8  local     $C$L4 (.IO_DRIVER_CODE:IO_EEPROM_Write)
0000005c  local     $C$L40 (.IO_DRIVER_CODE:IO_EEPROM_IntInit)
00000070  local     $C$L41 (.IO_DRIVER_CODE:IO_EEPROM_IntInit)
000000fc  local     $C$L42 (.IO_DRIVER_CODE:IO_EEPROM_IntInit)
00000100  local     $C$L43 (.IO_DRIVER_CODE:IO_EEPROM_IntInit)
0000004c  local     $C$L44 (.IO_DRIVER_CODE:IO_EEPROM_GetStatus)
00000068  local     $C$L45 (.IO_DRIVER_CODE:IO_EEPROM_GetStatus)
00000080  local     $C$L46 (.IO_DRIVER_CODE:IO_EEPROM_GetStatus)
00000100  local     $C$L5 (.IO_DRIVER_CODE:IO_EEPROM_Write)
00000108  local     $C$L6 (.IO_DRIVER_CODE:IO_EEPROM_Write)
0000010c  local     $C$L7 (.IO_DRIVER_CODE:IO_EEPROM_Write)
000c6e50  local     $C$L8 (.IO_DRIVER_CODE:IO_EEPROM_ReadCmdResponse)
000c7000  local     $C$L9 (.IO_DRIVER_CODE:IO_EEPROM_ReadTask)
00000000  local     $a (.IO_DRIVER_CODE:IO_EEPROM_Write)
000c6dd0  local     $a (.IO_DRIVER_CODE:IO_EEPROM_WriteCmd)
000c6e00  local     $a (.IO_DRIVER_CODE:IO_EEPROM_ReadCmdResponse)
000c6ed0  local     $a (.IO_DRIVER_CODE:IO_EEPROM_ReadTask)
000c7140  local     $a (.IO_DRIVER_CODE:IO_EEPROM_WriteTask)
000c73f0  local     $a (.IO_DRIVER_CODE:IO_EEPROM_Task)
00000000  local     $a (.IO_DRIVER_CODE:IO_EEPROM_Read)
00000000  local     $a (.IO_DRIVER_CODE:IO_EEPROM_ResetVariables)
00000000  local     $a (.IO_DRIVER_CODE:IO_EEPROM_IntInit)
00000000  local     $a (.IO_DRIVER_CODE:IO_EEPROM_Init)
00000000  local     $a (.IO_DRIVER_CODE:IO_EEPROM_GetStatus)
00000000  local     $a (.IO_DRIVER_CODE:IO_EEPROM_DeInit)
0803d834  local     $d (.IO_DRIVER_DATA_NORMAL)
0803d838  local     $d (.IO_DRIVER_DATA_NORMAL)
0803d83c  local     $d (.IO_DRIVER_DATA_NORMAL)
0803d840  local     $d (.IO_DRIVER_DATA_NORMAL)
0803d844  local     $d (.IO_DRIVER_DATA_NORMAL)
0803d848  local     $d (.IO_DRIVER_DATA_NORMAL)
0803d84c  local     $d (.IO_DRIVER_DATA_NORMAL)
0803d850  local     $d (.IO_DRIVER_DATA_NORMAL)
0803d854  local     $d (.IO_DRIVER_DATA_NORMAL)
0803d858  local     $d (.IO_DRIVER_DATA_NORMAL)
0803d85a  local     $d (.IO_DRIVER_DATA_NORMAL)
0803d85c  local     $d (.IO_DRIVER_DATA_NORMAL)
0803d85e  local     $d (.IO_DRIVER_DATA_NORMAL)
0803d860  local     $d (.IO_DRIVER_DATA_NORMAL)
0803d862  local     $d (.IO_DRIVER_DATA_NORMAL)
0803d864  local     $d (.IO_DRIVER_DATA_NORMAL)
0803d8a8  local     $d (.IO_DRIVER_DATA_NORMAL)
0803d8eb  local     $d (.IO_DRIVER_DATA_NORMAL)
0803d8ec  local     $d (.IO_DRIVER_DATA_NORMAL)
00000000  local     .IO_DRIVER_CODE:IO_EEPROM_DeInit (.IO_DRIVER_CODE:IO_EEPROM_DeInit)
00000000  local     .IO_DRIVER_CODE:IO_EEPROM_GetStatus (.IO_DRIVER_CODE:IO_EEPROM_GetStatus)
00000000  local     .IO_DRIVER_CODE:IO_EEPROM_Init (.IO_DRIVER_CODE:IO_EEPROM_Init)
00000000  local     .IO_DRIVER_CODE:IO_EEPROM_IntInit (.IO_DRIVER_CODE:IO_EEPROM_IntInit)
00000000  local     .IO_DRIVER_CODE:IO_EEPROM_Read (.IO_DRIVER_CODE:IO_EEPROM_Read)
000c6e00  local     .IO_DRIVER_CODE:IO_EEPROM_ReadCmdResponse (.IO_DRIVER_CODE:IO_EEPROM_ReadCmdResponse)
000c6ed0  local     .IO_DRIVER_CODE:IO_EEPROM_ReadTask (.IO_DRIVER_CODE:IO_EEPROM_ReadTask)
00000000  local     .IO_DRIVER_CODE:IO_EEPROM_ResetVariables (.IO_DRIVER_CODE:IO_EEPROM_ResetVariables)
000c73f0  local     .IO_DRIVER_CODE:IO_EEPROM_Task (.IO_DRIVER_CODE:IO_EEPROM_Task)
00000000  local     .IO_DRIVER_CODE:IO_EEPROM_Write (.IO_DRIVER_CODE:IO_EEPROM_Write)
000c6dd0  local     .IO_DRIVER_CODE:IO_EEPROM_WriteCmd (.IO_DRIVER_CODE:IO_EEPROM_WriteCmd)
000c7140  local     .IO_DRIVER_CODE:IO_EEPROM_WriteTask (.IO_DRIVER_CODE:IO_EEPROM_WriteTask)
0803d834  local     .IO_DRIVER_DATA_NORMAL (.IO_DRIVER_DATA_NORMAL)
00000000  local     .text (.text)
0803d860  local     IO_EEPROM_Cmd_RX_Buffer (.IO_DRIVER_DATA_NORMAL)
0803d862  local     IO_EEPROM_Cmd_TX_Buffer (.IO_DRIVER_DATA_NORMAL)
0803d864  local     IO_EEPROM_Data_RX_Buffer (.IO_DRIVER_DATA_NORMAL)
0803d858  local     IO_EEPROM_Data_Read_InProgress (.IO_DRIVER_DATA_NORMAL)
0803d8a8  local     IO_EEPROM_Data_TX_Buffer (.IO_DRIVER_DATA_NORMAL)
0803d844  local     IO_EEPROM_Data_Write_InProgress (.IO_DRIVER_DATA_NORMAL)
00000000  global    IO_EEPROM_DeInit (.IO_DRIVER_CODE:IO_EEPROM_DeInit)
00000000  global    IO_EEPROM_GetStatus (.IO_DRIVER_CODE:IO_EEPROM_GetStatus)
00000000  global    IO_EEPROM_Init (.IO_DRIVER_CODE:IO_EEPROM_Init)
00000000  local     IO_EEPROM_IntInit (.IO_DRIVER_CODE:IO_EEPROM_IntInit)
0803d85c  local     IO_EEPROM_OpResult (.IO_DRIVER_DATA_NORMAL)
00000000  global    IO_EEPROM_Read (.IO_DRIVER_CODE:IO_EEPROM_Read)
000c6e00  local     IO_EEPROM_ReadCmdResponse (.IO_DRIVER_CODE:IO_EEPROM_ReadCmdResponse)
0803d8eb  local     IO_EEPROM_ReadState (.IO_DRIVER_DATA_NORMAL)
000c6ed0  local     IO_EEPROM_ReadTask (.IO_DRIVER_CODE:IO_EEPROM_ReadTask)
0803d848  local     IO_EEPROM_Read_ReqBuffer (.IO_DRIVER_DATA_NORMAL)
0803d854  local     IO_EEPROM_Read_ReqDoneSoFar (.IO_DRIVER_DATA_NORMAL)
0803d850  local     IO_EEPROM_Read_ReqSize (.IO_DRIVER_DATA_NORMAL)
0803d84c  local     IO_EEPROM_Read_StartPosition (.IO_DRIVER_DATA_NORMAL)
00000000  local     IO_EEPROM_ResetVariables (.IO_DRIVER_CODE:IO_EEPROM_ResetVariables)
000c73f0  global    IO_EEPROM_Task (.IO_DRIVER_CODE:IO_EEPROM_Task)
00000000  global    IO_EEPROM_Write (.IO_DRIVER_CODE:IO_EEPROM_Write)
000c6dd0  local     IO_EEPROM_WriteCmd (.IO_DRIVER_CODE:IO_EEPROM_WriteCmd)
0803d8ec  local     IO_EEPROM_WriteState (.IO_DRIVER_DATA_NORMAL)
000c7140  local     IO_EEPROM_WriteTask (.IO_DRIVER_CODE:IO_EEPROM_WriteTask)
0803d834  local     IO_EEPROM_Write_ReqBuffer (.IO_DRIVER_DATA_NORMAL)
0803d840  local     IO_EEPROM_Write_ReqDoneSoFar (.IO_DRIVER_DATA_NORMAL)
0803d83c  local     IO_EEPROM_Write_ReqSize (.IO_DRIVER_DATA_NORMAL)
0803d838  local     IO_EEPROM_Write_StartPosition (.IO_DRIVER_DATA_NORMAL)
0803d85a  local     last_rw_length (.IO_DRIVER_DATA_NORMAL)
0803d85e  local     variant_option_EEPROM (.IO_DRIVER_DATA_NORMAL)


================================================================================

ttc500.lib : drv_IO_INT_BLDB_Access.obj

Run/Load            
Value     Binding   Name (Section)
--------  --------  ---------------
00000048  local     $C$L1 (.IO_DRIVER_CODE:IO_INT_BLDB_Get)
0000004c  local     $C$L2 (.IO_DRIVER_CODE:IO_INT_BLDB_Get)
00000000  local     $a (.IO_DRIVER_CODE:IO_INT_BLDB_Get)
00000000  local     .IO_DRIVER_CODE:IO_INT_BLDB_Get (.IO_DRIVER_CODE:IO_INT_BLDB_Get)
00000000  local     .text (.text)
00000000  global    IO_INT_BLDB_Get (.IO_DRIVER_CODE:IO_INT_BLDB_Get)


================================================================================

ttc500.lib : drv_IO_INT_PWD.obj

Run/Load            
Value     Binding   Name (Section)
--------  --------  ---------------
00000184  local     $C$FL1 (.IO_DRIVER_CODE:IO_INT_PWD_GetDutyCyclePWMHR)
000001d8  local     $C$FL2 (.IO_DRIVER_CODE:IO_INT_PWD_GetDutyCycleFPGA)
000000b0  local     $C$L1 (.IO_DRIVER_CODE:IO_INT_PWD_InitQuadFPGA)
000000e8  local     $C$L10 (.IO_DRIVER_CODE:IO_INT_PWD_InitDutyCycleFPGA)
00000110  local     $C$L11 (.IO_DRIVER_CODE:IO_INT_PWD_InitDutyCycleFPGA)
00000128  local     $C$L12 (.IO_DRIVER_CODE:IO_INT_PWD_InitDutyCycleFPGA)
0000013c  local     $C$L13 (.IO_DRIVER_CODE:IO_INT_PWD_InitDutyCycleFPGA)
0000003c  local     $C$L14 (.IO_DRIVER_CODE:IO_INT_PWD_InitCountTMS)
000000b8  local     $C$L15 (.IO_DRIVER_CODE:IO_INT_PWD_InitCountFPGA)
000000d0  local     $C$L16 (.IO_DRIVER_CODE:IO_INT_PWD_InitCountFPGA)
000000e0  local     $C$L17 (.IO_DRIVER_CODE:IO_INT_PWD_InitCountFPGA)
000b62b0  local     $C$L18 (.IO_DRIVER_CODE:IO_INT_PWD_Init)
000b62d8  local     $C$L19 (.IO_DRIVER_CODE:IO_INT_PWD_Init)
000000c0  local     $C$L2 (.IO_DRIVER_CODE:IO_INT_PWD_InitQuadFPGA)
000b62ec  local     $C$L20 (.IO_DRIVER_CODE:IO_INT_PWD_Init)
0000008c  local     $C$L21 (.IO_DRIVER_CODE:IO_INT_PWD_GetQuadTMS)
00000094  local     $C$L22 (.IO_DRIVER_CODE:IO_INT_PWD_GetQuadTMS)
000000bc  local     $C$L23 (.IO_DRIVER_CODE:IO_INT_PWD_GetQuadTMS)
000000f0  local     $C$L24 (.IO_DRIVER_CODE:IO_INT_PWD_GetQuadTMS)
000000f4  local     $C$L25 (.IO_DRIVER_CODE:IO_INT_PWD_GetQuadTMS)
000000cc  local     $C$L26 (.IO_DRIVER_CODE:IO_INT_PWD_GetQuadFPGA)
00000040  local     $C$L27 (.IO_DRIVER_CODE:IO_INT_GetDutyCycleAvgValues)
00000050  local     $C$L28 (.IO_DRIVER_CODE:IO_INT_GetDutyCycleAvgValues)
00000070  local     $C$L29 (.IO_DRIVER_CODE:IO_INT_GetDutyCycleAvgValues)
00000080  local     $C$L3 (.IO_DRIVER_CODE:IO_INT_PWD_InitDutyCycleTMS)
00000120  local     $C$L30 (.IO_DRIVER_CODE:IO_INT_PWD_GetDutyCycleTMS)
00000150  local     $C$L31 (.IO_DRIVER_CODE:IO_INT_PWD_GetDutyCycleTMS)
00000184  local     $C$L32 (.IO_DRIVER_CODE:IO_INT_PWD_GetDutyCycleTMS)
000001b0  local     $C$L33 (.IO_DRIVER_CODE:IO_INT_PWD_GetDutyCycleTMS)
000001ec  local     $C$L34 (.IO_DRIVER_CODE:IO_INT_PWD_GetDutyCycleTMS)
00000220  local     $C$L35 (.IO_DRIVER_CODE:IO_INT_PWD_GetDutyCycleTMS)
00000260  local     $C$L36 (.IO_DRIVER_CODE:IO_INT_PWD_GetDutyCycleTMS)
00000290  local     $C$L37 (.IO_DRIVER_CODE:IO_INT_PWD_GetDutyCycleTMS)
000002d0  local     $C$L38 (.IO_DRIVER_CODE:IO_INT_PWD_GetDutyCycleTMS)
000002e0  local     $C$L39 (.IO_DRIVER_CODE:IO_INT_PWD_GetDutyCycleTMS)
0000009c  local     $C$L4 (.IO_DRIVER_CODE:IO_INT_PWD_InitDutyCycleTMS)
000002f8  local     $C$L40 (.IO_DRIVER_CODE:IO_INT_PWD_GetDutyCycleTMS)
00000310  local     $C$L41 (.IO_DRIVER_CODE:IO_INT_PWD_GetDutyCycleTMS)
00000318  local     $C$L42 (.IO_DRIVER_CODE:IO_INT_PWD_GetDutyCycleTMS)
00000368  local     $C$L43 (.IO_DRIVER_CODE:IO_INT_PWD_GetDutyCycleTMS)
000003a0  local     $C$L44 (.IO_DRIVER_CODE:IO_INT_PWD_GetDutyCycleTMS)
000003a8  local     $C$L45 (.IO_DRIVER_CODE:IO_INT_PWD_GetDutyCycleTMS)
000003b4  local     $C$L46 (.IO_DRIVER_CODE:IO_INT_PWD_GetDutyCycleTMS)
000003c0  local     $C$L47 (.IO_DRIVER_CODE:IO_INT_PWD_GetDutyCycleTMS)
000003d0  local     $C$L48 (.IO_DRIVER_CODE:IO_INT_PWD_GetDutyCycleTMS)
000003d4  local     $C$L49 (.IO_DRIVER_CODE:IO_INT_PWD_GetDutyCycleTMS)
00000030  local     $C$L5 (.IO_DRIVER_CODE:IO_INT_PWD_InitDutyCyclePWMHR)
000003d8  local     $C$L50 (.IO_DRIVER_CODE:IO_INT_PWD_GetDutyCycleTMS)
00000414  local     $C$L51 (.IO_DRIVER_CODE:IO_INT_PWD_GetDutyCycleTMS)
00000418  local     $C$L52 (.IO_DRIVER_CODE:IO_INT_PWD_GetDutyCycleTMS)
00000420  local     $C$L53 (.IO_DRIVER_CODE:IO_INT_PWD_GetDutyCycleTMS)
000000c8  local     $C$L54 (.IO_DRIVER_CODE:IO_INT_PWD_GetDutyCyclePWMHR)
000000d8  local     $C$L55 (.IO_DRIVER_CODE:IO_INT_PWD_GetDutyCyclePWMHR)
000000e0  local     $C$L56 (.IO_DRIVER_CODE:IO_INT_PWD_GetDutyCyclePWMHR)
000000f4  local     $C$L57 (.IO_DRIVER_CODE:IO_INT_PWD_GetDutyCyclePWMHR)
000000f8  local     $C$L58 (.IO_DRIVER_CODE:IO_INT_PWD_GetDutyCyclePWMHR)
0000010c  local     $C$L59 (.IO_DRIVER_CODE:IO_INT_PWD_GetDutyCyclePWMHR)
00000038  local     $C$L6 (.IO_DRIVER_CODE:IO_INT_PWD_InitDutyCyclePWMHR)
00000120  local     $C$L60 (.IO_DRIVER_CODE:IO_INT_PWD_GetDutyCyclePWMHR)
00000130  local     $C$L61 (.IO_DRIVER_CODE:IO_INT_PWD_GetDutyCyclePWMHR)
00000154  local     $C$L62 (.IO_DRIVER_CODE:IO_INT_PWD_GetDutyCyclePWMHR)
0000015c  local     $C$L63 (.IO_DRIVER_CODE:IO_INT_PWD_GetDutyCyclePWMHR)
00000160  local     $C$L64 (.IO_DRIVER_CODE:IO_INT_PWD_GetDutyCyclePWMHR)
0000017c  local     $C$L65 (.IO_DRIVER_CODE:IO_INT_PWD_GetDutyCyclePWMHR)
00000180  local     $C$L66 (.IO_DRIVER_CODE:IO_INT_PWD_GetDutyCyclePWMHR)
00000124  local     $C$L67 (.IO_DRIVER_CODE:IO_INT_PWD_GetDutyCycleFPGA)
00000138  local     $C$L68 (.IO_DRIVER_CODE:IO_INT_PWD_GetDutyCycleFPGA)
00000148  local     $C$L69 (.IO_DRIVER_CODE:IO_INT_PWD_GetDutyCycleFPGA)
00000090  local     $C$L7 (.IO_DRIVER_CODE:IO_INT_PWD_InitDutyCyclePWMHR)
00000160  local     $C$L70 (.IO_DRIVER_CODE:IO_INT_PWD_GetDutyCycleFPGA)
00000170  local     $C$L71 (.IO_DRIVER_CODE:IO_INT_PWD_GetDutyCycleFPGA)
00000178  local     $C$L72 (.IO_DRIVER_CODE:IO_INT_PWD_GetDutyCycleFPGA)
000001a0  local     $C$L73 (.IO_DRIVER_CODE:IO_INT_PWD_GetDutyCycleFPGA)
000001a8  local     $C$L74 (.IO_DRIVER_CODE:IO_INT_PWD_GetDutyCycleFPGA)
000001b0  local     $C$L75 (.IO_DRIVER_CODE:IO_INT_PWD_GetDutyCycleFPGA)
000001cc  local     $C$L76 (.IO_DRIVER_CODE:IO_INT_PWD_GetDutyCycleFPGA)
000001d0  local     $C$L77 (.IO_DRIVER_CODE:IO_INT_PWD_GetDutyCycleFPGA)
000001d4  local     $C$L78 (.IO_DRIVER_CODE:IO_INT_PWD_GetDutyCycleFPGA)
00000094  local     $C$L79 (.IO_DRIVER_CODE:IO_INT_PWD_GetCountTMS)
000000a4  local     $C$L8 (.IO_DRIVER_CODE:IO_INT_PWD_InitDutyCyclePWMHR)
000000a0  local     $C$L80 (.IO_DRIVER_CODE:IO_INT_PWD_GetCountTMS)
000000a4  local     $C$L81 (.IO_DRIVER_CODE:IO_INT_PWD_GetCountTMS)
000000a8  local     $C$L82 (.IO_DRIVER_CODE:IO_INT_PWD_GetCountTMS)
000000e0  local     $C$L83 (.IO_DRIVER_CODE:IO_INT_PWD_GetCountTMS)
000000e4  local     $C$L84 (.IO_DRIVER_CODE:IO_INT_PWD_GetCountTMS)
000000ec  local     $C$L85 (.IO_DRIVER_CODE:IO_INT_PWD_GetCountTMS)
00000090  local     $C$L86 (.IO_DRIVER_CODE:IO_INT_PWD_GetCountFPGA)
000000a0  local     $C$L87 (.IO_DRIVER_CODE:IO_INT_PWD_GetCountFPGA)
000000a4  local     $C$L88 (.IO_DRIVER_CODE:IO_INT_PWD_GetCountFPGA)
000000bc  local     $C$L89 (.IO_DRIVER_CODE:IO_INT_PWD_GetCountFPGA)
000000c0  local     $C$L9 (.IO_DRIVER_CODE:IO_INT_PWD_InitDutyCycleFPGA)
000000c0  local     $C$L90 (.IO_DRIVER_CODE:IO_INT_PWD_GetCountFPGA)
000000c4  local     $C$L91 (.IO_DRIVER_CODE:IO_INT_PWD_GetCountFPGA)
00000050  local     $C$L92 (.IO_DRIVER_CODE:IO_INT_PWD_DeInitDutyCycleTMS)
00000080  local     $C$L93 (.IO_DRIVER_CODE:IO_INT_PWD_DeInitDutyCyclePWMHR)
00000090  local     $C$L94 (.IO_DRIVER_CODE:IO_INT_PWD_DeInitDutyCycleFPGA)
000000a0  local     $C$L95 (.IO_DRIVER_CODE:IO_INT_PWD_DeInitDutyCycleFPGA)
00000060  local     $C$L96 (.IO_DRIVER_CODE:IO_INT_PWD_ConfigFPGAPWM)
0000007c  local     $C$L97 (.IO_DRIVER_CODE:IO_INT_PWD_ConfigFPGAPWM)
000000b0  local     $C$L98 (.IO_DRIVER_CODE:IO_INT_PWD_ConfigFPGAPWM)
000000c0  local     $C$L99 (.IO_DRIVER_CODE:IO_INT_PWD_ConfigFPGAPWM)
00000000  local     $P$T0$1 (.const)
00000008  local     $P$T1$2 (.const)
00000010  local     $P$T2$3 (.const)
00000018  local     $P$T3$4 (.const)
00000020  local     $P$T4$5 (.const)
00000028  local     $P$T5$6 (.const)
00000000  local     $a (.IO_DRIVER_CODE:IO_INT_PWD_ResetQuadTMS)
00000000  local     $a (.IO_DRIVER_CODE:IO_INT_PWD_ResetQuadFPGA)
00000000  local     $a (.IO_DRIVER_CODE:IO_INT_PWD_ResetCountTMS)
00000000  local     $a (.IO_DRIVER_CODE:IO_INT_PWD_ResetCountFPGA)
00000000  local     $a (.IO_DRIVER_CODE:IO_INT_PWD_InitQuadTMS)
00000000  local     $a (.IO_DRIVER_CODE:IO_INT_PWD_InitQuadFPGA)
00000000  local     $a (.IO_DRIVER_CODE:IO_INT_PWD_InitDutyCycleTMS)
00000000  local     $a (.IO_DRIVER_CODE:IO_INT_PWD_InitDutyCyclePWMHR)
00000000  local     $a (.IO_DRIVER_CODE:IO_INT_PWD_GetFPGATimer)
00000000  local     $a (.IO_DRIVER_CODE:IO_INT_PWD_InitDutyCycleFPGA)
00000000  local     $a (.IO_DRIVER_CODE:IO_INT_PWD_InitCountTMS)
00000000  local     $a (.IO_DRIVER_CODE:IO_INT_PWD_InitCountFPGA)
000b6250  local     $a (.IO_DRIVER_CODE:IO_INT_PWD_Init)
00000000  local     $a (.IO_DRIVER_CODE:IO_INT_PWD_GetQuadTMS)
00000000  local     $a (.IO_DRIVER_CODE:IO_INT_PWD_GetQuadFPGA)
000bb730  local     $a (.IO_DRIVER_CODE:IO_INT_PWD_GetFPGALrPWM)
000bb770  local     $a (.IO_DRIVER_CODE:IO_INT_PWD_GetFPGAHrPWM)
00000000  local     $a (.IO_DRIVER_CODE:IO_INT_GetDutyCycleAvgValues)
000000b4  local     $a (.IO_DRIVER_CODE:IO_INT_GetDutyCycleAvgValues)
000000cc  local     $a (.IO_DRIVER_CODE:IO_INT_GetDutyCycleAvgValues)
00000000  local     $a (.IO_DRIVER_CODE:IO_INT_PWD_GetDutyCycleTMS)
00000364  local     $a (.IO_DRIVER_CODE:IO_INT_PWD_GetDutyCycleTMS)
00000000  local     $a (.IO_DRIVER_CODE:IO_INT_PWD_GetDutyCyclePWMHR)
00000000  local     $a (.IO_DRIVER_CODE:IO_INT_PWD_GetDutyCycleFPGA)
00000000  local     $a (.IO_DRIVER_CODE:IO_INT_PWD_GetCountTMS)
00000000  local     $a (.IO_DRIVER_CODE:IO_INT_PWD_GetCountFPGA)
00000000  local     $a (.IO_DRIVER_CODE:IO_INT_PWD_DeInitQuadTMS)
00000000  local     $a (.IO_DRIVER_CODE:IO_INT_PWD_DeInitQuadFPGA)
00000000  local     $a (.IO_DRIVER_CODE:IO_INT_PWD_DeInitDutyCycleTMS)
00000000  local     $a (.IO_DRIVER_CODE:IO_INT_PWD_DeInitDutyCyclePWMHR)
00000000  local     $a (.IO_DRIVER_CODE:IO_INT_PWD_DeInitDutyCycleFPGA)
00000000  local     $a (.IO_DRIVER_CODE:IO_INT_PWD_DeInitCountTMS)
00000000  local     $a (.IO_DRIVER_CODE:IO_INT_PWD_DeInitCountFPGA)
00000000  local     $a (.IO_DRIVER_CODE:IO_INT_PWD_ConfigFPGAPWM)
0803c890  local     $d (.IO_DRIVER_DATA_NORMAL)
0803c8d0  local     $d (.IO_DRIVER_DATA_NORMAL)
0803c910  local     $d (.IO_DRIVER_DATA_NORMAL)
0803c950  local     $d (.IO_DRIVER_DATA_NORMAL)
0803c990  local     $d (.IO_DRIVER_DATA_NORMAL)
0803c9d0  local     $d (.IO_DRIVER_DATA_NORMAL)
0803ca10  local     $d (.IO_DRIVER_DATA_NORMAL)
0803ca50  local     $d (.IO_DRIVER_DATA_NORMAL)
0803ca90  local     $d (.IO_DRIVER_DATA_NORMAL)
0803cad0  local     $d (.IO_DRIVER_DATA_NORMAL)
0803cb10  local     $d (.IO_DRIVER_DATA_NORMAL)
0803cb50  local     $d (.IO_DRIVER_DATA_NORMAL)
0803cb90  local     $d (.IO_DRIVER_DATA_NORMAL)
00000000  local     $d (.const)
00000008  local     $d (.const)
00000010  local     $d (.const)
00000018  local     $d (.const)
00000020  local     $d (.const)
00000028  local     $d (.const)
00000184  local     $d (.IO_DRIVER_CODE:IO_INT_PWD_GetDutyCyclePWMHR)
000001d8  local     $d (.IO_DRIVER_CODE:IO_INT_PWD_GetDutyCycleFPGA)
000000ac  local     $t (.IO_DRIVER_CODE:IO_INT_GetDutyCycleAvgValues)
000000c4  local     $t (.IO_DRIVER_CODE:IO_INT_GetDutyCycleAvgValues)
0000035c  local     $t (.IO_DRIVER_CODE:IO_INT_PWD_GetDutyCycleTMS)
00000000  local     .IO_DRIVER_CODE:IO_INT_GetDutyCycleAvgValues (.IO_DRIVER_CODE:IO_INT_GetDutyCycleAvgValues)
00000000  local     .IO_DRIVER_CODE:IO_INT_PWD_ConfigFPGAPWM (.IO_DRIVER_CODE:IO_INT_PWD_ConfigFPGAPWM)
00000000  local     .IO_DRIVER_CODE:IO_INT_PWD_DeInitCountFPGA (.IO_DRIVER_CODE:IO_INT_PWD_DeInitCountFPGA)
00000000  local     .IO_DRIVER_CODE:IO_INT_PWD_DeInitCountTMS (.IO_DRIVER_CODE:IO_INT_PWD_DeInitCountTMS)
00000000  local     .IO_DRIVER_CODE:IO_INT_PWD_DeInitDutyCycleFPGA (.IO_DRIVER_CODE:IO_INT_PWD_DeInitDutyCycleFPGA)
00000000  local     .IO_DRIVER_CODE:IO_INT_PWD_DeInitDutyCyclePWMHR (.IO_DRIVER_CODE:IO_INT_PWD_DeInitDutyCyclePWMHR)
00000000  local     .IO_DRIVER_CODE:IO_INT_PWD_DeInitDutyCycleTMS (.IO_DRIVER_CODE:IO_INT_PWD_DeInitDutyCycleTMS)
00000000  local     .IO_DRIVER_CODE:IO_INT_PWD_DeInitQuadFPGA (.IO_DRIVER_CODE:IO_INT_PWD_DeInitQuadFPGA)
00000000  local     .IO_DRIVER_CODE:IO_INT_PWD_DeInitQuadTMS (.IO_DRIVER_CODE:IO_INT_PWD_DeInitQuadTMS)
00000000  local     .IO_DRIVER_CODE:IO_INT_PWD_GetCountFPGA (.IO_DRIVER_CODE:IO_INT_PWD_GetCountFPGA)
00000000  local     .IO_DRIVER_CODE:IO_INT_PWD_GetCountTMS (.IO_DRIVER_CODE:IO_INT_PWD_GetCountTMS)
00000000  local     .IO_DRIVER_CODE:IO_INT_PWD_GetDutyCycleFPGA (.IO_DRIVER_CODE:IO_INT_PWD_GetDutyCycleFPGA)
00000000  local     .IO_DRIVER_CODE:IO_INT_PWD_GetDutyCyclePWMHR (.IO_DRIVER_CODE:IO_INT_PWD_GetDutyCyclePWMHR)
00000000  local     .IO_DRIVER_CODE:IO_INT_PWD_GetDutyCycleTMS (.IO_DRIVER_CODE:IO_INT_PWD_GetDutyCycleTMS)
000bb770  local     .IO_DRIVER_CODE:IO_INT_PWD_GetFPGAHrPWM (.IO_DRIVER_CODE:IO_INT_PWD_GetFPGAHrPWM)
000bb730  local     .IO_DRIVER_CODE:IO_INT_PWD_GetFPGALrPWM (.IO_DRIVER_CODE:IO_INT_PWD_GetFPGALrPWM)
00000000  local     .IO_DRIVER_CODE:IO_INT_PWD_GetFPGATimer (.IO_DRIVER_CODE:IO_INT_PWD_GetFPGATimer)
00000000  local     .IO_DRIVER_CODE:IO_INT_PWD_GetQuadFPGA (.IO_DRIVER_CODE:IO_INT_PWD_GetQuadFPGA)
00000000  local     .IO_DRIVER_CODE:IO_INT_PWD_GetQuadTMS (.IO_DRIVER_CODE:IO_INT_PWD_GetQuadTMS)
000b6250  local     .IO_DRIVER_CODE:IO_INT_PWD_Init (.IO_DRIVER_CODE:IO_INT_PWD_Init)
00000000  local     .IO_DRIVER_CODE:IO_INT_PWD_InitCountFPGA (.IO_DRIVER_CODE:IO_INT_PWD_InitCountFPGA)
00000000  local     .IO_DRIVER_CODE:IO_INT_PWD_InitCountTMS (.IO_DRIVER_CODE:IO_INT_PWD_InitCountTMS)
00000000  local     .IO_DRIVER_CODE:IO_INT_PWD_InitDutyCycleFPGA (.IO_DRIVER_CODE:IO_INT_PWD_InitDutyCycleFPGA)
00000000  local     .IO_DRIVER_CODE:IO_INT_PWD_InitDutyCyclePWMHR (.IO_DRIVER_CODE:IO_INT_PWD_InitDutyCyclePWMHR)
00000000  local     .IO_DRIVER_CODE:IO_INT_PWD_InitDutyCycleTMS (.IO_DRIVER_CODE:IO_INT_PWD_InitDutyCycleTMS)
00000000  local     .IO_DRIVER_CODE:IO_INT_PWD_InitQuadFPGA (.IO_DRIVER_CODE:IO_INT_PWD_InitQuadFPGA)
00000000  local     .IO_DRIVER_CODE:IO_INT_PWD_InitQuadTMS (.IO_DRIVER_CODE:IO_INT_PWD_InitQuadTMS)
00000000  local     .IO_DRIVER_CODE:IO_INT_PWD_ResetCountFPGA (.IO_DRIVER_CODE:IO_INT_PWD_ResetCountFPGA)
00000000  local     .IO_DRIVER_CODE:IO_INT_PWD_ResetCountTMS (.IO_DRIVER_CODE:IO_INT_PWD_ResetCountTMS)
00000000  local     .IO_DRIVER_CODE:IO_INT_PWD_ResetQuadFPGA (.IO_DRIVER_CODE:IO_INT_PWD_ResetQuadFPGA)
00000000  local     .IO_DRIVER_CODE:IO_INT_PWD_ResetQuadTMS (.IO_DRIVER_CODE:IO_INT_PWD_ResetQuadTMS)
0803c890  local     .IO_DRIVER_DATA_NORMAL (.IO_DRIVER_DATA_NORMAL)
00000000  local     .const (.const)
00000000  local     .text (.text)
00000000  local     IO_INT_GetDutyCycleAvgValues (.IO_DRIVER_CODE:IO_INT_GetDutyCycleAvgValues)
00000000  global    IO_INT_PWD_ConfigFPGAPWM (.IO_DRIVER_CODE:IO_INT_PWD_ConfigFPGAPWM)
00000000  global    IO_INT_PWD_DeInitCountFPGA (.IO_DRIVER_CODE:IO_INT_PWD_DeInitCountFPGA)
00000000  global    IO_INT_PWD_DeInitCountTMS (.IO_DRIVER_CODE:IO_INT_PWD_DeInitCountTMS)
00000000  global    IO_INT_PWD_DeInitDutyCycleFPGA (.IO_DRIVER_CODE:IO_INT_PWD_DeInitDutyCycleFPGA)
00000000  global    IO_INT_PWD_DeInitDutyCyclePWMHR (.IO_DRIVER_CODE:IO_INT_PWD_DeInitDutyCyclePWMHR)
00000000  global    IO_INT_PWD_DeInitDutyCycleTMS (.IO_DRIVER_CODE:IO_INT_PWD_DeInitDutyCycleTMS)
00000000  global    IO_INT_PWD_DeInitQuadFPGA (.IO_DRIVER_CODE:IO_INT_PWD_DeInitQuadFPGA)
00000000  global    IO_INT_PWD_DeInitQuadTMS (.IO_DRIVER_CODE:IO_INT_PWD_DeInitQuadTMS)
00000000  global    IO_INT_PWD_GetCountFPGA (.IO_DRIVER_CODE:IO_INT_PWD_GetCountFPGA)
00000000  global    IO_INT_PWD_GetCountTMS (.IO_DRIVER_CODE:IO_INT_PWD_GetCountTMS)
00000000  global    IO_INT_PWD_GetDutyCycleFPGA (.IO_DRIVER_CODE:IO_INT_PWD_GetDutyCycleFPGA)
00000000  global    IO_INT_PWD_GetDutyCyclePWMHR (.IO_DRIVER_CODE:IO_INT_PWD_GetDutyCyclePWMHR)
00000000  global    IO_INT_PWD_GetDutyCycleTMS (.IO_DRIVER_CODE:IO_INT_PWD_GetDutyCycleTMS)
000bb770  global    IO_INT_PWD_GetFPGAHrPWM (.IO_DRIVER_CODE:IO_INT_PWD_GetFPGAHrPWM)
000bb730  global    IO_INT_PWD_GetFPGALrPWM (.IO_DRIVER_CODE:IO_INT_PWD_GetFPGALrPWM)
00000000  global    IO_INT_PWD_GetFPGATimer (.IO_DRIVER_CODE:IO_INT_PWD_GetFPGATimer)
00000000  global    IO_INT_PWD_GetQuadFPGA (.IO_DRIVER_CODE:IO_INT_PWD_GetQuadFPGA)
00000000  global    IO_INT_PWD_GetQuadTMS (.IO_DRIVER_CODE:IO_INT_PWD_GetQuadTMS)
000b6250  global    IO_INT_PWD_Init (.IO_DRIVER_CODE:IO_INT_PWD_Init)
00000000  global    IO_INT_PWD_InitCountFPGA (.IO_DRIVER_CODE:IO_INT_PWD_InitCountFPGA)
00000000  global    IO_INT_PWD_InitCountTMS (.IO_DRIVER_CODE:IO_INT_PWD_InitCountTMS)
00000000  global    IO_INT_PWD_InitDutyCycleFPGA (.IO_DRIVER_CODE:IO_INT_PWD_InitDutyCycleFPGA)
00000000  global    IO_INT_PWD_InitDutyCyclePWMHR (.IO_DRIVER_CODE:IO_INT_PWD_InitDutyCyclePWMHR)
00000000  global    IO_INT_PWD_InitDutyCycleTMS (.IO_DRIVER_CODE:IO_INT_PWD_InitDutyCycleTMS)
00000000  global    IO_INT_PWD_InitQuadFPGA (.IO_DRIVER_CODE:IO_INT_PWD_InitQuadFPGA)
00000000  global    IO_INT_PWD_InitQuadTMS (.IO_DRIVER_CODE:IO_INT_PWD_InitQuadTMS)
00000000  global    IO_INT_PWD_ResetCountFPGA (.IO_DRIVER_CODE:IO_INT_PWD_ResetCountFPGA)
00000000  global    IO_INT_PWD_ResetCountTMS (.IO_DRIVER_CODE:IO_INT_PWD_ResetCountTMS)
00000000  global    IO_INT_PWD_ResetQuadFPGA (.IO_DRIVER_CODE:IO_INT_PWD_ResetQuadFPGA)
00000000  global    IO_INT_PWD_ResetQuadTMS (.IO_DRIVER_CODE:IO_INT_PWD_ResetQuadTMS)
0803cb90  global    io_int_pwd_SavedPulseSamples (.IO_DRIVER_DATA_NORMAL)
0803c890  global    io_int_pwd_dc_buf0_0 (.IO_DRIVER_DATA_NORMAL)
0803c8d0  global    io_int_pwd_dc_buf0_1 (.IO_DRIVER_DATA_NORMAL)
0803c910  global    io_int_pwd_dc_buf1_0 (.IO_DRIVER_DATA_NORMAL)
0803c950  global    io_int_pwd_dc_buf1_1 (.IO_DRIVER_DATA_NORMAL)
0803c990  global    io_int_pwd_dc_buf2_0 (.IO_DRIVER_DATA_NORMAL)
0803c9d0  global    io_int_pwd_dc_buf2_1 (.IO_DRIVER_DATA_NORMAL)
0803ca10  global    io_int_pwd_dc_buf3_0 (.IO_DRIVER_DATA_NORMAL)
0803ca50  global    io_int_pwd_dc_buf3_1 (.IO_DRIVER_DATA_NORMAL)
0803ca90  global    io_int_pwd_dc_buf4_0 (.IO_DRIVER_DATA_NORMAL)
0803cad0  global    io_int_pwd_dc_buf4_1 (.IO_DRIVER_DATA_NORMAL)
0803cb10  global    io_int_pwd_dc_buf5_0 (.IO_DRIVER_DATA_NORMAL)
0803cb50  global    io_int_pwd_dc_buf5_1 (.IO_DRIVER_DATA_NORMAL)


================================================================================

ttc500.lib : drv_DIAG_INT_PWM_Check.obj

Run/Load            
Value     Binding   Name (Section)
--------  --------  ---------------
000bb8d0  local     $C$L1 (.IO_DRIVER_CODE:DIAG_PWM_ShortCircuitTestPerform)
000ba7a4  local     $C$L10 (.IO_DRIVER_CODE:DIAG_PWM_OutputCheck)
000ba7b0  local     $C$L11 (.IO_DRIVER_CODE:DIAG_PWM_OutputCheck)
000ba7bc  local     $C$L12 (.IO_DRIVER_CODE:DIAG_PWM_OutputCheck)
000ba7d8  local     $C$L13 (.IO_DRIVER_CODE:DIAG_PWM_OutputCheck)
000c44f0  local     $C$L14 (.IO_DRIVER_CODE:DIAG_PWM_LoadCheck_SC)
000c455c  local     $C$L15 (.IO_DRIVER_CODE:DIAG_PWM_LoadCheck_SC)
000c4560  local     $C$L16 (.IO_DRIVER_CODE:DIAG_PWM_LoadCheck_SC)
000c4564  local     $C$L17 (.IO_DRIVER_CODE:DIAG_PWM_LoadCheck_SC)
000c42b0  local     $C$L18 (.IO_DRIVER_CODE:DIAG_PWM_LoadCheck_OL)
000c4334  local     $C$L19 (.IO_DRIVER_CODE:DIAG_PWM_LoadCheck_OL)
000bb940  local     $C$L2 (.IO_DRIVER_CODE:DIAG_PWM_ShortCircuitTestPerform)
000c4358  local     $C$L20 (.IO_DRIVER_CODE:DIAG_PWM_LoadCheck_OL)
000c435c  local     $C$L21 (.IO_DRIVER_CODE:DIAG_PWM_LoadCheck_OL)
000ba850  local     $C$L22 (.IO_DRIVER_CODE:DIAG_PWM_CurrentCheck)
000ba8f0  local     $C$L23 (.IO_DRIVER_CODE:DIAG_PWM_CurrentCheck)
000ba91c  local     $C$L24 (.IO_DRIVER_CODE:DIAG_PWM_CurrentCheck)
000bb978  local     $C$L3 (.IO_DRIVER_CODE:DIAG_PWM_ShortCircuitTestPerform)
000bb980  local     $C$L4 (.IO_DRIVER_CODE:DIAG_PWM_ShortCircuitTestPerform)
000bb994  local     $C$L5 (.IO_DRIVER_CODE:DIAG_PWM_ShortCircuitTestPerform)
000bb9f0  local     $C$L6 (.IO_DRIVER_CODE:DIAG_PWM_ShortCircuitTestPerform)
000bba20  local     $C$L7 (.IO_DRIVER_CODE:DIAG_PWM_ShortCircuitTestPerform)
000ba670  local     $C$L8 (.IO_DRIVER_CODE:DIAG_PWM_OutputCheck)
000ba740  local     $C$L9 (.IO_DRIVER_CODE:DIAG_PWM_OutputCheck)
000bb830  local     $a (.IO_DRIVER_CODE:DIAG_PWM_ShortCircuitTestPerform)
000c4200  local     $a (.IO_DRIVER_CODE:DIAG_PWM_ShortCircuitTestCheck)
000ba610  local     $a (.IO_DRIVER_CODE:DIAG_PWM_OutputCheck)
000ba704  local     $a (.IO_DRIVER_CODE:DIAG_PWM_OutputCheck)
000b2010  local     $a (.IO_DRIVER_CODE:DIAG_PWM_ModuleInit)
000c44a0  local     $a (.IO_DRIVER_CODE:DIAG_PWM_LoadCheck_SC)
000c4260  local     $a (.IO_DRIVER_CODE:DIAG_PWM_LoadCheck_OL)
000ba7f0  local     $a (.IO_DRIVER_CODE:DIAG_PWM_CurrentCheck)
0803d0b5  local     $d (.IO_DRIVER_DATA_NORMAL)
000ba6fc  local     $t (.IO_DRIVER_CODE:DIAG_PWM_OutputCheck)
000ba7f0  local     .IO_DRIVER_CODE:DIAG_PWM_CurrentCheck (.IO_DRIVER_CODE:DIAG_PWM_CurrentCheck)
000c4260  local     .IO_DRIVER_CODE:DIAG_PWM_LoadCheck_OL (.IO_DRIVER_CODE:DIAG_PWM_LoadCheck_OL)
000c44a0  local     .IO_DRIVER_CODE:DIAG_PWM_LoadCheck_SC (.IO_DRIVER_CODE:DIAG_PWM_LoadCheck_SC)
000b2010  local     .IO_DRIVER_CODE:DIAG_PWM_ModuleInit (.IO_DRIVER_CODE:DIAG_PWM_ModuleInit)
000ba610  local     .IO_DRIVER_CODE:DIAG_PWM_OutputCheck (.IO_DRIVER_CODE:DIAG_PWM_OutputCheck)
000c4200  local     .IO_DRIVER_CODE:DIAG_PWM_ShortCircuitTestCheck (.IO_DRIVER_CODE:DIAG_PWM_ShortCircuitTestCheck)
000bb830  local     .IO_DRIVER_CODE:DIAG_PWM_ShortCircuitTestPerform (.IO_DRIVER_CODE:DIAG_PWM_ShortCircuitTestPerform)
0803d0b5  local     .IO_DRIVER_DATA_NORMAL (.IO_DRIVER_DATA_NORMAL)
00000000  local     .text (.text)
000ba7f0  global    DIAG_PWM_CurrentCheck (.IO_DRIVER_CODE:DIAG_PWM_CurrentCheck)
000c4260  global    DIAG_PWM_LoadCheck_OL (.IO_DRIVER_CODE:DIAG_PWM_LoadCheck_OL)
000c44a0  global    DIAG_PWM_LoadCheck_SC (.IO_DRIVER_CODE:DIAG_PWM_LoadCheck_SC)
000b2010  global    DIAG_PWM_ModuleInit (.IO_DRIVER_CODE:DIAG_PWM_ModuleInit)
000ba610  global    DIAG_PWM_OutputCheck (.IO_DRIVER_CODE:DIAG_PWM_OutputCheck)
000c4200  global    DIAG_PWM_ShortCircuitTestCheck (.IO_DRIVER_CODE:DIAG_PWM_ShortCircuitTestCheck)
000bb830  global    DIAG_PWM_ShortCircuitTestPerform (.IO_DRIVER_CODE:DIAG_PWM_ShortCircuitTestPerform)
0803d0b5  local     diag_pwm_checker_data (.IO_DRIVER_DATA_NORMAL)


================================================================================

ttc500.lib : drv_IO_INT_ADC.obj

Run/Load            
Value     Binding   Name (Section)
--------  --------  ---------------
000b49b0  local     $C$L1 (.IO_DRIVER_CODE:IO_INT_ADC_MuxInit)
000b5540  local     $C$L10 (.IO_DRIVER_CODE:IO_INT_ADC_Init)
000b5564  local     $C$L11 (.IO_DRIVER_CODE:IO_INT_ADC_Init)
000b5570  local     $C$L12 (.IO_DRIVER_CODE:IO_INT_ADC_Init)
000b5574  local     $C$L13 (.IO_DRIVER_CODE:IO_INT_ADC_Init)
000b5578  local     $C$L14 (.IO_DRIVER_CODE:IO_INT_ADC_Init)
000b5580  local     $C$L15 (.IO_DRIVER_CODE:IO_INT_ADC_Init)
000b55a4  local     $C$L16 (.IO_DRIVER_CODE:IO_INT_ADC_Init)
000b55b8  local     $C$L17 (.IO_DRIVER_CODE:IO_INT_ADC_Init)
000c2c0c  local     $C$L18 (.IO_DRIVER_CODE:IO_INT_ADC_DequeueSingle)
000c2c10  local     $C$L19 (.IO_DRIVER_CODE:IO_INT_ADC_DequeueSingle)
000b49c0  local     $C$L2 (.IO_DRIVER_CODE:IO_INT_ADC_MuxInit)
00000070  local     $C$L20 (.IO_DRIVER_CODE:IO_INT_ADC_DequeueAll)
0000008c  local     $C$L21 (.IO_DRIVER_CODE:IO_INT_ADC_DequeueAll)
000000a4  local     $C$L22 (.IO_DRIVER_CODE:IO_INT_ADC_DequeueAll)
000000c0  local     $C$L23 (.IO_DRIVER_CODE:IO_INT_ADC_DequeueAll)
0000012c  local     $C$L24 (.IO_DRIVER_CODE:IO_INT_ADC_DequeueAll)
00000134  local     $C$L25 (.IO_DRIVER_CODE:IO_INT_ADC_DequeueAll)
0000013c  local     $C$L26 (.IO_DRIVER_CODE:IO_INT_ADC_DequeueAll)
00000144  local     $C$L27 (.IO_DRIVER_CODE:IO_INT_ADC_DequeueAll)
00000148  local     $C$L28 (.IO_DRIVER_CODE:IO_INT_ADC_DequeueAll)
0000019c  local     $C$L29 (.IO_DRIVER_CODE:IO_INT_ADC_DequeueAll)
000b4d30  local     $C$L3 (.IO_DRIVER_CODE:IO_INT_ADC_MuxInit)
000001a0  local     $C$L30 (.IO_DRIVER_CODE:IO_INT_ADC_DequeueAll)
000001b0  local     $C$L31 (.IO_DRIVER_CODE:IO_INT_ADC_DequeueAll)
000001c0  local     $C$L32 (.IO_DRIVER_CODE:IO_INT_ADC_DequeueAll)
000001cc  local     $C$L33 (.IO_DRIVER_CODE:IO_INT_ADC_DequeueAll)
000b4d4c  local     $C$L4 (.IO_DRIVER_CODE:IO_INT_ADC_MuxInit)
000b5440  local     $C$L5 (.IO_DRIVER_CODE:IO_INT_ADC_MuxInit)
000b5444  local     $C$L6 (.IO_DRIVER_CODE:IO_INT_ADC_MuxInit)
000b54f0  local     $C$L7 (.IO_DRIVER_CODE:IO_INT_ADC_Init)
000b5510  local     $C$L8 (.IO_DRIVER_CODE:IO_INT_ADC_Init)
000b5534  local     $C$L9 (.IO_DRIVER_CODE:IO_INT_ADC_Init)
00000000  local     $a (.IO_DRIVER_CODE:IO_INT_ADC_QueueInit)
000b6420  local     $a (.IO_DRIVER_CODE:IO_INT_ADC_MuxEnable)
000b4920  local     $a (.IO_DRIVER_CODE:IO_INT_ADC_MuxInit)
000b54a0  local     $a (.IO_DRIVER_CODE:IO_INT_ADC_Init)
000bede0  local     $a (.IO_DRIVER_CODE:IO_INT_ADC_Enqueue)
000c2bb0  local     $a (.IO_DRIVER_CODE:IO_INT_ADC_DequeueSingle)
00000000  local     $a (.IO_DRIVER_CODE:IO_INT_ADC_DequeueAll)
0803cd10  local     $d (.IO_DRIVER_DATA_NORMAL)
0803cd14  local     $d (.IO_DRIVER_DATA_NORMAL)
0803d0b4  local     $d (.IO_DRIVER_DATA_NORMAL)
000cb104  local     $d (.IO_DRIVER_CONST)
000cb110  local     $d (.IO_DRIVER_CONST)
00000000  local     .IO_DRIVER_CODE:IO_INT_ADC_DequeueAll (.IO_DRIVER_CODE:IO_INT_ADC_DequeueAll)
000c2bb0  local     .IO_DRIVER_CODE:IO_INT_ADC_DequeueSingle (.IO_DRIVER_CODE:IO_INT_ADC_DequeueSingle)
000bede0  local     .IO_DRIVER_CODE:IO_INT_ADC_Enqueue (.IO_DRIVER_CODE:IO_INT_ADC_Enqueue)
000b54a0  local     .IO_DRIVER_CODE:IO_INT_ADC_Init (.IO_DRIVER_CODE:IO_INT_ADC_Init)
000b6420  local     .IO_DRIVER_CODE:IO_INT_ADC_MuxEnable (.IO_DRIVER_CODE:IO_INT_ADC_MuxEnable)
000b4920  local     .IO_DRIVER_CODE:IO_INT_ADC_MuxInit (.IO_DRIVER_CODE:IO_INT_ADC_MuxInit)
00000000  local     .IO_DRIVER_CODE:IO_INT_ADC_QueueInit (.IO_DRIVER_CODE:IO_INT_ADC_QueueInit)
000cb104  local     .IO_DRIVER_CONST (.IO_DRIVER_CONST)
0803cd10  local     .IO_DRIVER_DATA_NORMAL (.IO_DRIVER_DATA_NORMAL)
00000000  local     .text (.text)
00000000  global    IO_INT_ADC_DequeueAll (.IO_DRIVER_CODE:IO_INT_ADC_DequeueAll)
000c2bb0  global    IO_INT_ADC_DequeueSingle (.IO_DRIVER_CODE:IO_INT_ADC_DequeueSingle)
000bede0  global    IO_INT_ADC_Enqueue (.IO_DRIVER_CODE:IO_INT_ADC_Enqueue)
000b54a0  global    IO_INT_ADC_Init (.IO_DRIVER_CODE:IO_INT_ADC_Init)
0803d0b4  local     IO_INT_ADC_MuxConfigRAM (.IO_DRIVER_DATA_NORMAL)
000b6420  global    IO_INT_ADC_MuxEnable (.IO_DRIVER_CODE:IO_INT_ADC_MuxEnable)
000b4920  local     IO_INT_ADC_MuxInit (.IO_DRIVER_CODE:IO_INT_ADC_MuxInit)
00000000  global    IO_INT_ADC_QueueInit (.IO_DRIVER_CODE:IO_INT_ADC_QueueInit)
000cb110  local     IO_INT_AdcMuxConfig (.IO_DRIVER_CONST)
000cb104  local     Port_ADC_Mux (.IO_DRIVER_CONST)
0803cd10  local     io_int_adc_mux_config_p (.IO_DRIVER_DATA_NORMAL)
0803cd14  global    io_int_adc_results (.IO_DRIVER_DATA_NORMAL)


================================================================================

ttc500.lib : drv_IO_INT_SHM.obj

Run/Load            
Value     Binding   Name (Section)
--------  --------  ---------------
000b263c  local     $C$L1 (.IO_DRIVER_CODE:IO_INT_SHM_VerifyIntegrity)
000b2ad4  local     $C$L2 (.IO_DRIVER_CODE:IO_INT_SHM_GenIntegrityInfo)
000b2b7c  local     $C$L3 (.IO_DRIVER_CODE:IO_INT_SHM_Write)
000b2998  local     $C$L4 (.IO_DRIVER_CODE:IO_INT_SHM_Read)
00000038  local     $C$L5 (.IO_DRIVER_CODE:IO_INT_SHM_InitialInit)
000b26a8  local     $C$L6 (.IO_DRIVER_CODE:IO_INT_SHM_Init)
00000028  local     $C$L7 (.IO_DRIVER_CODE:IO_INT_SHM_CalcSwiHandlerCrc)
000b25c0  local     $a (.IO_DRIVER_CODE:IO_INT_SHM_VerifyIntegrity)
000b2a80  local     $a (.IO_DRIVER_CODE:IO_INT_SHM_GenIntegrityInfo)
000b2ae0  local     $a (.IO_DRIVER_CODE:IO_INT_SHM_Write)
00000000  local     $a (.IO_DRIVER_CODE:IO_INT_SHM_VerifySwiHandlerIntegrity)
000b2920  local     $a (.IO_DRIVER_CODE:IO_INT_SHM_Read)
00000000  local     $a (.IO_DRIVER_CODE:IO_INT_SHM_Reset)
00000000  local     $a (.IO_DRIVER_CODE:IO_INT_SHM_InitialInit)
000b2650  local     $a (.IO_DRIVER_CODE:IO_INT_SHM_Init)
00000000  local     $a (.IO_DRIVER_CODE:IO_INT_SHM_CalcSwiHandlerCrc)
0803d8ee  local     $d (.IO_DRIVER_DATA_NORMAL)
00000000  local     .IO_DRIVER_CODE:IO_INT_SHM_CalcSwiHandlerCrc (.IO_DRIVER_CODE:IO_INT_SHM_CalcSwiHandlerCrc)
000b2a80  local     .IO_DRIVER_CODE:IO_INT_SHM_GenIntegrityInfo (.IO_DRIVER_CODE:IO_INT_SHM_GenIntegrityInfo)
000b2650  local     .IO_DRIVER_CODE:IO_INT_SHM_Init (.IO_DRIVER_CODE:IO_INT_SHM_Init)
00000000  local     .IO_DRIVER_CODE:IO_INT_SHM_InitialInit (.IO_DRIVER_CODE:IO_INT_SHM_InitialInit)
000b2920  local     .IO_DRIVER_CODE:IO_INT_SHM_Read (.IO_DRIVER_CODE:IO_INT_SHM_Read)
00000000  local     .IO_DRIVER_CODE:IO_INT_SHM_Reset (.IO_DRIVER_CODE:IO_INT_SHM_Reset)
000b25c0  local     .IO_DRIVER_CODE:IO_INT_SHM_VerifyIntegrity (.IO_DRIVER_CODE:IO_INT_SHM_VerifyIntegrity)
00000000  local     .IO_DRIVER_CODE:IO_INT_SHM_VerifySwiHandlerIntegrity (.IO_DRIVER_CODE:IO_INT_SHM_VerifySwiHandlerIntegrity)
000b2ae0  local     .IO_DRIVER_CODE:IO_INT_SHM_Write (.IO_DRIVER_CODE:IO_INT_SHM_Write)
0803d8ee  local     .IO_DRIVER_DATA_NORMAL (.IO_DRIVER_DATA_NORMAL)
00000000  local     .text (.text)
00000000  global    IO_INT_SHM_CalcSwiHandlerCrc (.IO_DRIVER_CODE:IO_INT_SHM_CalcSwiHandlerCrc)
000b2a80  local     IO_INT_SHM_GenIntegrityInfo (.IO_DRIVER_CODE:IO_INT_SHM_GenIntegrityInfo)
000b2650  global    IO_INT_SHM_Init (.IO_DRIVER_CODE:IO_INT_SHM_Init)
00000000  global    IO_INT_SHM_InitialInit (.IO_DRIVER_CODE:IO_INT_SHM_InitialInit)
000b2920  global    IO_INT_SHM_Read (.IO_DRIVER_CODE:IO_INT_SHM_Read)
00000000  local     IO_INT_SHM_Reset (.IO_DRIVER_CODE:IO_INT_SHM_Reset)
000b25c0  global    IO_INT_SHM_VerifyIntegrity (.IO_DRIVER_CODE:IO_INT_SHM_VerifyIntegrity)
00000000  global    IO_INT_SHM_VerifySwiHandlerIntegrity (.IO_DRIVER_CODE:IO_INT_SHM_VerifySwiHandlerIntegrity)
000b2ae0  global    IO_INT_SHM_Write (.IO_DRIVER_CODE:IO_INT_SHM_Write)
0803d8ee  local     IO_INT_SHM_initialized (.IO_DRIVER_DATA_NORMAL)


================================================================================

ttc500.lib : drv_IO_INT_CRYPT.obj

Run/Load            
Value     Binding   Name (Section)
--------  --------  ---------------
000b2218  local     $C$L1 (.IO_DRIVER_CODE:IO_INT_CRYPT_bytes_to_ubyte4)
000b2430  local     $C$L10 (.IO_DRIVER_CODE:IO_INT_CRYPT_md5hash)
000b2450  local     $C$L11 (.IO_DRIVER_CODE:IO_INT_CRYPT_md5hash)
000b245c  local     $C$L12 (.IO_DRIVER_CODE:IO_INT_CRYPT_md5hash)
000b2464  local     $C$L13 (.IO_DRIVER_CODE:IO_INT_CRYPT_md5hash)
000b24c0  local     $C$L14 (.IO_DRIVER_CODE:IO_INT_CRYPT_md5hash)
000b24e0  local     $C$L15 (.IO_DRIVER_CODE:IO_INT_CRYPT_md5hash)
000b2500  local     $C$L16 (.IO_DRIVER_CODE:IO_INT_CRYPT_md5hash)
000b2510  local     $C$L17 (.IO_DRIVER_CODE:IO_INT_CRYPT_md5hash)
000b2518  local     $C$L18 (.IO_DRIVER_CODE:IO_INT_CRYPT_md5hash)
000b25b8  local     $C$L19 (.IO_DRIVER_CODE:IO_INT_CRYPT_md5hash)
000b2270  local     $C$L2 (.IO_DRIVER_CODE:IO_INT_CRYPT_md5hash)
000b2280  local     $C$L3 (.IO_DRIVER_CODE:IO_INT_CRYPT_md5hash)
000b2320  local     $C$L4 (.IO_DRIVER_CODE:IO_INT_CRYPT_md5hash)
000b2334  local     $C$L5 (.IO_DRIVER_CODE:IO_INT_CRYPT_md5hash)
000b2348  local     $C$L6 (.IO_DRIVER_CODE:IO_INT_CRYPT_md5hash)
000b2380  local     $C$L7 (.IO_DRIVER_CODE:IO_INT_CRYPT_md5hash)
000b23d0  local     $C$L8 (.IO_DRIVER_CODE:IO_INT_CRYPT_md5hash)
000b2410  local     $C$L9 (.IO_DRIVER_CODE:IO_INT_CRYPT_md5hash)
000b21c0  local     $a (.IO_DRIVER_CODE:IO_INT_CRYPT_ubyte4_to_bytes)
000b21f0  local     $a (.IO_DRIVER_CODE:IO_INT_CRYPT_bytes_to_ubyte4)
000b2220  local     $a (.IO_DRIVER_CODE:IO_INT_CRYPT_md5hash)
000ca130  local     $d (.IO_DRIVER_CONST)
000ca230  local     $d (.IO_DRIVER_CONST)
0803fae0  local     $d (.IO_DRIVER_DATA_COMMON)
000b21f0  local     .IO_DRIVER_CODE:IO_INT_CRYPT_bytes_to_ubyte4 (.IO_DRIVER_CODE:IO_INT_CRYPT_bytes_to_ubyte4)
000b2220  local     .IO_DRIVER_CODE:IO_INT_CRYPT_md5hash (.IO_DRIVER_CODE:IO_INT_CRYPT_md5hash)
000b21c0  local     .IO_DRIVER_CODE:IO_INT_CRYPT_ubyte4_to_bytes (.IO_DRIVER_CODE:IO_INT_CRYPT_ubyte4_to_bytes)
000ca130  local     .IO_DRIVER_CONST (.IO_DRIVER_CONST)
0803fae0  local     .IO_DRIVER_DATA_COMMON (.IO_DRIVER_DATA_COMMON)
00000000  local     .text (.text)
000b21f0  local     IO_INT_CRYPT_bytes_to_ubyte4 (.IO_DRIVER_CODE:IO_INT_CRYPT_bytes_to_ubyte4)
000b2220  global    IO_INT_CRYPT_md5hash (.IO_DRIVER_CODE:IO_INT_CRYPT_md5hash)
0803fae0  local     IO_INT_CRYPT_msg (.IO_DRIVER_DATA_COMMON)
000ca130  local     IO_INT_CRYPT_radians (.IO_DRIVER_CONST)
000ca230  local     IO_INT_CRYPT_shiftAmounts (.IO_DRIVER_CONST)
000b21c0  local     IO_INT_CRYPT_ubyte4_to_bytes (.IO_DRIVER_CODE:IO_INT_CRYPT_ubyte4_to_bytes)


================================================================================

ttc500.lib : drv_IO_INT_LIN.obj

Run/Load            
Value     Binding   Name (Section)
--------  --------  ---------------
00000064  local     $C$FL1 (.IO_DRIVER_CODE:IO_INT_LIN_CalcMaxFrameTime)
000c67a0  local     $C$L1 (.IO_DRIVER_CODE:IO_INT_LIN_Task_RxComp)
000c69f0  local     $C$L10 (.IO_DRIVER_CODE:IO_INT_LIN_Task)
000c6a00  local     $C$L11 (.IO_DRIVER_CODE:IO_INT_LIN_Task)
000c6a0c  local     $C$L12 (.IO_DRIVER_CODE:IO_INT_LIN_Task)
00000044  local     $C$L13 (.IO_DRIVER_CODE:IO_INT_LIN_IDtoPID)
0000005c  local     $C$L14 (.IO_DRIVER_CODE:IO_INT_LIN_CalcMaxFrameTime)
000c67cc  local     $C$L2 (.IO_DRIVER_CODE:IO_INT_LIN_Task_RxComp)
000c6988  local     $C$L3 (.IO_DRIVER_CODE:IO_INT_LIN_Task)
000c6990  local     $C$L4 (.IO_DRIVER_CODE:IO_INT_LIN_Task)
000c69a0  local     $C$L5 (.IO_DRIVER_CODE:IO_INT_LIN_Task)
000c69b0  local     $C$L6 (.IO_DRIVER_CODE:IO_INT_LIN_Task)
000c69c0  local     $C$L7 (.IO_DRIVER_CODE:IO_INT_LIN_Task)
000c69d0  local     $C$L8 (.IO_DRIVER_CODE:IO_INT_LIN_Task)
000c69e0  local     $C$L9 (.IO_DRIVER_CODE:IO_INT_LIN_Task)
000c6750  local     $a (.IO_DRIVER_CODE:IO_INT_LIN_Task_RxComp)
000c6810  local     $a (.IO_DRIVER_CODE:IO_INT_LIN_SoftwareReset)
000c6860  local     $a (.IO_DRIVER_CODE:IO_INT_LIN_TimeoutDetection)
000c68e0  local     $a (.IO_DRIVER_CODE:IO_INT_LIN_Task)
00000000  local     $a (.IO_DRIVER_CODE:IO_INT_LIN_IDtoPID)
00000000  local     $a (.IO_DRIVER_CODE:IO_INT_LIN_CalcMaxFrameTime)
0803dc0c  local     $d (.IO_DRIVER_DATA_NORMAL)
0803dc10  local     $d (.IO_DRIVER_DATA_NORMAL)
0803dc11  local     $d (.IO_DRIVER_DATA_NORMAL)
0803dc12  local     $d (.IO_DRIVER_DATA_NORMAL)
0803dc14  local     $d (.IO_DRIVER_DATA_NORMAL)
0803dc18  local     $d (.IO_DRIVER_DATA_NORMAL)
0803dc1c  local     $d (.IO_DRIVER_DATA_NORMAL)
00000064  local     $d (.IO_DRIVER_CODE:IO_INT_LIN_CalcMaxFrameTime)
00000000  local     .IO_DRIVER_CODE:IO_INT_LIN_CalcMaxFrameTime (.IO_DRIVER_CODE:IO_INT_LIN_CalcMaxFrameTime)
00000000  local     .IO_DRIVER_CODE:IO_INT_LIN_IDtoPID (.IO_DRIVER_CODE:IO_INT_LIN_IDtoPID)
000c6810  local     .IO_DRIVER_CODE:IO_INT_LIN_SoftwareReset (.IO_DRIVER_CODE:IO_INT_LIN_SoftwareReset)
000c68e0  local     .IO_DRIVER_CODE:IO_INT_LIN_Task (.IO_DRIVER_CODE:IO_INT_LIN_Task)
000c6750  local     .IO_DRIVER_CODE:IO_INT_LIN_Task_RxComp (.IO_DRIVER_CODE:IO_INT_LIN_Task_RxComp)
000c6860  local     .IO_DRIVER_CODE:IO_INT_LIN_TimeoutDetection (.IO_DRIVER_CODE:IO_INT_LIN_TimeoutDetection)
0803dc0c  local     .IO_DRIVER_DATA_NORMAL (.IO_DRIVER_DATA_NORMAL)
00000000  local     .text (.text)
00000000  global    IO_INT_LIN_CalcMaxFrameTime (.IO_DRIVER_CODE:IO_INT_LIN_CalcMaxFrameTime)
0803dc12  global    IO_INT_LIN_Error (.IO_DRIVER_DATA_NORMAL)
00000000  global    IO_INT_LIN_IDtoPID (.IO_DRIVER_CODE:IO_INT_LIN_IDtoPID)
0803dc10  global    IO_INT_LIN_Ready (.IO_DRIVER_DATA_NORMAL)
0803dc0c  global    IO_INT_LIN_RxBuffer (.IO_DRIVER_DATA_NORMAL)
000c6810  local     IO_INT_LIN_SoftwareReset (.IO_DRIVER_CODE:IO_INT_LIN_SoftwareReset)
000c68e0  global    IO_INT_LIN_Task (.IO_DRIVER_CODE:IO_INT_LIN_Task)
000c6750  local     IO_INT_LIN_Task_RxComp (.IO_DRIVER_CODE:IO_INT_LIN_Task_RxComp)
0803dc11  global    IO_INT_LIN_TimeoutCheck (.IO_DRIVER_DATA_NORMAL)
000c6860  local     IO_INT_LIN_TimeoutDetection (.IO_DRIVER_CODE:IO_INT_LIN_TimeoutDetection)
0803dc14  global    IO_INT_LIN_tBit (.IO_DRIVER_DATA_NORMAL)
0803dc18  global    IO_INT_LIN_tFrameMax (.IO_DRIVER_DATA_NORMAL)
0803dc1c  global    IO_INT_LIN_tFrameStart (.IO_DRIVER_DATA_NORMAL)


================================================================================

ttc500.lib : drv_DIAG_INT_States.obj

Run/Load            
Value     Binding   Name (Section)
--------  --------  ---------------
000b6df0  local     $C$L1 (.IO_DRIVER_CODE:DIAG_WDInit)
000c4798  local     $C$L10 (.IO_DRIVER_CODE:DIAG_StateConfig)
000c47c4  local     $C$L11 (.IO_DRIVER_CODE:DIAG_StateConfig)
000c47f0  local     $C$L12 (.IO_DRIVER_CODE:DIAG_StateConfig)
000c481c  local     $C$L13 (.IO_DRIVER_CODE:DIAG_StateConfig)
000c4848  local     $C$L14 (.IO_DRIVER_CODE:DIAG_StateConfig)
000c4874  local     $C$L15 (.IO_DRIVER_CODE:DIAG_StateConfig)
000c48a0  local     $C$L16 (.IO_DRIVER_CODE:DIAG_StateConfig)
000c48c4  local     $C$L17 (.IO_DRIVER_CODE:DIAG_StateConfig)
000c48f8  local     $C$L18 (.IO_DRIVER_CODE:DIAG_StateConfig)
000c4950  local     $C$L19 (.IO_DRIVER_CODE:DIAG_StateConfig)
000b1d00  local     $C$L2 (.IO_DRIVER_CODE:DIAG_CpuSafeState)
000c4958  local     $C$L20 (.IO_DRIVER_CODE:DIAG_StateConfig)
000c49c4  local     $C$L21 (.IO_DRIVER_CODE:DIAG_Task_Int)
000c49d8  local     $C$L22 (.IO_DRIVER_CODE:DIAG_Task_Int)
000c49dc  local     $C$L23 (.IO_DRIVER_CODE:DIAG_Task_Int)
000c49e8  local     $C$L24 (.IO_DRIVER_CODE:DIAG_Task_Int)
000bae28  local     $C$L25 (.IO_DRIVER_CODE:DIAG_StateMain)
000bae48  local     $C$L26 (.IO_DRIVER_CODE:DIAG_StateMain)
000bae78  local     $C$L27 (.IO_DRIVER_CODE:DIAG_StateMain)
000baeb8  local     $C$L28 (.IO_DRIVER_CODE:DIAG_StateMain)
000baedc  local     $C$L29 (.IO_DRIVER_CODE:DIAG_StateMain)
000b1d20  local     $C$L3 (.IO_DRIVER_CODE:DIAG_CpuSafeState)
000baf10  local     $C$L30 (.IO_DRIVER_CODE:DIAG_StateMain)
000baf30  local     $C$L31 (.IO_DRIVER_CODE:DIAG_StateMain)
000b2104  local     $C$L32 (.IO_DRIVER_CODE:DIAG_Init)
000b21bc  local     $C$L33 (.IO_DRIVER_CODE:DIAG_Init)
000b1d40  local     $C$L4 (.IO_DRIVER_CODE:DIAG_CpuSafeState)
000b1d60  local     $C$L5 (.IO_DRIVER_CODE:DIAG_CpuSafeState)
000b1d90  local     $C$L6 (.IO_DRIVER_CODE:DIAG_CpuSafeState)
000c4700  local     $C$L7 (.IO_DRIVER_CODE:DIAG_StateConfig)
000c4720  local     $C$L8 (.IO_DRIVER_CODE:DIAG_StateConfig)
000c476c  local     $C$L9 (.IO_DRIVER_CODE:DIAG_StateConfig)
000c46c8  local     $C$SW1 (.IO_DRIVER_CODE:DIAG_StateConfig)
000b6da0  local     $a (.IO_DRIVER_CODE:DIAG_WDInit)
000b1ca0  local     $a (.IO_DRIVER_CODE:DIAG_CpuSafeState)
000bad60  local     $a (.IO_DRIVER_CODE:DIAG_ActivateSafeState)
000c4000  local     $a (.IO_DRIVER_CODE:DIAG_StateSafe)
000c4690  local     $a (.IO_DRIVER_CODE:DIAG_StateConfig)
000c4700  local     $a (.IO_DRIVER_CODE:DIAG_StateConfig)
000c4960  local     $a (.IO_DRIVER_CODE:DIAG_Task_Int)
000bada0  local     $a (.IO_DRIVER_CODE:DIAG_StateMain)
000baf40  local     $a (.IO_DRIVER_CODE:DIAG_Task_Appl)
000b1dd0  local     $a (.IO_DRIVER_CODE:DIAG_RequestSafeState)
000b20b0  local     $a (.IO_DRIVER_CODE:DIAG_Init)
0803d0b7  local     $d (.IO_DRIVER_DATA_NORMAL)
000c46c8  local     $d (.IO_DRIVER_CODE:DIAG_StateConfig)
000bad60  local     .IO_DRIVER_CODE:DIAG_ActivateSafeState (.IO_DRIVER_CODE:DIAG_ActivateSafeState)
000b1ca0  local     .IO_DRIVER_CODE:DIAG_CpuSafeState (.IO_DRIVER_CODE:DIAG_CpuSafeState)
000b20b0  local     .IO_DRIVER_CODE:DIAG_Init (.IO_DRIVER_CODE:DIAG_Init)
000b1dd0  local     .IO_DRIVER_CODE:DIAG_RequestSafeState (.IO_DRIVER_CODE:DIAG_RequestSafeState)
000c4690  local     .IO_DRIVER_CODE:DIAG_StateConfig (.IO_DRIVER_CODE:DIAG_StateConfig)
000bada0  local     .IO_DRIVER_CODE:DIAG_StateMain (.IO_DRIVER_CODE:DIAG_StateMain)
000c4000  local     .IO_DRIVER_CODE:DIAG_StateSafe (.IO_DRIVER_CODE:DIAG_StateSafe)
000baf40  local     .IO_DRIVER_CODE:DIAG_Task_Appl (.IO_DRIVER_CODE:DIAG_Task_Appl)
000c4960  local     .IO_DRIVER_CODE:DIAG_Task_Int (.IO_DRIVER_CODE:DIAG_Task_Int)
000b6da0  local     .IO_DRIVER_CODE:DIAG_WDInit (.IO_DRIVER_CODE:DIAG_WDInit)
0803d0b7  local     .IO_DRIVER_DATA_NORMAL (.IO_DRIVER_DATA_NORMAL)
00000000  local     .text (.text)
000bad60  local     DIAG_ActivateSafeState (.IO_DRIVER_CODE:DIAG_ActivateSafeState)
000b1ca0  local     DIAG_CpuSafeState (.IO_DRIVER_CODE:DIAG_CpuSafeState)
000b20b0  global    DIAG_Init (.IO_DRIVER_CODE:DIAG_Init)
000b1dd0  global    DIAG_RequestSafeState (.IO_DRIVER_CODE:DIAG_RequestSafeState)
000c4690  local     DIAG_StateConfig (.IO_DRIVER_CODE:DIAG_StateConfig)
000bada0  local     DIAG_StateMain (.IO_DRIVER_CODE:DIAG_StateMain)
000c4000  local     DIAG_StateSafe (.IO_DRIVER_CODE:DIAG_StateSafe)
000baf40  global    DIAG_Task_Appl (.IO_DRIVER_CODE:DIAG_Task_Appl)
000c4960  global    DIAG_Task_Int (.IO_DRIVER_CODE:DIAG_Task_Int)
000b6da0  global    DIAG_WDInit (.IO_DRIVER_CODE:DIAG_WDInit)
0803d0b7  global    diag_request_safestate (.IO_DRIVER_DATA_NORMAL)


================================================================================

ttc500.lib : drv_IO_INT_EMIF.obj

Run/Load            
Value     Binding   Name (Section)
--------  --------  ---------------
000b003c  local     $C$L1 (.IO_DRIVER_CODE:IO_INT_EMIF_UpdateTimings)
000b00cc  local     $C$L2 (.IO_DRIVER_CODE:IO_INT_EMIF_UpdateTimings)
000b015c  local     $C$L3 (.IO_DRIVER_CODE:IO_INT_EMIF_UpdateTimings)
000b01dc  local     $C$L4 (.IO_DRIVER_CODE:IO_INT_EMIF_Init)
000b0224  local     $C$L5 (.IO_DRIVER_CODE:IO_INT_EMIF_Init)
000b026c  local     $C$L6 (.IO_DRIVER_CODE:IO_INT_EMIF_Init)
000affa0  local     $a (.IO_DRIVER_CODE:IO_INT_EMIF_UpdateTimings)
000b0170  local     $a (.IO_DRIVER_CODE:IO_INT_EMIF_Init)
000cb064  local     $d (.IO_DRIVER_CONST)
000cb072  local     $d (.IO_DRIVER_CONST)
000cb080  local     $d (.IO_DRIVER_CONST)
000cb08e  local     $d (.IO_DRIVER_CONST)
000cb098  local     $d (.IO_DRIVER_CONST)
000cb0a8  local     $d (.IO_DRIVER_CONST)
000cb0b2  local     $d (.IO_DRIVER_CONST)
000b0170  local     .IO_DRIVER_CODE:IO_INT_EMIF_Init (.IO_DRIVER_CODE:IO_INT_EMIF_Init)
000affa0  local     .IO_DRIVER_CODE:IO_INT_EMIF_UpdateTimings (.IO_DRIVER_CODE:IO_INT_EMIF_UpdateTimings)
000cb064  local     .IO_DRIVER_CONST (.IO_DRIVER_CONST)
00000000  local     .text (.text)
000cb098  global    EmifConfig (.IO_DRIVER_CONST)
000cb080  local     FlashConfig (.IO_DRIVER_CONST)
000cb0a8  global    FlashTiming_HW3 (.IO_DRIVER_CONST)
000cb0b2  global    FlashTiming_HW5 (.IO_DRIVER_CONST)
000cb064  local     FpgaBootConfig (.IO_DRIVER_CONST)
000cb08e  global    FpgaRuntimeTiming (.IO_DRIVER_CONST)
000b0170  global    IO_INT_EMIF_Init (.IO_DRIVER_CODE:IO_INT_EMIF_Init)
000affa0  global    IO_INT_EMIF_UpdateTimings (.IO_DRIVER_CODE:IO_INT_EMIF_UpdateTimings)
000cb072  local     RamConfig (.IO_DRIVER_CONST)


================================================================================

ttc500.lib : drv_IO_INT_ETH.obj

Run/Load            
Value     Binding   Name (Section)
--------  --------  ---------------
000c18f8  local     $C$L1 (.IO_DRIVER_CODE:IO_INT_ETH_CheckLink)
000c22a0  local     $C$L10 (.IO_DRIVER_CODE:IO_INT_ETH_TxHandler)
000c22b8  local     $C$L11 (.IO_DRIVER_CODE:IO_INT_ETH_TxHandler)
000c2304  local     $C$L12 (.IO_DRIVER_CODE:IO_INT_ETH_TxHandler)
000c2398  local     $C$L13 (.IO_DRIVER_CODE:IO_INT_ETH_WriteInternal)
000c23a4  local     $C$L14 (.IO_DRIVER_CODE:IO_INT_ETH_WriteInternal)
000c23c0  local     $C$L15 (.IO_DRIVER_CODE:IO_INT_ETH_WriteInternal)
000c2430  local     $C$L16 (.IO_DRIVER_CODE:IO_INT_ETH_WriteInternal)
000c2448  local     $C$L17 (.IO_DRIVER_CODE:IO_INT_ETH_WriteInternal)
000c245c  local     $C$L18 (.IO_DRIVER_CODE:IO_INT_ETH_WriteInternal)
000c2484  local     $C$L19 (.IO_DRIVER_CODE:IO_INT_ETH_WriteInternal)
000c1930  local     $C$L2 (.IO_DRIVER_CODE:IO_INT_ETH_CheckLink)
000c24bc  local     $C$L20 (.IO_DRIVER_CODE:IO_INT_ETH_WriteInternal)
000c24f4  local     $C$L21 (.IO_DRIVER_CODE:IO_INT_ETH_WriteInternal)
000c2500  local     $C$L22 (.IO_DRIVER_CODE:IO_INT_ETH_WriteInternal)
000c250c  local     $C$L23 (.IO_DRIVER_CODE:IO_INT_ETH_WriteInternal)
000c2510  local     $C$L24 (.IO_DRIVER_CODE:IO_INT_ETH_WriteInternal)
000c2514  local     $C$L25 (.IO_DRIVER_CODE:IO_INT_ETH_WriteInternal)
000c2578  local     $C$L26 (.IO_DRIVER_CODE:IO_INT_ETH_Write)
000c25dc  local     $C$L27 (.IO_DRIVER_CODE:IO_INT_ETH_Write)
00000050  local     $C$L28 (.IO_DRIVER_CODE:IO_INT_ETH_SetRole)
00000058  local     $C$L29 (.IO_DRIVER_CODE:IO_INT_ETH_SetRole)
000c193c  local     $C$L3 (.IO_DRIVER_CODE:IO_INT_ETH_CheckLink)
00000060  local     $C$L30 (.IO_DRIVER_CODE:IO_INT_ETH_SetRole)
00000064  local     $C$L31 (.IO_DRIVER_CODE:IO_INT_ETH_SetRole)
000c1a00  local     $C$L32 (.IO_DRIVER_CODE:IO_INT_ETH_ReadInternal)
000c1a68  local     $C$L33 (.IO_DRIVER_CODE:IO_INT_ETH_ReadInternal)
000c1a70  local     $C$L34 (.IO_DRIVER_CODE:IO_INT_ETH_ReadInternal)
000c1a80  local     $C$L35 (.IO_DRIVER_CODE:IO_INT_ETH_ReadInternal)
000c1ab4  local     $C$L36 (.IO_DRIVER_CODE:IO_INT_ETH_ReadInternal)
000c1ac8  local     $C$L37 (.IO_DRIVER_CODE:IO_INT_ETH_ReadInternal)
000c1aec  local     $C$L38 (.IO_DRIVER_CODE:IO_INT_ETH_ReadInternal)
000c1b10  local     $C$L39 (.IO_DRIVER_CODE:IO_INT_ETH_ReadInternal)
000c1950  local     $C$L4 (.IO_DRIVER_CODE:IO_INT_ETH_CheckLink)
000c1b94  local     $C$L40 (.IO_DRIVER_CODE:IO_INT_ETH_ReadInternal)
000c1ba4  local     $C$L41 (.IO_DRIVER_CODE:IO_INT_ETH_ReadInternal)
000c1ba8  local     $C$L42 (.IO_DRIVER_CODE:IO_INT_ETH_ReadInternal)
000c1c20  local     $C$L43 (.IO_DRIVER_CODE:IO_INT_ETH_Read)
000c1c3c  local     $C$L44 (.IO_DRIVER_CODE:IO_INT_ETH_Read)
000c1c48  local     $C$L45 (.IO_DRIVER_CODE:IO_INT_ETH_Read)
00000068  local     $C$L46 (.IO_DRIVER_CODE:IO_INT_ETH_JoinMulticastGroup)
00000050  local     $C$L47 (.IO_DRIVER_CODE:IO_INT_ETH_GetMacAddress)
000000a4  local     $C$L48 (.IO_DRIVER_CODE:IO_INT_ETH_GetMacAddress)
000000ac  local     $C$L49 (.IO_DRIVER_CODE:IO_INT_ETH_GetMacAddress)
000c195c  local     $C$L5 (.IO_DRIVER_CODE:IO_INT_ETH_CheckLink)
000000b4  local     $C$L50 (.IO_DRIVER_CODE:IO_INT_ETH_GetMacAddress)
000000b8  local     $C$L51 (.IO_DRIVER_CODE:IO_INT_ETH_GetMacAddress)
0000010c  local     $C$L52 (.IO_DRIVER_CODE:IO_INT_ETH_GetMacAddress)
00000114  local     $C$L53 (.IO_DRIVER_CODE:IO_INT_ETH_GetMacAddress)
00000118  local     $C$L54 (.IO_DRIVER_CODE:IO_INT_ETH_GetMacAddress)
00000138  local     $C$L55 (.IO_DRIVER_CODE:IO_INT_ETH_GetMacAddress)
0000013c  local     $C$L56 (.IO_DRIVER_CODE:IO_INT_ETH_GetMacAddress)
00000140  local     $C$L57 (.IO_DRIVER_CODE:IO_INT_ETH_GetMacAddress)
00000148  local     $C$L58 (.IO_DRIVER_CODE:IO_INT_ETH_GetMacAddress)
000001b8  local     $C$L59 (.IO_DRIVER_CODE:IO_INT_ETH_GetMacAddress)
000c1964  local     $C$L6 (.IO_DRIVER_CODE:IO_INT_ETH_CheckLink)
000001bc  local     $C$L60 (.IO_DRIVER_CODE:IO_INT_ETH_GetMacAddress)
00000040  local     $C$L61 (.IO_DRIVER_CODE:IO_INT_ETH_InitTxMemory)
00000050  local     $C$L62 (.IO_DRIVER_CODE:IO_INT_ETH_InitRxMemory)
00000110  local     $C$L63 (.IO_DRIVER_CODE:IO_INT_ETH_Init)
00000130  local     $C$L64 (.IO_DRIVER_CODE:IO_INT_ETH_Init)
00000140  local     $C$L65 (.IO_DRIVER_CODE:IO_INT_ETH_Init)
00000150  local     $C$L66 (.IO_DRIVER_CODE:IO_INT_ETH_Init)
00000180  local     $C$L67 (.IO_DRIVER_CODE:IO_INT_ETH_Init)
00000194  local     $C$L68 (.IO_DRIVER_CODE:IO_INT_ETH_Init)
000001a0  local     $C$L69 (.IO_DRIVER_CODE:IO_INT_ETH_Init)
000c1970  local     $C$L7 (.IO_DRIVER_CODE:IO_INT_ETH_CheckLink)
000001a8  local     $C$L70 (.IO_DRIVER_CODE:IO_INT_ETH_Init)
000001d0  local     $C$L71 (.IO_DRIVER_CODE:IO_INT_ETH_Init)
000001e4  local     $C$L72 (.IO_DRIVER_CODE:IO_INT_ETH_Init)
00000250  local     $C$L73 (.IO_DRIVER_CODE:IO_INT_ETH_Init)
00000254  local     $C$L74 (.IO_DRIVER_CODE:IO_INT_ETH_Init)
000c2234  local     $C$L75 (.IO_DRIVER_CODE:IO_INT_ETH_GetWriteStatus)
000c223c  local     $C$L76 (.IO_DRIVER_CODE:IO_INT_ETH_GetWriteStatus)
000c1974  local     $C$L8 (.IO_DRIVER_CODE:IO_INT_ETH_CheckLink)
000c2280  local     $C$L9 (.IO_DRIVER_CODE:IO_INT_ETH_TxHandler)
000c1850  local     $a (.IO_DRIVER_CODE:IO_INT_ETH_CheckLink)
000c2250  local     $a (.IO_DRIVER_CODE:IO_INT_ETH_TxHandler)
000c2320  local     $a (.IO_DRIVER_CODE:IO_INT_ETH_WriteInternal)
000c2520  local     $a (.IO_DRIVER_CODE:IO_INT_ETH_Write)
00000000  local     $a (.IO_DRIVER_CODE:IO_INT_ETH_SetRole)
000c19b0  local     $a (.IO_DRIVER_CODE:IO_INT_ETH_ReadInternal)
000c1bb0  local     $a (.IO_DRIVER_CODE:IO_INT_ETH_Read)
00000000  local     $a (.IO_DRIVER_CODE:IO_INT_ETH_JoinMulticastGroup)
00000000  local     $a (.IO_DRIVER_CODE:IO_INT_ETH_GetMacAddress)
00000000  local     $a (.IO_DRIVER_CODE:IO_INT_ETH_InitTxMemory)
00000000  local     $a (.IO_DRIVER_CODE:IO_INT_ETH_InitRxMemory)
00000000  local     $a (.IO_DRIVER_CODE:IO_INT_ETH_Init)
000c21f0  local     $a (.IO_DRIVER_CODE:IO_INT_ETH_GetWriteStatus)
00000000  local     $a (.IO_DRIVER_CODE:IO_INT_ETH_EnableRxUnicast)
00000000  local     $a (.IO_DRIVER_CODE:IO_INT_ETH_EnableRxBroadcast)
00000000  local     $a (.IO_DRIVER_CODE:IO_INT_ETH_DeInit)
0803db68  local     $d (.IO_DRIVER_DATA_NORMAL)
0803db74  local     $d (.IO_DRIVER_DATA_NORMAL)
0803db80  local     $d (.IO_DRIVER_DATA_NORMAL)
0803db81  local     $d (.IO_DRIVER_DATA_NORMAL)
0803db82  local     $d (.IO_DRIVER_DATA_NORMAL)
00000000  local     $d (.const:.string)
00000006  local     $d (.const:.string)
000c1850  local     .IO_DRIVER_CODE:IO_INT_ETH_CheckLink (.IO_DRIVER_CODE:IO_INT_ETH_CheckLink)
00000000  local     .IO_DRIVER_CODE:IO_INT_ETH_DeInit (.IO_DRIVER_CODE:IO_INT_ETH_DeInit)
00000000  local     .IO_DRIVER_CODE:IO_INT_ETH_EnableRxBroadcast (.IO_DRIVER_CODE:IO_INT_ETH_EnableRxBroadcast)
00000000  local     .IO_DRIVER_CODE:IO_INT_ETH_EnableRxUnicast (.IO_DRIVER_CODE:IO_INT_ETH_EnableRxUnicast)
00000000  local     .IO_DRIVER_CODE:IO_INT_ETH_GetMacAddress (.IO_DRIVER_CODE:IO_INT_ETH_GetMacAddress)
000c21f0  local     .IO_DRIVER_CODE:IO_INT_ETH_GetWriteStatus (.IO_DRIVER_CODE:IO_INT_ETH_GetWriteStatus)
00000000  local     .IO_DRIVER_CODE:IO_INT_ETH_Init (.IO_DRIVER_CODE:IO_INT_ETH_Init)
00000000  local     .IO_DRIVER_CODE:IO_INT_ETH_InitRxMemory (.IO_DRIVER_CODE:IO_INT_ETH_InitRxMemory)
00000000  local     .IO_DRIVER_CODE:IO_INT_ETH_InitTxMemory (.IO_DRIVER_CODE:IO_INT_ETH_InitTxMemory)
00000000  local     .IO_DRIVER_CODE:IO_INT_ETH_JoinMulticastGroup (.IO_DRIVER_CODE:IO_INT_ETH_JoinMulticastGroup)
000c1bb0  local     .IO_DRIVER_CODE:IO_INT_ETH_Read (.IO_DRIVER_CODE:IO_INT_ETH_Read)
000c19b0  local     .IO_DRIVER_CODE:IO_INT_ETH_ReadInternal (.IO_DRIVER_CODE:IO_INT_ETH_ReadInternal)
00000000  local     .IO_DRIVER_CODE:IO_INT_ETH_SetRole (.IO_DRIVER_CODE:IO_INT_ETH_SetRole)
000c2250  local     .IO_DRIVER_CODE:IO_INT_ETH_TxHandler (.IO_DRIVER_CODE:IO_INT_ETH_TxHandler)
000c2520  local     .IO_DRIVER_CODE:IO_INT_ETH_Write (.IO_DRIVER_CODE:IO_INT_ETH_Write)
000c2320  local     .IO_DRIVER_CODE:IO_INT_ETH_WriteInternal (.IO_DRIVER_CODE:IO_INT_ETH_WriteInternal)
0803db68  local     .IO_DRIVER_DATA_NORMAL (.IO_DRIVER_DATA_NORMAL)
00000000  local     .const:.string (.const:.string)
00000000  local     .text (.text)
000c1850  global    IO_INT_ETH_CheckLink (.IO_DRIVER_CODE:IO_INT_ETH_CheckLink)
00000000  global    IO_INT_ETH_DeInit (.IO_DRIVER_CODE:IO_INT_ETH_DeInit)
00000000  global    IO_INT_ETH_EnableRxBroadcast (.IO_DRIVER_CODE:IO_INT_ETH_EnableRxBroadcast)
00000000  global    IO_INT_ETH_EnableRxUnicast (.IO_DRIVER_CODE:IO_INT_ETH_EnableRxUnicast)
00000000  global    IO_INT_ETH_GetMacAddress (.IO_DRIVER_CODE:IO_INT_ETH_GetMacAddress)
000c21f0  global    IO_INT_ETH_GetWriteStatus (.IO_DRIVER_CODE:IO_INT_ETH_GetWriteStatus)
00000000  global    IO_INT_ETH_Init (.IO_DRIVER_CODE:IO_INT_ETH_Init)
00000000  local     IO_INT_ETH_InitRxMemory (.IO_DRIVER_CODE:IO_INT_ETH_InitRxMemory)
00000000  local     IO_INT_ETH_InitTxMemory (.IO_DRIVER_CODE:IO_INT_ETH_InitTxMemory)
00000000  global    IO_INT_ETH_JoinMulticastGroup (.IO_DRIVER_CODE:IO_INT_ETH_JoinMulticastGroup)
0803db82  local     IO_INT_ETH_LinkEstablished (.IO_DRIVER_DATA_NORMAL)
00000000  local     IO_INT_ETH_MAC_INVALID1$1 (.const:.string)
00000006  local     IO_INT_ETH_MAC_INVALID2$2 (.const:.string)
000c1bb0  global    IO_INT_ETH_Read (.IO_DRIVER_CODE:IO_INT_ETH_Read)
000c19b0  local     IO_INT_ETH_ReadInternal (.IO_DRIVER_CODE:IO_INT_ETH_ReadInternal)
00000000  global    IO_INT_ETH_SetRole (.IO_DRIVER_CODE:IO_INT_ETH_SetRole)
000c2250  local     IO_INT_ETH_TxHandler (.IO_DRIVER_CODE:IO_INT_ETH_TxHandler)
000c2520  global    IO_INT_ETH_Write (.IO_DRIVER_CODE:IO_INT_ETH_Write)
000c2320  local     IO_INT_ETH_WriteInternal (.IO_DRIVER_CODE:IO_INT_ETH_WriteInternal)
0803db80  local     phy_addr (.IO_DRIVER_DATA_NORMAL)
0803db74  local     rxch (.IO_DRIVER_DATA_NORMAL)
0803db68  local     txch (.IO_DRIVER_DATA_NORMAL)
0803db81  local     variant_option_ethernet (.IO_DRIVER_DATA_NORMAL)


================================================================================

ttc500.lib : drv_IO_INT_PWM.obj

Run/Load            
Value     Binding   Name (Section)
--------  --------  ---------------
000c4678  local     $C$L1 (.IO_DRIVER_CODE:IO_INT_PWM_Timer_Setup)
000b5a2c  local     $C$L10 (.IO_DRIVER_CODE:IO_INT_PWM_GPIO_Init)
000b5adc  local     $C$L11 (.IO_DRIVER_CODE:IO_INT_PWM_GPIO_Init)
000b5be8  local     $C$L12 (.IO_DRIVER_CODE:IO_INT_PWM_GPIO_Init)
000b5bec  local     $C$L13 (.IO_DRIVER_CODE:IO_INT_PWM_GPIO_Init)
000b5c60  local     $C$L14 (.IO_DRIVER_CODE:IO_INT_PWM_SSW_Init)
000b5dac  local     $C$L15 (.IO_DRIVER_CODE:IO_INT_PWM_SSW_Init)
000b5db0  local     $C$L16 (.IO_DRIVER_CODE:IO_INT_PWM_SSW_Init)
000b5e20  local     $C$L17 (.IO_DRIVER_CODE:IO_INT_PWM_Timer_Init)
000b5ff8  local     $C$L18 (.IO_DRIVER_CODE:IO_INT_PWM_Timer_Init)
000b5ffc  local     $C$L19 (.IO_DRIVER_CODE:IO_INT_PWM_Timer_Init)
000c4680  local     $C$L2 (.IO_DRIVER_CODE:IO_INT_PWM_Timer_Setup)
000b6110  local     $C$L20 (.IO_DRIVER_CODE:IO_INT_PWM_Init)
000b6180  local     $C$L21 (.IO_DRIVER_CODE:IO_INT_PWM_Init)
000b61ac  local     $C$L22 (.IO_DRIVER_CODE:IO_INT_PWM_Init)
000b61c0  local     $C$L23 (.IO_DRIVER_CODE:IO_INT_PWM_Init)
000b61c4  local     $C$L24 (.IO_DRIVER_CODE:IO_INT_PWM_Init)
000c3250  local     $C$L25 (.IO_DRIVER_CODE:IO_INT_PWM_GPIO_SetDuty_Internal)
000c3300  local     $C$L26 (.IO_DRIVER_CODE:IO_INT_PWM_GPIO_SetDuty_Internal)
000c3390  local     $C$L27 (.IO_DRIVER_CODE:IO_INT_PWM_GPIO_SetDuty_Internal)
000c3398  local     $C$L28 (.IO_DRIVER_CODE:IO_INT_PWM_GPIO_SetDuty_Internal)
000c341c  local     $C$L29 (.IO_DRIVER_CODE:IO_INT_PWM_GPIO_SetPeriodAndDuty)
000c40dc  local     $C$L3 (.IO_DRIVER_CODE:IO_INT_PWM_Timer_Disable)
000c3430  local     $C$L30 (.IO_DRIVER_CODE:IO_INT_PWM_GPIO_SetPeriodAndDuty)
000c349c  local     $C$L31 (.IO_DRIVER_CODE:IO_INT_PWM_GPIO_SetPeriodAndDuty)
000c34a4  local     $C$L32 (.IO_DRIVER_CODE:IO_INT_PWM_GPIO_SetPeriodAndDuty)
000c34a8  local     $C$L33 (.IO_DRIVER_CODE:IO_INT_PWM_GPIO_SetPeriodAndDuty)
000c3540  local     $C$L34 (.IO_DRIVER_CODE:IO_INT_PWM_GPIO_SetDuty)
000c37a0  local     $C$L35 (.IO_DRIVER_CODE:IO_INT_PWM_GPIO_ChEnable)
000c37a4  local     $C$L36 (.IO_DRIVER_CODE:IO_INT_PWM_GPIO_ChEnable)
00000068  local     $C$L37 (.IO_DRIVER_CODE:IO_INT_PWM_GPIO_ChDisableStep2)
00000098  local     $C$L38 (.IO_DRIVER_CODE:IO_INT_PWM_GPIO_ChDisableStep1)
000c40e4  local     $C$L4 (.IO_DRIVER_CODE:IO_INT_PWM_Timer_Disable)
000b1124  local     $C$L5 (.IO_DRIVER_CODE:IO_INT_PWM_SSW_Disable)
000b5770  local     $C$L6 (.IO_DRIVER_CODE:IO_INT_PWM_GPIO_Init)
000b5890  local     $C$L7 (.IO_DRIVER_CODE:IO_INT_PWM_GPIO_Init)
000b589c  local     $C$L8 (.IO_DRIVER_CODE:IO_INT_PWM_GPIO_Init)
000b5a24  local     $C$L9 (.IO_DRIVER_CODE:IO_INT_PWM_GPIO_Init)
000c4580  local     $a (.IO_DRIVER_CODE:IO_INT_PWM_Timer_Setup)
000c4010  local     $a (.IO_DRIVER_CODE:IO_INT_PWM_Timer_Disable)
000b1130  local     $a (.IO_DRIVER_CODE:IO_INT_PWM_SSW_Enable)
000b10b0  local     $a (.IO_DRIVER_CODE:IO_INT_PWM_SSW_Disable)
000b55c0  local     $a (.IO_DRIVER_CODE:IO_INT_PWM_GPIO_Init)
000b5c00  local     $a (.IO_DRIVER_CODE:IO_INT_PWM_SSW_Init)
000b5dc0  local     $a (.IO_DRIVER_CODE:IO_INT_PWM_Timer_Init)
000b60b0  local     $a (.IO_DRIVER_CODE:IO_INT_PWM_Init)
000c3150  local     $a (.IO_DRIVER_CODE:IO_INT_PWM_GPIO_SetDuty_Internal)
000c33a0  local     $a (.IO_DRIVER_CODE:IO_INT_PWM_GPIO_SetPeriodAndDuty)
000c34b0  local     $a (.IO_DRIVER_CODE:IO_INT_PWM_GPIO_SetDuty)
000bb250  local     $a (.IO_DRIVER_CODE:IO_INT_PWM_GPIO_GetDuty)
000c36c0  local     $a (.IO_DRIVER_CODE:IO_INT_PWM_GPIO_ChEnable)
00000000  local     $a (.IO_DRIVER_CODE:IO_INT_PWM_GPIO_ChDisableStep2)
00000000  local     $a (.IO_DRIVER_CODE:IO_INT_PWM_GPIO_ChDisableStep1)
0803db28  local     $d (.IO_DRIVER_DATA_NORMAL)
0803db2c  local     $d (.IO_DRIVER_DATA_NORMAL)
0803db30  local     $d (.IO_DRIVER_DATA_NORMAL)
0803db34  local     $d (.IO_DRIVER_DATA_NORMAL)
0803db44  local     $d (.IO_DRIVER_DATA_NORMAL)
0803db48  local     $d (.IO_DRIVER_DATA_NORMAL)
000caaf4  local     $d (.IO_DRIVER_CONST)
000cab74  local     $d (.IO_DRIVER_CONST)
000cab80  local     $d (.IO_DRIVER_CONST)
000cab94  local     $d (.IO_DRIVER_CONST)
000cabb4  local     $d (.IO_DRIVER_CONST)
000cabc0  local     $d (.IO_DRIVER_CONST)
000cabc8  local     $d (.IO_DRIVER_CONST)
00000000  local     .IO_DRIVER_CODE:IO_INT_PWM_GPIO_ChDisableStep1 (.IO_DRIVER_CODE:IO_INT_PWM_GPIO_ChDisableStep1)
00000000  local     .IO_DRIVER_CODE:IO_INT_PWM_GPIO_ChDisableStep2 (.IO_DRIVER_CODE:IO_INT_PWM_GPIO_ChDisableStep2)
000c36c0  local     .IO_DRIVER_CODE:IO_INT_PWM_GPIO_ChEnable (.IO_DRIVER_CODE:IO_INT_PWM_GPIO_ChEnable)
000bb250  local     .IO_DRIVER_CODE:IO_INT_PWM_GPIO_GetDuty (.IO_DRIVER_CODE:IO_INT_PWM_GPIO_GetDuty)
000b55c0  local     .IO_DRIVER_CODE:IO_INT_PWM_GPIO_Init (.IO_DRIVER_CODE:IO_INT_PWM_GPIO_Init)
000c34b0  local     .IO_DRIVER_CODE:IO_INT_PWM_GPIO_SetDuty (.IO_DRIVER_CODE:IO_INT_PWM_GPIO_SetDuty)
000c3150  local     .IO_DRIVER_CODE:IO_INT_PWM_GPIO_SetDuty_Internal (.IO_DRIVER_CODE:IO_INT_PWM_GPIO_SetDuty_Internal)
000c33a0  local     .IO_DRIVER_CODE:IO_INT_PWM_GPIO_SetPeriodAndDuty (.IO_DRIVER_CODE:IO_INT_PWM_GPIO_SetPeriodAndDuty)
000b60b0  local     .IO_DRIVER_CODE:IO_INT_PWM_Init (.IO_DRIVER_CODE:IO_INT_PWM_Init)
000b10b0  local     .IO_DRIVER_CODE:IO_INT_PWM_SSW_Disable (.IO_DRIVER_CODE:IO_INT_PWM_SSW_Disable)
000b1130  local     .IO_DRIVER_CODE:IO_INT_PWM_SSW_Enable (.IO_DRIVER_CODE:IO_INT_PWM_SSW_Enable)
000b5c00  local     .IO_DRIVER_CODE:IO_INT_PWM_SSW_Init (.IO_DRIVER_CODE:IO_INT_PWM_SSW_Init)
000c4010  local     .IO_DRIVER_CODE:IO_INT_PWM_Timer_Disable (.IO_DRIVER_CODE:IO_INT_PWM_Timer_Disable)
000b5dc0  local     .IO_DRIVER_CODE:IO_INT_PWM_Timer_Init (.IO_DRIVER_CODE:IO_INT_PWM_Timer_Init)
000c4580  local     .IO_DRIVER_CODE:IO_INT_PWM_Timer_Setup (.IO_DRIVER_CODE:IO_INT_PWM_Timer_Setup)
000caaf4  local     .IO_DRIVER_CONST (.IO_DRIVER_CONST)
0803db28  local     .IO_DRIVER_DATA_NORMAL (.IO_DRIVER_DATA_NORMAL)
00000000  local     .text (.text)
000caaf4  local     IO_INT_PWM_ChannelConfig (.IO_DRIVER_CONST)
0803db34  local     IO_INT_PWM_ChannelConfigRAM (.IO_DRIVER_DATA_NORMAL)
00000000  global    IO_INT_PWM_GPIO_ChDisableStep1 (.IO_DRIVER_CODE:IO_INT_PWM_GPIO_ChDisableStep1)
00000000  global    IO_INT_PWM_GPIO_ChDisableStep2 (.IO_DRIVER_CODE:IO_INT_PWM_GPIO_ChDisableStep2)
000c36c0  global    IO_INT_PWM_GPIO_ChEnable (.IO_DRIVER_CODE:IO_INT_PWM_GPIO_ChEnable)
000bb250  global    IO_INT_PWM_GPIO_GetDuty (.IO_DRIVER_CODE:IO_INT_PWM_GPIO_GetDuty)
000b55c0  local     IO_INT_PWM_GPIO_Init (.IO_DRIVER_CODE:IO_INT_PWM_GPIO_Init)
000c34b0  global    IO_INT_PWM_GPIO_SetDuty (.IO_DRIVER_CODE:IO_INT_PWM_GPIO_SetDuty)
000c3150  local     IO_INT_PWM_GPIO_SetDuty_Internal (.IO_DRIVER_CODE:IO_INT_PWM_GPIO_SetDuty_Internal)
000c33a0  global    IO_INT_PWM_GPIO_SetPeriodAndDuty (.IO_DRIVER_CODE:IO_INT_PWM_GPIO_SetPeriodAndDuty)
000b60b0  global    IO_INT_PWM_Init (.IO_DRIVER_CODE:IO_INT_PWM_Init)
000b10b0  global    IO_INT_PWM_SSW_Disable (.IO_DRIVER_CODE:IO_INT_PWM_SSW_Disable)
000b1130  global    IO_INT_PWM_SSW_Enable (.IO_DRIVER_CODE:IO_INT_PWM_SSW_Enable)
000b5c00  local     IO_INT_PWM_SSW_Init (.IO_DRIVER_CODE:IO_INT_PWM_SSW_Init)
000c4010  global    IO_INT_PWM_Timer_Disable (.IO_DRIVER_CODE:IO_INT_PWM_Timer_Disable)
000b5dc0  local     IO_INT_PWM_Timer_Init (.IO_DRIVER_CODE:IO_INT_PWM_Timer_Init)
000c4580  global    IO_INT_PWM_Timer_Setup (.IO_DRIVER_CODE:IO_INT_PWM_Timer_Setup)
000cab80  local     IO_INT_PwmConfig (.IO_DRIVER_CONST)
000cab94  local     IO_INT_SSW_ChannelConfig (.IO_DRIVER_CONST)
0803db44  local     IO_INT_SSW_ChannelConfigRAM (.IO_DRIVER_DATA_NORMAL)
000cabb4  local     IO_INT_SswConfig (.IO_DRIVER_CONST)
000cabc8  local     IO_INT_TimerConfig (.IO_DRIVER_CONST)
000cabc0  local     IO_INT_Timer_ChannelConfig (.IO_DRIVER_CONST)
0803db48  local     IO_INT_Timer_ChannelConfigRAM (.IO_DRIVER_DATA_NORMAL)
000cab74  local     Port_PWM (.IO_DRIVER_CONST)
0803db28  local     io_int_pwm_config_p (.IO_DRIVER_DATA_NORMAL)
0803db2c  local     io_int_ssw_config_p (.IO_DRIVER_DATA_NORMAL)
0803db30  local     io_int_timer_config_p (.IO_DRIVER_DATA_NORMAL)


================================================================================

ttc500.lib : drv_IO_INT_DMA.obj

Run/Load            
Value     Binding   Name (Section)
--------  --------  ---------------
000c7e00  local     $C$L1 (.IO_DRIVER_CODE:IO_INT_DMA_HBCA_interrupt)
000c7e10  local     $C$L2 (.IO_DRIVER_CODE:IO_INT_DMA_HBCA_interrupt)
000bf2c4  local     $C$L3 (.IO_DRIVER_CODE:IO_INT_DMA_BTCA_interrupt)
000bf2f0  local     $C$L4 (.IO_DRIVER_CODE:IO_INT_DMA_BTCA_interrupt)
000bf310  local     $C$L5 (.IO_DRIVER_CODE:IO_INT_DMA_BTCA_interrupt)
000bf334  local     $C$L6 (.IO_DRIVER_CODE:IO_INT_DMA_BTCA_interrupt)
000bf35c  local     $C$L7 (.IO_DRIVER_CODE:IO_INT_DMA_BTCA_interrupt)
000bf388  local     $C$L8 (.IO_DRIVER_CODE:IO_INT_DMA_BTCA_interrupt)
000bf3b0  local     $C$L9 (.IO_DRIVER_CODE:IO_INT_DMA_BTCA_interrupt)
000c7db0  local     $a (.IO_DRIVER_CODE:IO_INT_DMA_HBCA_interrupt)
000c7e20  local     $a (.IO_DRIVER_CODE:IO_INT_DMA_HBCA_int)
000bf270  local     $a (.IO_DRIVER_CODE:IO_INT_DMA_BTCA_interrupt)
000bf3c0  local     $a (.IO_DRIVER_CODE:IO_INT_DMA_BTCA_int)
000bf3c0  local     .IO_DRIVER_CODE:IO_INT_DMA_BTCA_int (.IO_DRIVER_CODE:IO_INT_DMA_BTCA_int)
000bf270  local     .IO_DRIVER_CODE:IO_INT_DMA_BTCA_interrupt (.IO_DRIVER_CODE:IO_INT_DMA_BTCA_interrupt)
000c7e20  local     .IO_DRIVER_CODE:IO_INT_DMA_HBCA_int (.IO_DRIVER_CODE:IO_INT_DMA_HBCA_int)
000c7db0  local     .IO_DRIVER_CODE:IO_INT_DMA_HBCA_interrupt (.IO_DRIVER_CODE:IO_INT_DMA_HBCA_interrupt)
00000000  local     .text (.text)
000bf3c0  global    IO_INT_DMA_BTCA_int (.IO_DRIVER_CODE:IO_INT_DMA_BTCA_int)
000bf270  local     IO_INT_DMA_BTCA_interrupt (.IO_DRIVER_CODE:IO_INT_DMA_BTCA_interrupt)
000c7e20  global    IO_INT_DMA_HBCA_int (.IO_DRIVER_CODE:IO_INT_DMA_HBCA_int)
000c7db0  local     IO_INT_DMA_HBCA_interrupt (.IO_DRIVER_CODE:IO_INT_DMA_HBCA_interrupt)


================================================================================

ttc500.lib : drv_IO_INT_MDIO.obj

Run/Load            
Value     Binding   Name (Section)
--------  --------  ---------------
000c1640  local     $C$L1 (.IO_DRIVER_CODE:IO_INT_MDIO_WaitForCompletion)
000c1668  local     $C$L2 (.IO_DRIVER_CODE:IO_INT_MDIO_WaitForCompletion)
000c1678  local     $C$L3 (.IO_DRIVER_CODE:IO_INT_MDIO_WaitForCompletion)
000c16f4  local     $C$L4 (.IO_DRIVER_CODE:IO_INT_MDIO_ReadPhyReg)
000c1620  local     $a (.IO_DRIVER_CODE:IO_INT_MDIO_WaitForCompletion)
00000000  local     $a (.IO_DRIVER_CODE:IO_INT_MDIO_WritePhyReg)
000c1680  local     $a (.IO_DRIVER_CODE:IO_INT_MDIO_ReadPhyReg)
00000000  local     $a (.IO_DRIVER_CODE:IO_INT_MDIO_Init)
000c1610  local     $a (.IO_DRIVER_CODE:IO_INT_MDIO_GetPhyLinkStatus)
00000000  local     $a (.IO_DRIVER_CODE:IO_INT_MDIO_GetPhyAliveStatus)
00000000  local     $a (.IO_DRIVER_CODE:IO_INT_MDIO_DeInit)
00000000  local     .IO_DRIVER_CODE:IO_INT_MDIO_DeInit (.IO_DRIVER_CODE:IO_INT_MDIO_DeInit)
00000000  local     .IO_DRIVER_CODE:IO_INT_MDIO_GetPhyAliveStatus (.IO_DRIVER_CODE:IO_INT_MDIO_GetPhyAliveStatus)
000c1610  local     .IO_DRIVER_CODE:IO_INT_MDIO_GetPhyLinkStatus (.IO_DRIVER_CODE:IO_INT_MDIO_GetPhyLinkStatus)
00000000  local     .IO_DRIVER_CODE:IO_INT_MDIO_Init (.IO_DRIVER_CODE:IO_INT_MDIO_Init)
000c1680  local     .IO_DRIVER_CODE:IO_INT_MDIO_ReadPhyReg (.IO_DRIVER_CODE:IO_INT_MDIO_ReadPhyReg)
000c1620  local     .IO_DRIVER_CODE:IO_INT_MDIO_WaitForCompletion (.IO_DRIVER_CODE:IO_INT_MDIO_WaitForCompletion)
00000000  local     .IO_DRIVER_CODE:IO_INT_MDIO_WritePhyReg (.IO_DRIVER_CODE:IO_INT_MDIO_WritePhyReg)
00000000  local     .text (.text)
00000000  global    IO_INT_MDIO_DeInit (.IO_DRIVER_CODE:IO_INT_MDIO_DeInit)
00000000  global    IO_INT_MDIO_GetPhyAliveStatus (.IO_DRIVER_CODE:IO_INT_MDIO_GetPhyAliveStatus)
000c1610  global    IO_INT_MDIO_GetPhyLinkStatus (.IO_DRIVER_CODE:IO_INT_MDIO_GetPhyLinkStatus)
00000000  global    IO_INT_MDIO_Init (.IO_DRIVER_CODE:IO_INT_MDIO_Init)
000c1680  global    IO_INT_MDIO_ReadPhyReg (.IO_DRIVER_CODE:IO_INT_MDIO_ReadPhyReg)
000c1620  local     IO_INT_MDIO_WaitForCompletion (.IO_DRIVER_CODE:IO_INT_MDIO_WaitForCompletion)
00000000  global    IO_INT_MDIO_WritePhyReg (.IO_DRIVER_CODE:IO_INT_MDIO_WritePhyReg)


================================================================================

ttc500.lib : drv_IO_INT_PHY_DP83848x.obj

Run/Load            
Value     Binding   Name (Section)
--------  --------  ---------------
000001e0  local     $C$L1 (.IO_DRIVER_CODE:IO_PHY_DP83848x_Init)
000001fc  local     $C$L2 (.IO_DRIVER_CODE:IO_PHY_DP83848x_Init)
0000020c  local     $C$L3 (.IO_DRIVER_CODE:IO_PHY_DP83848x_Init)
000c1780  local     $C$L4 (.IO_DRIVER_CODE:IO_PHY_DP83848x_GetSpeed)
000c17a0  local     $C$L5 (.IO_DRIVER_CODE:IO_PHY_DP83848x_GetSpeed)
000c17a8  local     $C$L6 (.IO_DRIVER_CODE:IO_PHY_DP83848x_GetSpeed)
000c17b8  local     $C$L7 (.IO_DRIVER_CODE:IO_PHY_DP83848x_GetSpeed)
000c17c0  local     $C$L8 (.IO_DRIVER_CODE:IO_PHY_DP83848x_GetSpeed)
000c17c8  local     $C$L9 (.IO_DRIVER_CODE:IO_PHY_DP83848x_GetSpeed)
00000000  local     $a (.IO_DRIVER_CODE:IO_PHY_DP83848x_Init)
000c1700  local     $a (.IO_DRIVER_CODE:IO_PHY_DP83848x_GetSpeed)
000c1700  local     .IO_DRIVER_CODE:IO_PHY_DP83848x_GetSpeed (.IO_DRIVER_CODE:IO_PHY_DP83848x_GetSpeed)
00000000  local     .IO_DRIVER_CODE:IO_PHY_DP83848x_Init (.IO_DRIVER_CODE:IO_PHY_DP83848x_Init)
00000000  local     .text (.text)
000c1700  global    IO_PHY_DP83848x_GetSpeed (.IO_DRIVER_CODE:IO_PHY_DP83848x_GetSpeed)
00000000  global    IO_PHY_DP83848x_Init (.IO_DRIVER_CODE:IO_PHY_DP83848x_Init)


================================================================================

ttc500.lib : drv_IO_INT_FPGA.obj

Run/Load            
Value     Binding   Name (Section)
--------  --------  ---------------
000b4064  local     $C$L1 (.IO_DRIVER_CODE:IO_INT_FPGA_ReadFIDB)
000b420c  local     $C$L10 (.IO_DRIVER_CODE:IO_INT_FPGA_SendImage_RLE)
000b4210  local     $C$L11 (.IO_DRIVER_CODE:IO_INT_FPGA_SendImage_RLE)
000b4214  local     $C$L12 (.IO_DRIVER_CODE:IO_INT_FPGA_SendImage_RLE)
000b4224  local     $C$L13 (.IO_DRIVER_CODE:IO_INT_FPGA_SendImage_RLE)
000b4270  local     $C$L14 (.IO_DRIVER_CODE:IO_INT_FPGA_SendImage_Plain)
000b428c  local     $C$L15 (.IO_DRIVER_CODE:IO_INT_FPGA_SendImage_Plain)
000b42d0  local     $C$L16 (.IO_DRIVER_CODE:IO_INT_FPGA_SendImage_Finalize)
000b42e4  local     $C$L17 (.IO_DRIVER_CODE:IO_INT_FPGA_SendImage_Finalize)
000b4338  local     $C$L18 (.IO_DRIVER_CODE:IO_INT_FPGA_VersionCheck)
000b4354  local     $C$L19 (.IO_DRIVER_CODE:IO_INT_FPGA_VersionCheck)
000b4070  local     $C$L2 (.IO_DRIVER_CODE:IO_INT_FPGA_ReadFIDB)
000b435c  local     $C$L20 (.IO_DRIVER_CODE:IO_INT_FPGA_VersionCheck)
000b4368  local     $C$L21 (.IO_DRIVER_CODE:IO_INT_FPGA_VersionCheck)
000b436c  local     $C$L22 (.IO_DRIVER_CODE:IO_INT_FPGA_VersionCheck)
000b45c0  local     $C$L23 (.IO_DRIVER_CODE:IO_Driver_FPGA_Init)
000b45f4  local     $C$L24 (.IO_DRIVER_CODE:IO_Driver_FPGA_Init)
000b4670  local     $C$L25 (.IO_DRIVER_CODE:IO_Driver_FPGA_Init)
000b4680  local     $C$L26 (.IO_DRIVER_CODE:IO_Driver_FPGA_Init)
000b46a8  local     $C$L27 (.IO_DRIVER_CODE:IO_Driver_FPGA_Init)
000b46b0  local     $C$L28 (.IO_DRIVER_CODE:IO_Driver_FPGA_Init)
000b46c8  local     $C$L29 (.IO_DRIVER_CODE:IO_Driver_FPGA_Init)
000b4080  local     $C$L3 (.IO_DRIVER_CODE:IO_INT_FPGA_ReadFIDB)
000b46d0  local     $C$L30 (.IO_DRIVER_CODE:IO_Driver_FPGA_Init)
000b46f0  local     $C$L31 (.IO_DRIVER_CODE:IO_Driver_FPGA_Init)
000b4760  local     $C$L32 (.IO_DRIVER_CODE:IO_Driver_FPGA_Init)
000b4764  local     $C$L33 (.IO_DRIVER_CODE:IO_Driver_FPGA_Init)
000b4100  local     $C$L4 (.IO_DRIVER_CODE:IO_INT_FPGA_SendImage_RLE)
000b4150  local     $C$L5 (.IO_DRIVER_CODE:IO_INT_FPGA_SendImage_RLE)
000b4170  local     $C$L6 (.IO_DRIVER_CODE:IO_INT_FPGA_SendImage_RLE)
000b4190  local     $C$L7 (.IO_DRIVER_CODE:IO_INT_FPGA_SendImage_RLE)
000b41e0  local     $C$L8 (.IO_DRIVER_CODE:IO_INT_FPGA_SendImage_RLE)
000b41f4  local     $C$L9 (.IO_DRIVER_CODE:IO_INT_FPGA_SendImage_RLE)
000b4020  local     $a (.IO_DRIVER_CODE:IO_INT_FPGA_ReadFIDB)
000b4090  local     $a (.IO_DRIVER_CODE:IO_INT_FPGA_SendImage_RLE)
000b4240  local     $a (.IO_DRIVER_CODE:IO_INT_FPGA_SendImage_Plain)
000b42a0  local     $a (.IO_DRIVER_CODE:IO_INT_FPGA_SendImage_Finalize)
000b42f0  local     $a (.IO_DRIVER_CODE:IO_INT_FPGA_VersionCheck)
000b44a0  local     $a (.IO_DRIVER_CODE:IO_INT_FPGA_InitRegisters)
000b4570  local     $a (.IO_DRIVER_CODE:IO_Driver_FPGA_Init)
000b4570  local     .IO_DRIVER_CODE:IO_Driver_FPGA_Init (.IO_DRIVER_CODE:IO_Driver_FPGA_Init)
000b44a0  local     .IO_DRIVER_CODE:IO_INT_FPGA_InitRegisters (.IO_DRIVER_CODE:IO_INT_FPGA_InitRegisters)
000b4020  local     .IO_DRIVER_CODE:IO_INT_FPGA_ReadFIDB (.IO_DRIVER_CODE:IO_INT_FPGA_ReadFIDB)
000b42a0  local     .IO_DRIVER_CODE:IO_INT_FPGA_SendImage_Finalize (.IO_DRIVER_CODE:IO_INT_FPGA_SendImage_Finalize)
000b4240  local     .IO_DRIVER_CODE:IO_INT_FPGA_SendImage_Plain (.IO_DRIVER_CODE:IO_INT_FPGA_SendImage_Plain)
000b4090  local     .IO_DRIVER_CODE:IO_INT_FPGA_SendImage_RLE (.IO_DRIVER_CODE:IO_INT_FPGA_SendImage_RLE)
000b42f0  local     .IO_DRIVER_CODE:IO_INT_FPGA_VersionCheck (.IO_DRIVER_CODE:IO_INT_FPGA_VersionCheck)
00000000  local     .text (.text)
000b4570  global    IO_Driver_FPGA_Init (.IO_DRIVER_CODE:IO_Driver_FPGA_Init)
000b44a0  local     IO_INT_FPGA_InitRegisters (.IO_DRIVER_CODE:IO_INT_FPGA_InitRegisters)
000b4020  local     IO_INT_FPGA_ReadFIDB (.IO_DRIVER_CODE:IO_INT_FPGA_ReadFIDB)
000b42a0  local     IO_INT_FPGA_SendImage_Finalize (.IO_DRIVER_CODE:IO_INT_FPGA_SendImage_Finalize)
000b4240  local     IO_INT_FPGA_SendImage_Plain (.IO_DRIVER_CODE:IO_INT_FPGA_SendImage_Plain)
000b4090  local     IO_INT_FPGA_SendImage_RLE (.IO_DRIVER_CODE:IO_INT_FPGA_SendImage_RLE)
000b42f0  local     IO_INT_FPGA_VersionCheck (.IO_DRIVER_CODE:IO_INT_FPGA_VersionCheck)


================================================================================

ttc500.lib : drv_IO_INT_PHY_TJA1101.obj

Run/Load            
Value     Binding   Name (Section)
--------  --------  ---------------
0000004c  local     $C$L1 (.IO_DRIVER_CODE:reg_bit_set)
0000004c  local     $C$L2 (.IO_DRIVER_CODE:reg_bit_clr)
00000050  local     $C$L3 (.IO_DRIVER_CODE:IO_PHY_TJA1101_SetRole)
00000064  local     $C$L4 (.IO_DRIVER_CODE:IO_PHY_TJA1101_SetRole)
00000100  local     $C$L5 (.IO_DRIVER_CODE:IO_PHY_TJA1101_Init)
00000000  local     $a (.IO_DRIVER_CODE:reg_bit_set)
00000000  local     $a (.IO_DRIVER_CODE:reg_bit_clr)
00000000  local     $a (.IO_DRIVER_CODE:IO_PHY_TJA1101_SetRole)
00000000  local     $a (.IO_DRIVER_CODE:IO_PHY_TJA1101_Init)
00000000  local     .IO_DRIVER_CODE:IO_PHY_TJA1101_Init (.IO_DRIVER_CODE:IO_PHY_TJA1101_Init)
00000000  local     .IO_DRIVER_CODE:IO_PHY_TJA1101_SetRole (.IO_DRIVER_CODE:IO_PHY_TJA1101_SetRole)
00000000  local     .IO_DRIVER_CODE:reg_bit_clr (.IO_DRIVER_CODE:reg_bit_clr)
00000000  local     .IO_DRIVER_CODE:reg_bit_set (.IO_DRIVER_CODE:reg_bit_set)
00000000  local     .text (.text)
00000000  global    IO_PHY_TJA1101_Init (.IO_DRIVER_CODE:IO_PHY_TJA1101_Init)
00000000  global    IO_PHY_TJA1101_SetRole (.IO_DRIVER_CODE:IO_PHY_TJA1101_SetRole)
00000000  local     reg_bit_clr (.IO_DRIVER_CODE:reg_bit_clr)
00000000  local     reg_bit_set (.IO_DRIVER_CODE:reg_bit_set)


================================================================================

ttc500.lib : drv_DIAG_INT_VMON_Check.obj

Run/Load            
Value     Binding   Name (Section)
--------  --------  ---------------
000bbacc  local     $C$L1 (.IO_DRIVER_CODE:DIAG_VMON_TestPerform)
000bbc70  local     $C$L10 (.IO_DRIVER_CODE:DIAG_VMON_TestPerform)
000bbc84  local     $C$L11 (.IO_DRIVER_CODE:DIAG_VMON_TestPerform)
000bbc9c  local     $C$L12 (.IO_DRIVER_CODE:DIAG_VMON_TestPerform)
000bbcc0  local     $C$L13 (.IO_DRIVER_CODE:DIAG_VMON_TestPerform)
000bbcdc  local     $C$L14 (.IO_DRIVER_CODE:DIAG_VMON_TestPerform)
000bbd20  local     $C$L15 (.IO_DRIVER_CODE:DIAG_VMON_TestPerform)
000bbb04  local     $C$L2 (.IO_DRIVER_CODE:DIAG_VMON_TestPerform)
000bbb34  local     $C$L3 (.IO_DRIVER_CODE:DIAG_VMON_TestPerform)
000bbb70  local     $C$L4 (.IO_DRIVER_CODE:DIAG_VMON_TestPerform)
000bbb84  local     $C$L5 (.IO_DRIVER_CODE:DIAG_VMON_TestPerform)
000bbbb8  local     $C$L6 (.IO_DRIVER_CODE:DIAG_VMON_TestPerform)
000bbbf0  local     $C$L7 (.IO_DRIVER_CODE:DIAG_VMON_TestPerform)
000bbc04  local     $C$L8 (.IO_DRIVER_CODE:DIAG_VMON_TestPerform)
000bbc34  local     $C$L9 (.IO_DRIVER_CODE:DIAG_VMON_TestPerform)
000bbaa8  local     $C$SW1 (.IO_DRIVER_CODE:DIAG_VMON_TestPerform)
000bba70  local     $a (.IO_DRIVER_CODE:DIAG_VMON_TestPerform)
000bbacc  local     $a (.IO_DRIVER_CODE:DIAG_VMON_TestPerform)
000c4180  local     $a (.IO_DRIVER_CODE:DIAG_VMON_TestCheck)
000b2060  local     $a (.IO_DRIVER_CODE:DIAG_VMON_ModuleInit)
000b9b60  local     $a (.IO_DRIVER_CODE:DIAG_VMON_Check)
000bbaa8  local     $d (.IO_DRIVER_CODE:DIAG_VMON_TestPerform)
0803d8ed  local     $d (.IO_DRIVER_DATA_NORMAL)
000b9b60  local     .IO_DRIVER_CODE:DIAG_VMON_Check (.IO_DRIVER_CODE:DIAG_VMON_Check)
000b2060  local     .IO_DRIVER_CODE:DIAG_VMON_ModuleInit (.IO_DRIVER_CODE:DIAG_VMON_ModuleInit)
000c4180  local     .IO_DRIVER_CODE:DIAG_VMON_TestCheck (.IO_DRIVER_CODE:DIAG_VMON_TestCheck)
000bba70  local     .IO_DRIVER_CODE:DIAG_VMON_TestPerform (.IO_DRIVER_CODE:DIAG_VMON_TestPerform)
0803d8ed  local     .IO_DRIVER_DATA_NORMAL (.IO_DRIVER_DATA_NORMAL)
00000000  local     .text (.text)
000b9b60  global    DIAG_VMON_Check (.IO_DRIVER_CODE:DIAG_VMON_Check)
000b2060  global    DIAG_VMON_ModuleInit (.IO_DRIVER_CODE:DIAG_VMON_ModuleInit)
000c4180  global    DIAG_VMON_TestCheck (.IO_DRIVER_CODE:DIAG_VMON_TestCheck)
000bba70  global    DIAG_VMON_TestPerform (.IO_DRIVER_CODE:DIAG_VMON_TestPerform)
0803d8ed  local     diag_vmon_checker_data (.IO_DRIVER_DATA_NORMAL)


================================================================================

ttc500.lib : drv_DIAG_INT_PWD_Check.obj

Run/Load            
Value     Binding   Name (Section)
--------  --------  ---------------
000bac14  local     $C$L1 (.IO_DRIVER_CODE:DIAG_PWD_ThresholdCheck)
000baac8  local     $C$L10 (.IO_DRIVER_CODE:DIAG_PWD_RangeCheck)
000baae0  local     $C$L11 (.IO_DRIVER_CODE:DIAG_PWD_RangeCheck)
000baaf0  local     $C$L12 (.IO_DRIVER_CODE:DIAG_PWD_RangeCheck)
000bab60  local     $C$L13 (.IO_DRIVER_CODE:DIAG_PWD_CurrentCheck)
000babcc  local     $C$L14 (.IO_DRIVER_CODE:DIAG_PWD_CurrentCheck)
000babdc  local     $C$L15 (.IO_DRIVER_CODE:DIAG_PWD_CurrentCheck)
000bac18  local     $C$L2 (.IO_DRIVER_CODE:DIAG_PWD_ThresholdCheck)
000ba980  local     $C$L3 (.IO_DRIVER_CODE:DIAG_PWD_RangeCheck)
000baa10  local     $C$L4 (.IO_DRIVER_CODE:DIAG_PWD_RangeCheck)
000baa68  local     $C$L5 (.IO_DRIVER_CODE:DIAG_PWD_RangeCheck)
000baa74  local     $C$L6 (.IO_DRIVER_CODE:DIAG_PWD_RangeCheck)
000baa7c  local     $C$L7 (.IO_DRIVER_CODE:DIAG_PWD_RangeCheck)
000baaa0  local     $C$L8 (.IO_DRIVER_CODE:DIAG_PWD_RangeCheck)
000baac4  local     $C$L9 (.IO_DRIVER_CODE:DIAG_PWD_RangeCheck)
000babf0  local     $a (.IO_DRIVER_CODE:DIAG_PWD_ThresholdCheck)
000ba930  local     $a (.IO_DRIVER_CODE:DIAG_PWD_RangeCheck)
000bab10  local     $a (.IO_DRIVER_CODE:DIAG_PWD_CurrentCheck)
000bab10  local     .IO_DRIVER_CODE:DIAG_PWD_CurrentCheck (.IO_DRIVER_CODE:DIAG_PWD_CurrentCheck)
000ba930  local     .IO_DRIVER_CODE:DIAG_PWD_RangeCheck (.IO_DRIVER_CODE:DIAG_PWD_RangeCheck)
000babf0  local     .IO_DRIVER_CODE:DIAG_PWD_ThresholdCheck (.IO_DRIVER_CODE:DIAG_PWD_ThresholdCheck)
00000000  local     .text (.text)
000bab10  global    DIAG_PWD_CurrentCheck (.IO_DRIVER_CODE:DIAG_PWD_CurrentCheck)
000ba930  global    DIAG_PWD_RangeCheck (.IO_DRIVER_CODE:DIAG_PWD_RangeCheck)
000babf0  global    DIAG_PWD_ThresholdCheck (.IO_DRIVER_CODE:DIAG_PWD_ThresholdCheck)


================================================================================

ttc500.lib : drv_csm_pwm_cfg.obj

Run/Load            
Value     Binding   Name (Section)
--------  --------  ---------------
0803db00  local     $d (.IO_DRIVER_DATA_NORMAL)
000ca51c  local     $d (.IO_DRIVER_CONST)
000ca6fc  local     $d (.IO_DRIVER_CONST)
000ca51c  local     .IO_DRIVER_CONST (.IO_DRIVER_CONST)
0803db00  local     .IO_DRIVER_DATA_NORMAL (.IO_DRIVER_DATA_NORMAL)
00000000  local     .text (.text)
000ca51c  global    Csm_Pwm_ChannelConfig (.IO_DRIVER_CONST)
0803db00  local     Csm_Pwm_ChannelConfigRAM (.IO_DRIVER_DATA_NORMAL)
000ca6fc  global    Csm_Pwm_Config (.IO_DRIVER_CONST)


================================================================================

ttc500.lib : drv_csm_icu_cfg.obj

Run/Load            
Value     Binding   Name (Section)
--------  --------  ---------------
0803db9f  local     $d (.IO_DRIVER_DATA_NORMAL)
0803dbab  local     $d (.IO_DRIVER_DATA_NORMAL)
0803dbb7  local     $d (.IO_DRIVER_DATA_NORMAL)
000ca878  local     $d (.IO_DRIVER_CONST)
000ca8f0  local     $d (.IO_DRIVER_CONST)
000ca980  local     $d (.IO_DRIVER_CONST)
000ca9b8  local     $d (.IO_DRIVER_CONST)
000ca878  local     .IO_DRIVER_CONST (.IO_DRIVER_CONST)
0803db9f  local     .IO_DRIVER_DATA_NORMAL (.IO_DRIVER_DATA_NORMAL)
00000000  local     .text (.text)
000ca878  global    Csm_Icu_ChannelDutyCycleConfig (.IO_DRIVER_CONST)
0803db9f  local     Csm_Icu_ChannelDutyCycleRAM (.IO_DRIVER_DATA_NORMAL)
000ca980  global    Csm_Icu_ChannelQuadraturConfig (.IO_DRIVER_CONST)
0803dbb7  local     Csm_Icu_ChannelQuadraturRAM (.IO_DRIVER_DATA_NORMAL)
000ca8f0  global    Csm_Icu_ChannelTimeStampConfig (.IO_DRIVER_CONST)
0803dbab  local     Csm_Icu_ChannelTimeStampRAM (.IO_DRIVER_DATA_NORMAL)
000ca9b8  global    Csm_Icu_Config (.IO_DRIVER_CONST)


================================================================================

ttc500.lib : drv_het_ADC_MUX_nhet_prg.obj

Run/Load            
Value     Binding   Name (Section)
--------  --------  ---------------
000af530  local     $d (.CSM_CONST)
000af530  local     .CSM_CONST (.CSM_CONST)
00000000  local     .text (.text)
000af530  global    ADC_MUX_nhet_prg (.CSM_CONST)


================================================================================

ttc500.lib : drv_het_PWM_GPIO_prg.obj

Run/Load            
Value     Binding   Name (Section)
--------  --------  ---------------
000afaf0  local     $d (.CSM_CONST)
000afaf0  local     .CSM_CONST (.CSM_CONST)
00000000  local     .text (.text)
000afaf0  global    PWM_GPIO_prg (.CSM_CONST)


================================================================================

ttc500.lib : drv_het_Interrupt_prg.obj

Run/Load            
Value     Binding   Name (Section)
--------  --------  ---------------
000afc98  local     $d (.CSM_CONST)
000afc98  local     .CSM_CONST (.CSM_CONST)
00000000  local     .text (.text)
000afc98  global    Interrupt_prg (.CSM_CONST)


================================================================================

ttc500.lib : drv_het_PWM_SSW_prg.obj

Run/Load            
Value     Binding   Name (Section)
--------  --------  ---------------
000afe08  local     $d (.CSM_CONST)
000afe08  local     .CSM_CONST (.CSM_CONST)
00000000  local     .text (.text)
000afe08  global    PWM_SSW_prg (.CSM_CONST)


================================================================================

ttc500.lib : drv_Csm_Icu.obj

Run/Load            
Value     Binding   Name (Section)
--------  --------  ---------------
00000058  local     $C$L1 (.CSM_CODE:Csm_Icu_CheckInitChannel)
000000d4  local     $C$L10 (.CSM_CODE:Csm_Icu_QeSwitchResolution_CalcCondAddr)
00000100  local     $C$L11 (.CSM_CODE:Csm_Icu_QeSwitchResolution_CalcCondAddr)
00000118  local     $C$L12 (.CSM_CODE:Csm_Icu_QeSwitchResolution_CalcCondAddr)
00000118  local     $C$L13 (.CSM_CODE:Csm_Icu_QeSwitchResolution)
00000124  local     $C$L14 (.CSM_CODE:Csm_Icu_QeSwitchResolution)
00000074  local     $C$L15 (.CSM_CODE:Csm_Icu_QeSetCounter)
00000080  local     $C$L16 (.CSM_CODE:Csm_Icu_QeSetCounter)
000a87e0  local     $C$L17 (.CSM_CODE:Csm_Icu_InitDutyCycle_int)
000a8860  local     $C$L18 (.CSM_CODE:Csm_Icu_InitDutyCycle_int)
000a888c  local     $C$L19 (.CSM_CODE:Csm_Icu_InitDutyCycle_int)
00000068  local     $C$L2 (.CSM_CODE:Csm_Icu_CheckInitChannel)
000a88c4  local     $C$L20 (.CSM_CODE:Csm_Icu_InitDutyCycle_int)
000a88e0  local     $C$L21 (.CSM_CODE:Csm_Icu_InitDutyCycle_int)
000a8944  local     $C$L22 (.CSM_CODE:Csm_Icu_InitDutyCycle_int)
000a8948  local     $C$L23 (.CSM_CODE:Csm_Icu_InitDutyCycle_int)
000a8990  local     $C$L24 (.CSM_CODE:Csm_Icu_Init_DutyCycle)
000a8aa8  local     $C$L25 (.CSM_CODE:Csm_Icu_Init_DutyCycle)
000a8aac  local     $C$L26 (.CSM_CODE:Csm_Icu_Init_DutyCycle)
000a8ac0  local     $C$L27 (.CSM_CODE:Csm_Icu_Init_DutyCycle)
000a8c20  local     $C$L28 (.CSM_CODE:Csm_Icu_InitTimeStamp_int)
000a8c38  local     $C$L29 (.CSM_CODE:Csm_Icu_InitTimeStamp_int)
00000080  local     $C$L3 (.CSM_CODE:Csm_Icu_CheckInitChannel)
000a8cf4  local     $C$L30 (.CSM_CODE:Csm_Icu_InitTimeStamp_int)
000a8d40  local     $C$L31 (.CSM_CODE:Csm_Icu_Init_EdgeCountTimestamp)
000a8df0  local     $C$L32 (.CSM_CODE:Csm_Icu_Init_EdgeCountTimestamp)
000a8e54  local     $C$L33 (.CSM_CODE:Csm_Icu_Init_EdgeCountTimestamp)
000a8e58  local     $C$L34 (.CSM_CODE:Csm_Icu_Init_EdgeCountTimestamp)
000a8e6c  local     $C$L35 (.CSM_CODE:Csm_Icu_Init_EdgeCountTimestamp)
000a9150  local     $C$L36 (.CSM_CODE:Csm_Icu_QE_add_branches_int)
000a91cc  local     $C$L37 (.CSM_CODE:Csm_Icu_QE_add_branches_int)
000a925c  local     $C$L38 (.CSM_CODE:Csm_Icu_QE_add_branches_int)
000a9294  local     $C$L39 (.CSM_CODE:Csm_Icu_QE_add_branches_int)
00000090  local     $C$L4 (.CSM_CODE:Csm_Icu_CheckInitChannel)
000a9348  local     $C$L40 (.CSM_CODE:Csm_Icu_InitQE_add_branches)
000a9788  local     $C$L41 (.CSM_CODE:Csm_Icu_InitQE_3pins_special_int)
000a9a20  local     $C$L42 (.CSM_CODE:Csm_Icu_InitQE_3pins_int)
000a9b98  local     $C$L43 (.CSM_CODE:Csm_Icu_InitQE_2pins_int)
000a9c54  local     $C$L44 (.CSM_CODE:Csm_Icu_InitSimple_int)
000a9c60  local     $C$L45 (.CSM_CODE:Csm_Icu_InitSimple_int)
000a9c64  local     $C$L46 (.CSM_CODE:Csm_Icu_InitSimple_int)
000a9cac  local     $C$L47 (.CSM_CODE:Csm_Icu_Init)
000a9cd0  local     $C$L48 (.CSM_CODE:Csm_Icu_Init)
000a9d38  local     $C$L49 (.CSM_CODE:Csm_Icu_Init)
00000098  local     $C$L5 (.CSM_CODE:Csm_Icu_CheckInitChannel)
000a9d48  local     $C$L50 (.CSM_CODE:Csm_Icu_Init)
000a9d54  local     $C$L51 (.CSM_CODE:Csm_Icu_Init)
000a9d68  local     $C$L52 (.CSM_CODE:Csm_Icu_Init)
000a9d80  local     $C$L53 (.CSM_CODE:Csm_Icu_Init)
000a9e04  local     $C$L54 (.CSM_CODE:Csm_Icu_Init)
000a9e08  local     $C$L55 (.CSM_CODE:Csm_Icu_Init)
000a9e1c  local     $C$L56 (.CSM_CODE:Csm_Icu_Init)
0000009c  local     $C$L57 (.CSM_CODE:Csm_Icu_GetSimpleValue)
00000104  local     $C$L58 (.CSM_CODE:Csm_Icu_GetQuadraturValues_3pinSpecial)
0000012c  local     $C$L59 (.CSM_CODE:Csm_Icu_GetQuadraturValues_3pinSpecial)
0000009c  local     $C$L6 (.CSM_CODE:Csm_Icu_CheckInitChannel)
00000134  local     $C$L60 (.CSM_CODE:Csm_Icu_GetQuadraturValues_3pinSpecial)
00000138  local     $C$L61 (.CSM_CODE:Csm_Icu_GetQuadraturValues_3pinSpecial)
000000ac  local     $C$L62 (.CSM_CODE:Csm_Icu_GetQuadraturValues)
000000b4  local     $C$L63 (.CSM_CODE:Csm_Icu_GetQuadraturValues)
000000bc  local     $C$L64 (.CSM_CODE:Csm_Icu_GetQuadraturValues)
000000c4  local     $C$L65 (.CSM_CODE:Csm_Icu_GetQuadraturValues)
00000128  local     $C$L66 (.CSM_CODE:Csm_Icu_GetQuadraturValues)
00000140  local     $C$L67 (.CSM_CODE:Csm_Icu_GetQuadraturValues)
0000017c  local     $C$L68 (.CSM_CODE:Csm_Icu_GetQuadraturValues)
00000180  local     $C$L69 (.CSM_CODE:Csm_Icu_GetQuadraturValues)
00000050  local     $C$L7 (.CSM_CODE:Csm_Icu_EdgeCountTimestampGetInstrPos)
00000098  local     $C$L70 (.CSM_CODE:Csm_Icu_GetEdgeCounter)
0000009c  local     $C$L71 (.CSM_CODE:Csm_Icu_GetEdgeCounter)
000000dc  local     $C$L72 (.CSM_CODE:Csm_Icu_GetEdgeCountTimestampValues)
000000e0  local     $C$L73 (.CSM_CODE:Csm_Icu_GetEdgeCountTimestampValues)
000000cc  local     $C$L74 (.CSM_CODE:Csm_Icu_GetDutyCycleValues)
000000d0  local     $C$L75 (.CSM_CODE:Csm_Icu_GetDutyCycleValues)
000000ac  local     $C$L76 (.CSM_CODE:Csm_Icu_GetDutyCyclePeriodCounters)
000000d8  local     $C$L77 (.CSM_CODE:Csm_Icu_GetDutyCyclePeriodCounters)
00000060  local     $C$L78 (.CSM_CODE:Csm_Icu_EcTsSwitchEdgeMeasTypeRMW)
0000007c  local     $C$L79 (.CSM_CODE:Csm_Icu_EdgeCountTimestampSwitchEdgeMeasType)
00000090  local     $C$L8 (.CSM_CODE:Csm_Icu_QeSwitchResolution_CalcCondAddr)
0000009c  local     $C$L80 (.CSM_CODE:Csm_Icu_EdgeCountTimestampSwitchEdgeMeasType)
000000ac  local     $C$L81 (.CSM_CODE:Csm_Icu_EdgeCountTimestampSwitchEdgeMeasType)
0000009c  local     $C$L82 (.CSM_CODE:Csm_Icu_DcSwitchMeasurementType)
000000a8  local     $C$L83 (.CSM_CODE:Csm_Icu_DcSwitchMeasurementType)
000000c8  local     $C$L84 (.CSM_CODE:Csm_Icu_DcSwitchMeasurementType)
000000c0  local     $C$L9 (.CSM_CODE:Csm_Icu_QeSwitchResolution_CalcCondAddr)
00000000  local     $a (.CSM_CODE:Csm_Icu_CheckInitChannel)
00000000  local     $a (.CSM_CODE:Csm_Icu_EdgeCountTimestampGetInstrPos)
00000000  local     $a (.CSM_CODE:Csm_Icu_SetCounter)
00000000  local     $a (.CSM_CODE:Csm_Icu_SetEdgeCounter)
00000000  local     $a (.CSM_CODE:Csm_Icu_QeSwitchResolution_CalcCondAddr)
00000000  local     $a (.CSM_CODE:Csm_Icu_QeSwitchResolution)
00000000  local     $a (.CSM_CODE:Csm_Icu_QeSetCounter)
000a8780  local     $a (.CSM_CODE:Csm_Icu_InitDutyCycle_int)
000a8950  local     $a (.CSM_CODE:Csm_Icu_Init_DutyCycle)
000a8ad0  local     $a (.CSM_CODE:Csm_Icu_InitTimeStamp_int)
000a8d00  local     $a (.CSM_CODE:Csm_Icu_Init_EdgeCountTimestamp)
000a8e80  local     $a (.CSM_CODE:Csm_Icu_InitQE_addUpdateCounterInstr)
000a8f10  local     $a (.CSM_CODE:Csm_Icu_InitQE_3pins_special_addInstrBeforeBranch)
000a9110  local     $a (.CSM_CODE:Csm_Icu_QE_add_branches_int)
000a92a0  local     $a (.CSM_CODE:Csm_Icu_InitQE_add_branches)
000a9350  local     $a (.CSM_CODE:Csm_Icu_InitQE_3pins_special_int)
000a9790  local     $a (.CSM_CODE:Csm_Icu_InitQE_3pins_int)
000a9a30  local     $a (.CSM_CODE:Csm_Icu_InitQE_2pins_int)
000a9ba0  local     $a (.CSM_CODE:Csm_Icu_InitSimple_int)
000a9c80  local     $a (.CSM_CODE:Csm_Icu_Init)
00000000  local     $a (.CSM_CODE:Csm_Icu_GetVersionInfo)
00000000  local     $a (.CSM_CODE:Csm_Icu_GetSimpleValue)
00000000  local     $a (.CSM_CODE:Csm_Icu_GetQuadraturValues_3pinSpecial)
00000000  local     $a (.CSM_CODE:Csm_Icu_GetQuadraturValues)
00000000  local     $a (.CSM_CODE:Csm_Icu_GetEdgeCounter)
00000000  local     $a (.CSM_CODE:Csm_Icu_GetEdgeCountTimestampValues)
00000000  local     $a (.CSM_CODE:Csm_Icu_GetDutyCycleValues)
00000000  local     $a (.CSM_CODE:Csm_Icu_GetDutyCyclePeriodCounters)
00000000  local     $a (.CSM_CODE:Csm_Icu_EcTsSwitchEdgeMeasTypeRMW)
00000000  local     $a (.CSM_CODE:Csm_Icu_EdgeCountTimestampSwitchEdgeMeasType)
00000000  local     $a (.CSM_CODE:Csm_Icu_DcSwitchMeasurementType)
00000000  local     $a (.CSM_CODE:Csm_Icu_DcSwitchPulsMeasurementType)
00000000  local     $a (.CSM_CODE:Csm_Icu_DcSwitchPeriodMeasurementType)
00000000  local     .CSM_CODE:Csm_Icu_CheckInitChannel (.CSM_CODE:Csm_Icu_CheckInitChannel)
00000000  local     .CSM_CODE:Csm_Icu_DcSwitchMeasurementType (.CSM_CODE:Csm_Icu_DcSwitchMeasurementType)
00000000  local     .CSM_CODE:Csm_Icu_DcSwitchPeriodMeasurementType (.CSM_CODE:Csm_Icu_DcSwitchPeriodMeasurementType)
00000000  local     .CSM_CODE:Csm_Icu_DcSwitchPulsMeasurementType (.CSM_CODE:Csm_Icu_DcSwitchPulsMeasurementType)
00000000  local     .CSM_CODE:Csm_Icu_EcTsSwitchEdgeMeasTypeRMW (.CSM_CODE:Csm_Icu_EcTsSwitchEdgeMeasTypeRMW)
00000000  local     .CSM_CODE:Csm_Icu_EdgeCountTimestampGetInstrPos (.CSM_CODE:Csm_Icu_EdgeCountTimestampGetInstrPos)
00000000  local     .CSM_CODE:Csm_Icu_EdgeCountTimestampSwitchEdgeMeasType (.CSM_CODE:Csm_Icu_EdgeCountTimestampSwitchEdgeMeasType)
00000000  local     .CSM_CODE:Csm_Icu_GetDutyCyclePeriodCounters (.CSM_CODE:Csm_Icu_GetDutyCyclePeriodCounters)
00000000  local     .CSM_CODE:Csm_Icu_GetDutyCycleValues (.CSM_CODE:Csm_Icu_GetDutyCycleValues)
00000000  local     .CSM_CODE:Csm_Icu_GetEdgeCountTimestampValues (.CSM_CODE:Csm_Icu_GetEdgeCountTimestampValues)
00000000  local     .CSM_CODE:Csm_Icu_GetEdgeCounter (.CSM_CODE:Csm_Icu_GetEdgeCounter)
00000000  local     .CSM_CODE:Csm_Icu_GetQuadraturValues (.CSM_CODE:Csm_Icu_GetQuadraturValues)
00000000  local     .CSM_CODE:Csm_Icu_GetQuadraturValues_3pinSpecial (.CSM_CODE:Csm_Icu_GetQuadraturValues_3pinSpecial)
00000000  local     .CSM_CODE:Csm_Icu_GetSimpleValue (.CSM_CODE:Csm_Icu_GetSimpleValue)
00000000  local     .CSM_CODE:Csm_Icu_GetVersionInfo (.CSM_CODE:Csm_Icu_GetVersionInfo)
000a9c80  local     .CSM_CODE:Csm_Icu_Init (.CSM_CODE:Csm_Icu_Init)
000a8780  local     .CSM_CODE:Csm_Icu_InitDutyCycle_int (.CSM_CODE:Csm_Icu_InitDutyCycle_int)
000a9a30  local     .CSM_CODE:Csm_Icu_InitQE_2pins_int (.CSM_CODE:Csm_Icu_InitQE_2pins_int)
000a9790  local     .CSM_CODE:Csm_Icu_InitQE_3pins_int (.CSM_CODE:Csm_Icu_InitQE_3pins_int)
000a8f10  local     .CSM_CODE:Csm_Icu_InitQE_3pins_special_addInstrBeforeBranch (.CSM_CODE:Csm_Icu_InitQE_3pins_special_addInstrBeforeBranch)
000a9350  local     .CSM_CODE:Csm_Icu_InitQE_3pins_special_int (.CSM_CODE:Csm_Icu_InitQE_3pins_special_int)
000a8e80  local     .CSM_CODE:Csm_Icu_InitQE_addUpdateCounterInstr (.CSM_CODE:Csm_Icu_InitQE_addUpdateCounterInstr)
000a92a0  local     .CSM_CODE:Csm_Icu_InitQE_add_branches (.CSM_CODE:Csm_Icu_InitQE_add_branches)
000a9ba0  local     .CSM_CODE:Csm_Icu_InitSimple_int (.CSM_CODE:Csm_Icu_InitSimple_int)
000a8ad0  local     .CSM_CODE:Csm_Icu_InitTimeStamp_int (.CSM_CODE:Csm_Icu_InitTimeStamp_int)
000a8950  local     .CSM_CODE:Csm_Icu_Init_DutyCycle (.CSM_CODE:Csm_Icu_Init_DutyCycle)
000a8d00  local     .CSM_CODE:Csm_Icu_Init_EdgeCountTimestamp (.CSM_CODE:Csm_Icu_Init_EdgeCountTimestamp)
000a9110  local     .CSM_CODE:Csm_Icu_QE_add_branches_int (.CSM_CODE:Csm_Icu_QE_add_branches_int)
00000000  local     .CSM_CODE:Csm_Icu_QeSetCounter (.CSM_CODE:Csm_Icu_QeSetCounter)
00000000  local     .CSM_CODE:Csm_Icu_QeSwitchResolution (.CSM_CODE:Csm_Icu_QeSwitchResolution)
00000000  local     .CSM_CODE:Csm_Icu_QeSwitchResolution_CalcCondAddr (.CSM_CODE:Csm_Icu_QeSwitchResolution_CalcCondAddr)
00000000  local     .CSM_CODE:Csm_Icu_SetCounter (.CSM_CODE:Csm_Icu_SetCounter)
00000000  local     .CSM_CODE:Csm_Icu_SetEdgeCounter (.CSM_CODE:Csm_Icu_SetEdgeCounter)
080380a8  local     .CSM_VAR_ZERO_INIT_UNSPECIFIED (.CSM_VAR_ZERO_INIT_UNSPECIFIED)
00000000  local     .text (.text)
00000000  local     Csm_Icu_CheckInitChannel (.CSM_CODE:Csm_Icu_CheckInitChannel)
00000000  local     Csm_Icu_DcSwitchMeasurementType (.CSM_CODE:Csm_Icu_DcSwitchMeasurementType)
00000000  global    Csm_Icu_DcSwitchPeriodMeasurementType (.CSM_CODE:Csm_Icu_DcSwitchPeriodMeasurementType)
00000000  global    Csm_Icu_DcSwitchPulsMeasurementType (.CSM_CODE:Csm_Icu_DcSwitchPulsMeasurementType)
00000000  local     Csm_Icu_EcTsSwitchEdgeMeasTypeRMW (.CSM_CODE:Csm_Icu_EcTsSwitchEdgeMeasTypeRMW)
00000000  local     Csm_Icu_EdgeCountTimestampGetInstrPos (.CSM_CODE:Csm_Icu_EdgeCountTimestampGetInstrPos)
00000000  global    Csm_Icu_EdgeCountTimestampSwitchEdgeMeasType (.CSM_CODE:Csm_Icu_EdgeCountTimestampSwitchEdgeMeasType)
00000000  global    Csm_Icu_GetDutyCyclePeriodCounters (.CSM_CODE:Csm_Icu_GetDutyCyclePeriodCounters)
00000000  global    Csm_Icu_GetDutyCycleValues (.CSM_CODE:Csm_Icu_GetDutyCycleValues)
00000000  global    Csm_Icu_GetEdgeCountTimestampValues (.CSM_CODE:Csm_Icu_GetEdgeCountTimestampValues)
00000000  global    Csm_Icu_GetEdgeCounter (.CSM_CODE:Csm_Icu_GetEdgeCounter)
00000000  global    Csm_Icu_GetQuadraturValues (.CSM_CODE:Csm_Icu_GetQuadraturValues)
00000000  local     Csm_Icu_GetQuadraturValues_3pinSpecial (.CSM_CODE:Csm_Icu_GetQuadraturValues_3pinSpecial)
00000000  global    Csm_Icu_GetSimpleValue (.CSM_CODE:Csm_Icu_GetSimpleValue)
00000000  global    Csm_Icu_GetVersionInfo (.CSM_CODE:Csm_Icu_GetVersionInfo)
000a9c80  global    Csm_Icu_Init (.CSM_CODE:Csm_Icu_Init)
000a8780  local     Csm_Icu_InitDutyCycle_int (.CSM_CODE:Csm_Icu_InitDutyCycle_int)
000a9a30  local     Csm_Icu_InitQE_2pins_int (.CSM_CODE:Csm_Icu_InitQE_2pins_int)
000a9790  local     Csm_Icu_InitQE_3pins_int (.CSM_CODE:Csm_Icu_InitQE_3pins_int)
000a8f10  local     Csm_Icu_InitQE_3pins_special_addInstrBeforeBranch (.CSM_CODE:Csm_Icu_InitQE_3pins_special_addInstrBeforeBranch)
000a9350  local     Csm_Icu_InitQE_3pins_special_int (.CSM_CODE:Csm_Icu_InitQE_3pins_special_int)
000a8e80  local     Csm_Icu_InitQE_addUpdateCounterInstr (.CSM_CODE:Csm_Icu_InitQE_addUpdateCounterInstr)
000a92a0  local     Csm_Icu_InitQE_add_branches (.CSM_CODE:Csm_Icu_InitQE_add_branches)
000a9ba0  local     Csm_Icu_InitSimple_int (.CSM_CODE:Csm_Icu_InitSimple_int)
000a8ad0  local     Csm_Icu_InitTimeStamp_int (.CSM_CODE:Csm_Icu_InitTimeStamp_int)
000a8950  local     Csm_Icu_Init_DutyCycle (.CSM_CODE:Csm_Icu_Init_DutyCycle)
000a8d00  local     Csm_Icu_Init_EdgeCountTimestamp (.CSM_CODE:Csm_Icu_Init_EdgeCountTimestamp)
000a9110  local     Csm_Icu_QE_add_branches_int (.CSM_CODE:Csm_Icu_QE_add_branches_int)
00000000  global    Csm_Icu_QeSetCounter (.CSM_CODE:Csm_Icu_QeSetCounter)
00000000  global    Csm_Icu_QeSwitchResolution (.CSM_CODE:Csm_Icu_QeSwitchResolution)
00000000  local     Csm_Icu_QeSwitchResolution_CalcCondAddr (.CSM_CODE:Csm_Icu_QeSwitchResolution_CalcCondAddr)
00000000  local     Csm_Icu_SetCounter (.CSM_CODE:Csm_Icu_SetCounter)
00000000  global    Csm_Icu_SetEdgeCounter (.CSM_CODE:Csm_Icu_SetEdgeCounter)
080380a8  local     Csm_Icu_config (.CSM_VAR_ZERO_INIT_UNSPECIFIED)


================================================================================

ttc500.lib : drv_Csm_Mcu_Boot.obj

Run/Load            
Value     Binding   Name (Section)
--------  --------  ---------------
000a0570  local     $C$L1 (.CSM_CODE:Csm_Mcu_WaitClocksLocked)
000a04f4  local     $C$L2 (.CSM_CODE:Csm_Mcu_TrimLPO)
000a0bf0  local     $C$L3 (.CSM_CODE:Csm_Mcu_WriteIOMultiplexerConfig)
000a0c24  local     $C$L4 (.CSM_CODE:Csm_Mcu_WriteIOMultiplexerConfig)
000a0d2c  local     $C$L5 (.CSM_CODE:Csm_Mcu_Init)
000a0520  local     $a (.CSM_CODE:Csm_Mcu_Below20Mhz)
000a0540  local     $a (.CSM_CODE:Csm_Mcu_Above20Mhz)
000a0560  local     $a (.CSM_CODE:Csm_Mcu_WaitClocksLocked)
000a04b0  local     $a (.CSM_CODE:Csm_Mcu_TrimLPO)
000a08c0  local     $a (.CSM_CODE:Csm_Mcu_TestRamSection_Boot)
000a05b0  local     $a (.CSM_CODE:Csm_Mcu_SystemInitFinalStep2)
000a0580  local     $a (.CSM_CODE:Csm_Mcu_SystemInitFinalStep)
000a0380  local     $a (.CSM_CODE:Csm_Mcu_SetupPLL)
000a02f0  local     $a (.CSM_CODE:Csm_Mcu_SetupFlash)
000a0470  local     $a (.CSM_CODE:Csm_Mcu_PeriphInit3)
000a0420  local     $a (.CSM_CODE:Csm_Mcu_PeriphInit2)
000a03e0  local     $a (.CSM_CODE:Csm_Mcu_PeriphInit1)
000a0b60  local     $a (.CSM_CODE:Csm_Mcu_EnableIOMMerrorSignaling)
000a0bb0  local     $a (.CSM_CODE:Csm_Mcu_WriteIOMultiplexerConfig)
000a0c30  local     $a (.CSM_CODE:Csm_Mcu_ReadResetReason)
000a0c70  local     $a (.CSM_CODE:Csm_Mcu_StartCosmoSharedMemory)
000a0c90  local     $a (.CSM_CODE:Csm_Mcu_Init)
000a0540  local     .CSM_CODE:Csm_Mcu_Above20Mhz (.CSM_CODE:Csm_Mcu_Above20Mhz)
000a0520  local     .CSM_CODE:Csm_Mcu_Below20Mhz (.CSM_CODE:Csm_Mcu_Below20Mhz)
000a0b60  local     .CSM_CODE:Csm_Mcu_EnableIOMMerrorSignaling (.CSM_CODE:Csm_Mcu_EnableIOMMerrorSignaling)
000a0c90  local     .CSM_CODE:Csm_Mcu_Init (.CSM_CODE:Csm_Mcu_Init)
000a03e0  local     .CSM_CODE:Csm_Mcu_PeriphInit1 (.CSM_CODE:Csm_Mcu_PeriphInit1)
000a0420  local     .CSM_CODE:Csm_Mcu_PeriphInit2 (.CSM_CODE:Csm_Mcu_PeriphInit2)
000a0470  local     .CSM_CODE:Csm_Mcu_PeriphInit3 (.CSM_CODE:Csm_Mcu_PeriphInit3)
000a0c30  local     .CSM_CODE:Csm_Mcu_ReadResetReason (.CSM_CODE:Csm_Mcu_ReadResetReason)
000a02f0  local     .CSM_CODE:Csm_Mcu_SetupFlash (.CSM_CODE:Csm_Mcu_SetupFlash)
000a0380  local     .CSM_CODE:Csm_Mcu_SetupPLL (.CSM_CODE:Csm_Mcu_SetupPLL)
000a0c70  local     .CSM_CODE:Csm_Mcu_StartCosmoSharedMemory (.CSM_CODE:Csm_Mcu_StartCosmoSharedMemory)
000a0580  local     .CSM_CODE:Csm_Mcu_SystemInitFinalStep (.CSM_CODE:Csm_Mcu_SystemInitFinalStep)
000a05b0  local     .CSM_CODE:Csm_Mcu_SystemInitFinalStep2 (.CSM_CODE:Csm_Mcu_SystemInitFinalStep2)
000a08c0  local     .CSM_CODE:Csm_Mcu_TestRamSection_Boot (.CSM_CODE:Csm_Mcu_TestRamSection_Boot)
000a04b0  local     .CSM_CODE:Csm_Mcu_TrimLPO (.CSM_CODE:Csm_Mcu_TrimLPO)
000a0560  local     .CSM_CODE:Csm_Mcu_WaitClocksLocked (.CSM_CODE:Csm_Mcu_WaitClocksLocked)
000a0bb0  local     .CSM_CODE:Csm_Mcu_WriteIOMultiplexerConfig (.CSM_CODE:Csm_Mcu_WriteIOMultiplexerConfig)
00000000  local     .text (.text)
000a0540  local     Csm_Mcu_Above20Mhz (.CSM_CODE:Csm_Mcu_Above20Mhz)
000a0520  local     Csm_Mcu_Below20Mhz (.CSM_CODE:Csm_Mcu_Below20Mhz)
000a0b60  local     Csm_Mcu_EnableIOMMerrorSignaling (.CSM_CODE:Csm_Mcu_EnableIOMMerrorSignaling)
000a0c90  global    Csm_Mcu_Init (.CSM_CODE:Csm_Mcu_Init)
000a03e0  global    Csm_Mcu_PeriphInit1 (.CSM_CODE:Csm_Mcu_PeriphInit1)
000a0420  global    Csm_Mcu_PeriphInit2 (.CSM_CODE:Csm_Mcu_PeriphInit2)
000a0470  global    Csm_Mcu_PeriphInit3 (.CSM_CODE:Csm_Mcu_PeriphInit3)
000a0c30  local     Csm_Mcu_ReadResetReason (.CSM_CODE:Csm_Mcu_ReadResetReason)
000a02f0  global    Csm_Mcu_SetupFlash (.CSM_CODE:Csm_Mcu_SetupFlash)
000a0380  global    Csm_Mcu_SetupPLL (.CSM_CODE:Csm_Mcu_SetupPLL)
000a0c70  local     Csm_Mcu_StartCosmoSharedMemory (.CSM_CODE:Csm_Mcu_StartCosmoSharedMemory)
000a0580  global    Csm_Mcu_SystemInitFinalStep (.CSM_CODE:Csm_Mcu_SystemInitFinalStep)
000a05b0  global    Csm_Mcu_SystemInitFinalStep2 (.CSM_CODE:Csm_Mcu_SystemInitFinalStep2)
000a08c0  global    Csm_Mcu_TestRamSection_Boot (.CSM_CODE:Csm_Mcu_TestRamSection_Boot)
000a04b0  global    Csm_Mcu_TrimLPO (.CSM_CODE:Csm_Mcu_TrimLPO)
000a0560  global    Csm_Mcu_WaitClocksLocked (.CSM_CODE:Csm_Mcu_WaitClocksLocked)
000a0bb0  local     Csm_Mcu_WriteIOMultiplexerConfig (.CSM_CODE:Csm_Mcu_WriteIOMultiplexerConfig)


================================================================================

ttc500.lib : drv_Csm_Pwm.obj

Run/Load            
Value     Binding   Name (Section)
--------  --------  ---------------
000aecec  local     $C$L1 (.CSM_CODE:Csm_Pwm_CheckInitChannelDisableAndDC)
000aeda8  local     $C$L10 (.CSM_CODE:Csm_Pwm_SetPeriodAndDuty_Period)
000aee50  local     $C$L11 (.CSM_CODE:Csm_Pwm_SetPeriodAndDuty_Intern)
000aee58  local     $C$L12 (.CSM_CODE:Csm_Pwm_SetPeriodAndDuty_Intern)
000aeeac  local     $C$L13 (.CSM_CODE:Csm_Pwm_SetPeriodAndDuty_Intern)
000aeeb8  local     $C$L14 (.CSM_CODE:Csm_Pwm_SetPeriodAndDuty_Intern)
000aef04  local     $C$L15 (.CSM_CODE:Csm_Pwm_SetPeriodAndDuty_Intern)
000aef1c  local     $C$L16 (.CSM_CODE:Csm_Pwm_SetPeriodAndDuty_Intern)
000aef20  local     $C$L17 (.CSM_CODE:Csm_Pwm_SetPeriodAndDuty_Intern)
000aef28  local     $C$L18 (.CSM_CODE:Csm_Pwm_SetPeriodAndDuty_Intern)
000aefac  local     $C$L19 (.CSM_CODE:Csm_Pwm_SetPeriodAndDuty)
000aecf4  local     $C$L2 (.CSM_CODE:Csm_Pwm_CheckInitChannelDisableAndDC)
000a8338  local     $C$L20 (.CSM_CODE:Csm_Pwm_Init_PWM)
000a8340  local     $C$L21 (.CSM_CODE:Csm_Pwm_Init_PWM)
000a83b8  local     $C$L22 (.CSM_CODE:Csm_Pwm_Init_PWM)
000a83d0  local     $C$L23 (.CSM_CODE:Csm_Pwm_Init_PWM)
000a83e0  local     $C$L24 (.CSM_CODE:Csm_Pwm_Init_PWM)
000a8544  local     $C$L25 (.CSM_CODE:Csm_Pwm_Init_PWM)
000a854c  local     $C$L26 (.CSM_CODE:Csm_Pwm_Init_PWM)
000a859c  local     $C$L27 (.CSM_CODE:Csm_Pwm_Init_PWM)
000a85dc  local     $C$L28 (.CSM_CODE:Csm_Pwm_Init)
000a85f4  local     $C$L29 (.CSM_CODE:Csm_Pwm_Init)
000aea80  local     $C$L3 (.CSM_CODE:Csm_Pwm_GetDutyCycleOrPeriod)
000a8600  local     $C$L30 (.CSM_CODE:Csm_Pwm_Init)
00000084  local     $C$L31 (.CSM_CODE:Csm_Pwm_GetOutputState)
000000bc  local     $C$L32 (.CSM_CODE:Csm_Pwm_GetDutyCycleAndPeriod)
000000c0  local     $C$L33 (.CSM_CODE:Csm_Pwm_GetDutyCycleAndPeriod)
000af078  local     $C$L34 (.CSM_CODE:Csm_Pwm_EnableChannel)
000af080  local     $C$L35 (.CSM_CODE:Csm_Pwm_EnableChannel)
000af0b4  local     $C$L36 (.CSM_CODE:Csm_Pwm_EnableChannel)
000af0b8  local     $C$L37 (.CSM_CODE:Csm_Pwm_EnableChannel)
000a8770  local     $C$L38 (.CSM_CODE:Csm_Pwm_DisableChannel)
000a8774  local     $C$L39 (.CSM_CODE:Csm_Pwm_DisableChannel)
000aea90  local     $C$L4 (.CSM_CODE:Csm_Pwm_GetDutyCycleOrPeriod)
000aead0  local     $C$L5 (.CSM_CODE:Csm_Pwm_GetDutyCycleOrPeriod)
000aeae0  local     $C$L6 (.CSM_CODE:Csm_Pwm_GetDutyCycleOrPeriod)
000aeae4  local     $C$L7 (.CSM_CODE:Csm_Pwm_GetDutyCycleOrPeriod)
000aeda0  local     $C$L8 (.CSM_CODE:Csm_Pwm_SetPeriodAndDuty_Period)
000aeda4  local     $C$L9 (.CSM_CODE:Csm_Pwm_SetPeriodAndDuty_Period)
000a8630  local     $a (.CSM_CODE:Csm_Pwm_CheckInitAndChannel)
000aeca0  local     $a (.CSM_CODE:Csm_Pwm_CheckInitChannelDisableAndDC)
000ae9d0  local     $a (.CSM_CODE:Csm_Pwm_GetDutyCycle_Intern)
000ae9f0  local     $a (.CSM_CODE:Csm_Pwm_GetPeriod_Intern)
000aea10  local     $a (.CSM_CODE:Csm_Pwm_GetDutyCycleOrPeriod)
000aed00  local     $a (.CSM_CODE:Csm_Pwm_SetPeriodAndDuty_Period)
000aedb0  local     $a (.CSM_CODE:Csm_Pwm_SetPeriodAndDuty_Intern)
000aef60  local     $a (.CSM_CODE:Csm_Pwm_SetPeriodAndDuty)
000aef30  local     $a (.CSM_CODE:Csm_Pwm_SetDutyCycle)
00000000  local     $a (.CSM_CODE:Csm_Pwm_ResetChannel)
000a8240  local     $a (.CSM_CODE:Csm_Pwm_Init_PWM)
000a85b0  local     $a (.CSM_CODE:Csm_Pwm_Init)
00000000  local     $a (.CSM_CODE:Csm_Pwm_GetVersionInfo)
00000000  local     $a (.CSM_CODE:Csm_Pwm_GetPeriod)
00000000  local     $a (.CSM_CODE:Csm_Pwm_GetOutputState)
00000000  local     $a (.CSM_CODE:Csm_Pwm_GetDutyCycleAndPeriod)
000aeaf0  local     $a (.CSM_CODE:Csm_Pwm_GetDutyCycle)
000aefb0  local     $a (.CSM_CODE:Csm_Pwm_EnableChannel)
000a8690  local     $a (.CSM_CODE:Csm_Pwm_DisableChannel)
000a8630  local     .CSM_CODE:Csm_Pwm_CheckInitAndChannel (.CSM_CODE:Csm_Pwm_CheckInitAndChannel)
000aeca0  local     .CSM_CODE:Csm_Pwm_CheckInitChannelDisableAndDC (.CSM_CODE:Csm_Pwm_CheckInitChannelDisableAndDC)
000a8690  local     .CSM_CODE:Csm_Pwm_DisableChannel (.CSM_CODE:Csm_Pwm_DisableChannel)
000aefb0  local     .CSM_CODE:Csm_Pwm_EnableChannel (.CSM_CODE:Csm_Pwm_EnableChannel)
000aeaf0  local     .CSM_CODE:Csm_Pwm_GetDutyCycle (.CSM_CODE:Csm_Pwm_GetDutyCycle)
00000000  local     .CSM_CODE:Csm_Pwm_GetDutyCycleAndPeriod (.CSM_CODE:Csm_Pwm_GetDutyCycleAndPeriod)
000aea10  local     .CSM_CODE:Csm_Pwm_GetDutyCycleOrPeriod (.CSM_CODE:Csm_Pwm_GetDutyCycleOrPeriod)
000ae9d0  local     .CSM_CODE:Csm_Pwm_GetDutyCycle_Intern (.CSM_CODE:Csm_Pwm_GetDutyCycle_Intern)
00000000  local     .CSM_CODE:Csm_Pwm_GetOutputState (.CSM_CODE:Csm_Pwm_GetOutputState)
00000000  local     .CSM_CODE:Csm_Pwm_GetPeriod (.CSM_CODE:Csm_Pwm_GetPeriod)
000ae9f0  local     .CSM_CODE:Csm_Pwm_GetPeriod_Intern (.CSM_CODE:Csm_Pwm_GetPeriod_Intern)
00000000  local     .CSM_CODE:Csm_Pwm_GetVersionInfo (.CSM_CODE:Csm_Pwm_GetVersionInfo)
000a85b0  local     .CSM_CODE:Csm_Pwm_Init (.CSM_CODE:Csm_Pwm_Init)
000a8240  local     .CSM_CODE:Csm_Pwm_Init_PWM (.CSM_CODE:Csm_Pwm_Init_PWM)
00000000  local     .CSM_CODE:Csm_Pwm_ResetChannel (.CSM_CODE:Csm_Pwm_ResetChannel)
000aef30  local     .CSM_CODE:Csm_Pwm_SetDutyCycle (.CSM_CODE:Csm_Pwm_SetDutyCycle)
000aef60  local     .CSM_CODE:Csm_Pwm_SetPeriodAndDuty (.CSM_CODE:Csm_Pwm_SetPeriodAndDuty)
000aedb0  local     .CSM_CODE:Csm_Pwm_SetPeriodAndDuty_Intern (.CSM_CODE:Csm_Pwm_SetPeriodAndDuty_Intern)
000aed00  local     .CSM_CODE:Csm_Pwm_SetPeriodAndDuty_Period (.CSM_CODE:Csm_Pwm_SetPeriodAndDuty_Period)
080380ac  local     .CSM_VAR_ZERO_INIT_UNSPECIFIED (.CSM_VAR_ZERO_INIT_UNSPECIFIED)
00000000  local     .text (.text)
000a8630  local     Csm_Pwm_CheckInitAndChannel (.CSM_CODE:Csm_Pwm_CheckInitAndChannel)
000aeca0  local     Csm_Pwm_CheckInitChannelDisableAndDC (.CSM_CODE:Csm_Pwm_CheckInitChannelDisableAndDC)
000a8690  global    Csm_Pwm_DisableChannel (.CSM_CODE:Csm_Pwm_DisableChannel)
000aefb0  global    Csm_Pwm_EnableChannel (.CSM_CODE:Csm_Pwm_EnableChannel)
000aeaf0  global    Csm_Pwm_GetDutyCycle (.CSM_CODE:Csm_Pwm_GetDutyCycle)
00000000  global    Csm_Pwm_GetDutyCycleAndPeriod (.CSM_CODE:Csm_Pwm_GetDutyCycleAndPeriod)
000aea10  local     Csm_Pwm_GetDutyCycleOrPeriod (.CSM_CODE:Csm_Pwm_GetDutyCycleOrPeriod)
000ae9d0  local     Csm_Pwm_GetDutyCycle_Intern (.CSM_CODE:Csm_Pwm_GetDutyCycle_Intern)
00000000  global    Csm_Pwm_GetOutputState (.CSM_CODE:Csm_Pwm_GetOutputState)
00000000  global    Csm_Pwm_GetPeriod (.CSM_CODE:Csm_Pwm_GetPeriod)
000ae9f0  local     Csm_Pwm_GetPeriod_Intern (.CSM_CODE:Csm_Pwm_GetPeriod_Intern)
00000000  global    Csm_Pwm_GetVersionInfo (.CSM_CODE:Csm_Pwm_GetVersionInfo)
000a85b0  global    Csm_Pwm_Init (.CSM_CODE:Csm_Pwm_Init)
000a8240  local     Csm_Pwm_Init_PWM (.CSM_CODE:Csm_Pwm_Init_PWM)
00000000  global    Csm_Pwm_ResetChannel (.CSM_CODE:Csm_Pwm_ResetChannel)
000aef30  global    Csm_Pwm_SetDutyCycle (.CSM_CODE:Csm_Pwm_SetDutyCycle)
000aef60  global    Csm_Pwm_SetPeriodAndDuty (.CSM_CODE:Csm_Pwm_SetPeriodAndDuty)
000aedb0  local     Csm_Pwm_SetPeriodAndDuty_Intern (.CSM_CODE:Csm_Pwm_SetPeriodAndDuty_Intern)
000aed00  local     Csm_Pwm_SetPeriodAndDuty_Period (.CSM_CODE:Csm_Pwm_SetPeriodAndDuty_Period)
080380ac  local     Csm_Pwm_config (.CSM_VAR_ZERO_INIT_UNSPECIFIED)


================================================================================

ttc500.lib : drv_het_ICU_QE_2pins_highres_prg.obj

Run/Load            
Value     Binding   Name (Section)
--------  --------  ---------------
000afa30  local     $d (.CSM_CONST)
000afa30  local     .CSM_CONST (.CSM_CONST)
00000000  local     .text (.text)
000afa30  global    ICU_QE_2pins_highres_prg (.CSM_CONST)


================================================================================

ttc500.lib : drv_het_ICU_dutycycle_prg.obj

Run/Load            
Value     Binding   Name (Section)
--------  --------  ---------------
000afd78  local     $d (.CSM_CONST)
000afd78  local     .CSM_CONST (.CSM_CONST)
00000000  local     .text (.text)
000afd78  global    ICU_dutycycle_prg (.CSM_CONST)


================================================================================

ttc500.lib : drv_het_ICU_QE_3pins_special_highres_prg.obj

Run/Load            
Value     Binding   Name (Section)
--------  --------  ---------------
000af6e0  local     $d (.CSM_CONST)
000af6e0  local     .CSM_CONST (.CSM_CONST)
00000000  local     .text (.text)
000af6e0  global    ICU_QE_3pins_special_highres_prg (.CSM_CONST)


================================================================================

ttc500.lib : drv_het_ICU_simple_prg.obj

Run/Load            
Value     Binding   Name (Section)
--------  --------  ---------------
000afe28  local     $d (.CSM_CONST)
000afe28  local     .CSM_CONST (.CSM_CONST)
00000000  local     .text (.text)
000afe28  global    ICU_simple_prg (.CSM_CONST)


================================================================================

ttc500.lib : drv_het_PWM_output_prg.obj

Run/Load            
Value     Binding   Name (Section)
--------  --------  ---------------
000afce8  local     $d (.CSM_CONST)
000afce8  local     .CSM_CONST (.CSM_CONST)
00000000  local     .text (.text)
000afce8  global    PWM_output_prg (.CSM_CONST)


================================================================================

ttc500.lib : drv_het_ICU_QE_3pins_highres_prg.obj

Run/Load            
Value     Binding   Name (Section)
--------  --------  ---------------
000af950  local     $d (.CSM_CONST)
000af950  local     .CSM_CONST (.CSM_CONST)
00000000  local     .text (.text)
000af950  global    ICU_QE_3pins_highres_prg (.CSM_CONST)


================================================================================

ttc500.lib : drv_het_ICU_timestamp_edgecounter_prg.obj

Run/Load            
Value     Binding   Name (Section)
--------  --------  ---------------
000afdb8  local     $d (.CSM_CONST)
000afdb8  local     .CSM_CONST (.CSM_CONST)
00000000  local     .text (.text)
000afdb8  global    ICU_timestamp_edgecounter_prg (.CSM_CONST)


================================================================================

ttc500.lib : drv_IO_INT_EMAC.obj

Run/Load            
Value     Binding   Name (Section)
--------  --------  ---------------
000001a0  local     $C$L1 (.IO_DRIVER_CODE:IO_INT_EMAC_RxMultiCastJoin)
00000030  local     $C$L10 (.IO_DRIVER_CODE:IO_INT_EMAC_DeInit)
00000060  local     $C$L11 (.IO_DRIVER_CODE:IO_INT_EMAC_DeInit)
0000007c  local     $C$L12 (.IO_DRIVER_CODE:IO_INT_EMAC_DeInit)
00000088  local     $C$L13 (.IO_DRIVER_CODE:IO_INT_EMAC_DeInit)
00000090  local     $C$L14 (.IO_DRIVER_CODE:IO_INT_EMAC_DeInit)
0000009c  local     $C$L15 (.IO_DRIVER_CODE:IO_INT_EMAC_DeInit)
00000050  local     $C$L2 (.IO_DRIVER_CODE:IO_INT_EMAC_MACSrcAddrSet)
00000064  local     $C$L3 (.IO_DRIVER_CODE:IO_INT_EMAC_MACAddrSet)
00000030  local     $C$L4 (.IO_DRIVER_CODE:IO_INT_EMAC_Init)
00000060  local     $C$L5 (.IO_DRIVER_CODE:IO_INT_EMAC_Init)
00000140  local     $C$L6 (.IO_DRIVER_CODE:IO_INT_EMAC_Init)
00000154  local     $C$L7 (.IO_DRIVER_CODE:IO_INT_EMAC_Init)
00000160  local     $C$L8 (.IO_DRIVER_CODE:IO_INT_EMAC_Init)
00000164  local     $C$L9 (.IO_DRIVER_CODE:IO_INT_EMAC_Init)
000c2310  local     $a (.IO_DRIVER_CODE:IO_INT_EMAC_TxHdrDescPtrWrite)
00000000  local     $a (.IO_DRIVER_CODE:IO_INT_EMAC_TxEnable)
000c2240  local     $a (.IO_DRIVER_CODE:IO_INT_EMAC_TxCPWrite)
00000000  local     $a (.IO_DRIVER_CODE:IO_INT_EMAC_RxUniCastEnable)
00000000  local     $a (.IO_DRIVER_CODE:IO_INT_EMAC_RxMultiCastJoin)
00000000  local     $a (.IO_DRIVER_CODE:IO_INT_EMAC_RxMultiCastEnable)
000c1990  local     $a (.IO_DRIVER_CODE:IO_INT_EMAC_RxHdrDescPtrWrite)
00000000  local     $a (.IO_DRIVER_CODE:IO_INT_EMAC_RxEnable)
000c1980  local     $a (.IO_DRIVER_CODE:IO_INT_EMAC_RxCPWrite)
00000000  local     $a (.IO_DRIVER_CODE:IO_INT_EMAC_RxBroadCastEnable)
000c17d0  local     $a (.IO_DRIVER_CODE:IO_INT_EMAC_RMIISpeedSet)
00000000  local     $a (.IO_DRIVER_CODE:IO_INT_EMAC_MIIEnable)
00000000  local     $a (.IO_DRIVER_CODE:IO_INT_EMAC_MACSrcAddrSet)
00000000  local     $a (.IO_DRIVER_CODE:IO_INT_EMAC_MACAddrSet)
00000000  local     $a (.IO_DRIVER_CODE:IO_INT_EMAC_Init)
000c1810  local     $a (.IO_DRIVER_CODE:IO_INT_EMAC_DuplexSet)
00000000  local     $a (.IO_DRIVER_CODE:IO_INT_EMAC_DeInit)
000c19a0  local     $a (.IO_DRIVER_CODE:IO_INT_EMAC_CoreIntAck)
000c19a0  local     .IO_DRIVER_CODE:IO_INT_EMAC_CoreIntAck (.IO_DRIVER_CODE:IO_INT_EMAC_CoreIntAck)
00000000  local     .IO_DRIVER_CODE:IO_INT_EMAC_DeInit (.IO_DRIVER_CODE:IO_INT_EMAC_DeInit)
000c1810  local     .IO_DRIVER_CODE:IO_INT_EMAC_DuplexSet (.IO_DRIVER_CODE:IO_INT_EMAC_DuplexSet)
00000000  local     .IO_DRIVER_CODE:IO_INT_EMAC_Init (.IO_DRIVER_CODE:IO_INT_EMAC_Init)
00000000  local     .IO_DRIVER_CODE:IO_INT_EMAC_MACAddrSet (.IO_DRIVER_CODE:IO_INT_EMAC_MACAddrSet)
00000000  local     .IO_DRIVER_CODE:IO_INT_EMAC_MACSrcAddrSet (.IO_DRIVER_CODE:IO_INT_EMAC_MACSrcAddrSet)
00000000  local     .IO_DRIVER_CODE:IO_INT_EMAC_MIIEnable (.IO_DRIVER_CODE:IO_INT_EMAC_MIIEnable)
000c17d0  local     .IO_DRIVER_CODE:IO_INT_EMAC_RMIISpeedSet (.IO_DRIVER_CODE:IO_INT_EMAC_RMIISpeedSet)
00000000  local     .IO_DRIVER_CODE:IO_INT_EMAC_RxBroadCastEnable (.IO_DRIVER_CODE:IO_INT_EMAC_RxBroadCastEnable)
000c1980  local     .IO_DRIVER_CODE:IO_INT_EMAC_RxCPWrite (.IO_DRIVER_CODE:IO_INT_EMAC_RxCPWrite)
00000000  local     .IO_DRIVER_CODE:IO_INT_EMAC_RxEnable (.IO_DRIVER_CODE:IO_INT_EMAC_RxEnable)
000c1990  local     .IO_DRIVER_CODE:IO_INT_EMAC_RxHdrDescPtrWrite (.IO_DRIVER_CODE:IO_INT_EMAC_RxHdrDescPtrWrite)
00000000  local     .IO_DRIVER_CODE:IO_INT_EMAC_RxMultiCastEnable (.IO_DRIVER_CODE:IO_INT_EMAC_RxMultiCastEnable)
00000000  local     .IO_DRIVER_CODE:IO_INT_EMAC_RxMultiCastJoin (.IO_DRIVER_CODE:IO_INT_EMAC_RxMultiCastJoin)
00000000  local     .IO_DRIVER_CODE:IO_INT_EMAC_RxUniCastEnable (.IO_DRIVER_CODE:IO_INT_EMAC_RxUniCastEnable)
000c2240  local     .IO_DRIVER_CODE:IO_INT_EMAC_TxCPWrite (.IO_DRIVER_CODE:IO_INT_EMAC_TxCPWrite)
00000000  local     .IO_DRIVER_CODE:IO_INT_EMAC_TxEnable (.IO_DRIVER_CODE:IO_INT_EMAC_TxEnable)
000c2310  local     .IO_DRIVER_CODE:IO_INT_EMAC_TxHdrDescPtrWrite (.IO_DRIVER_CODE:IO_INT_EMAC_TxHdrDescPtrWrite)
00000000  local     .text (.text)
000c19a0  global    IO_INT_EMAC_CoreIntAck (.IO_DRIVER_CODE:IO_INT_EMAC_CoreIntAck)
00000000  global    IO_INT_EMAC_DeInit (.IO_DRIVER_CODE:IO_INT_EMAC_DeInit)
000c1810  global    IO_INT_EMAC_DuplexSet (.IO_DRIVER_CODE:IO_INT_EMAC_DuplexSet)
00000000  global    IO_INT_EMAC_Init (.IO_DRIVER_CODE:IO_INT_EMAC_Init)
00000000  global    IO_INT_EMAC_MACAddrSet (.IO_DRIVER_CODE:IO_INT_EMAC_MACAddrSet)
00000000  global    IO_INT_EMAC_MACSrcAddrSet (.IO_DRIVER_CODE:IO_INT_EMAC_MACSrcAddrSet)
00000000  global    IO_INT_EMAC_MIIEnable (.IO_DRIVER_CODE:IO_INT_EMAC_MIIEnable)
000c17d0  global    IO_INT_EMAC_RMIISpeedSet (.IO_DRIVER_CODE:IO_INT_EMAC_RMIISpeedSet)
00000000  global    IO_INT_EMAC_RxBroadCastEnable (.IO_DRIVER_CODE:IO_INT_EMAC_RxBroadCastEnable)
000c1980  global    IO_INT_EMAC_RxCPWrite (.IO_DRIVER_CODE:IO_INT_EMAC_RxCPWrite)
00000000  global    IO_INT_EMAC_RxEnable (.IO_DRIVER_CODE:IO_INT_EMAC_RxEnable)
000c1990  global    IO_INT_EMAC_RxHdrDescPtrWrite (.IO_DRIVER_CODE:IO_INT_EMAC_RxHdrDescPtrWrite)
00000000  global    IO_INT_EMAC_RxMultiCastEnable (.IO_DRIVER_CODE:IO_INT_EMAC_RxMultiCastEnable)
00000000  global    IO_INT_EMAC_RxMultiCastJoin (.IO_DRIVER_CODE:IO_INT_EMAC_RxMultiCastJoin)
00000000  global    IO_INT_EMAC_RxUniCastEnable (.IO_DRIVER_CODE:IO_INT_EMAC_RxUniCastEnable)
000c2240  global    IO_INT_EMAC_TxCPWrite (.IO_DRIVER_CODE:IO_INT_EMAC_TxCPWrite)
00000000  global    IO_INT_EMAC_TxEnable (.IO_DRIVER_CODE:IO_INT_EMAC_TxEnable)
000c2310  global    IO_INT_EMAC_TxHdrDescPtrWrite (.IO_DRIVER_CODE:IO_INT_EMAC_TxHdrDescPtrWrite)


================================================================================

bsp.lib : bsp_sys_startup.obj

Run/Load            
Value     Binding   Name (Section)
--------  --------  ---------------
000c8620  local     $C$L1 (.IO_DRIVER_CODE:vim_parity_error)
000b0320  local     $C$L10 (.IO_DRIVER_CODE:stack_init)
000b0360  local     $C$L11 (.IO_DRIVER_CODE:stack_init)
000b0374  local     $C$L12 (.IO_DRIVER_CODE:stack_init)
000b0380  local     $C$L13 (.IO_DRIVER_CODE:stack_init)
000b03c0  local     $C$L14 (.IO_DRIVER_CODE:stack_init)
000b03d4  local     $C$L15 (.IO_DRIVER_CODE:stack_init)
000b03e0  local     $C$L16 (.IO_DRIVER_CODE:stack_init)
000b0420  local     $C$L17 (.IO_DRIVER_CODE:stack_init)
000b0434  local     $C$L18 (.IO_DRIVER_CODE:stack_init)
000b0440  local     $C$L19 (.IO_DRIVER_CODE:stack_init)
000c8890  local     $C$L2 (.IO_DRIVER_CODE:custom_undef)
000b0480  local     $C$L20 (.IO_DRIVER_CODE:stack_init)
000b0494  local     $C$L21 (.IO_DRIVER_CODE:stack_init)
000b04a0  local     $C$L22 (.IO_DRIVER_CODE:stack_init)
000b04e0  local     $C$L23 (.IO_DRIVER_CODE:stack_init)
000b04f4  local     $C$L24 (.IO_DRIVER_CODE:stack_init)
000b0570  local     $C$L25 (.IO_DRIVER_CODE:heap_init)
000b0584  local     $C$L26 (.IO_DRIVER_CODE:heap_init)
000b0640  local     $C$L27 (.IO_DRIVER_CODE:mem_init)
000b06c0  local     $C$L28 (.IO_DRIVER_CODE:mem_init)
000b06e8  local     $C$L29 (.IO_DRIVER_CODE:mem_init)
000c81cc  local     $C$L3 (.IO_DRIVER_CODE:custom_pabort)
000bb020  local     $C$L30 (.IO_DRIVER_CODE:_c_int00)
000bb030  local     $C$L31 (.IO_DRIVER_CODE:_c_int00)
000afe40  local     $C$L32 (.IO_DRIVER_CODE:RAM_Fail)
000c81f0  local     $C$L4 (.IO_DRIVER_CODE:custom_pabort)
000c83bc  local     $C$L5 (.IO_DRIVER_CODE:custom_dabort)
000c83e0  local     $C$L6 (.IO_DRIVER_CODE:custom_dabort)
000bb100  local     $C$L7 (.IO_DRIVER_CODE:crossover_interrupt)
000b0300  local     $C$L8 (.IO_DRIVER_CODE:stack_init)
000b0314  local     $C$L9 (.IO_DRIVER_CODE:stack_init)
000cb770  local     $P$T0$1 (.const:$P$T0$1)
000c85e0  local     $a (.IO_DRIVER_CODE:vim_parity_error)
000b05a0  local     $a (.IO_DRIVER_CODE:get_shared_memory)
000b34b0  local     $a (.IO_DRIVER_CODE:get_mcu_configuration)
000c8860  local     $a (.IO_DRIVER_CODE:custom_undef)
000c8170  local     $a (.IO_DRIVER_CODE:custom_pabort)
000c8360  local     $a (.IO_DRIVER_CODE:custom_dabort)
000bb100  local     $a (.IO_DRIVER_CODE:crossover_interrupt)
000b02b0  local     $a (.IO_DRIVER_CODE:stack_init)
000b0510  local     $a (.IO_DRIVER_CODE:heap_init)
000b05b0  local     $a (.IO_DRIVER_CODE:mem_init)
000bafc0  local     $a (.IO_DRIVER_CODE:_c_int00)
000afe40  local     $a (.IO_DRIVER_CODE:RAM_Fail)
000cb770  local     $d (.const:$P$T0$1)
000afe40  local     .IO_DRIVER_CODE:RAM_Fail (.IO_DRIVER_CODE:RAM_Fail)
000bafc0  local     .IO_DRIVER_CODE:_c_int00 (.IO_DRIVER_CODE:_c_int00)
000bb100  local     .IO_DRIVER_CODE:crossover_interrupt (.IO_DRIVER_CODE:crossover_interrupt)
000c8360  local     .IO_DRIVER_CODE:custom_dabort (.IO_DRIVER_CODE:custom_dabort)
000c8170  local     .IO_DRIVER_CODE:custom_pabort (.IO_DRIVER_CODE:custom_pabort)
000c8860  local     .IO_DRIVER_CODE:custom_undef (.IO_DRIVER_CODE:custom_undef)
000b34b0  local     .IO_DRIVER_CODE:get_mcu_configuration (.IO_DRIVER_CODE:get_mcu_configuration)
000b05a0  local     .IO_DRIVER_CODE:get_shared_memory (.IO_DRIVER_CODE:get_shared_memory)
000b0510  local     .IO_DRIVER_CODE:heap_init (.IO_DRIVER_CODE:heap_init)
000b05b0  local     .IO_DRIVER_CODE:mem_init (.IO_DRIVER_CODE:mem_init)
000b02b0  local     .IO_DRIVER_CODE:stack_init (.IO_DRIVER_CODE:stack_init)
000c85e0  local     .IO_DRIVER_CODE:vim_parity_error (.IO_DRIVER_CODE:vim_parity_error)
000cb770  local     .const:$P$T0$1 (.const:$P$T0$1)
00000000  local     .text (.text)
000afe40  global    RAM_Fail (.IO_DRIVER_CODE:RAM_Fail)
000bafc0  global    _c_int00 (.IO_DRIVER_CODE:_c_int00)
000bb100  global    crossover_interrupt (.IO_DRIVER_CODE:crossover_interrupt)
000c8360  global    custom_dabort (.IO_DRIVER_CODE:custom_dabort)
000c8170  global    custom_pabort (.IO_DRIVER_CODE:custom_pabort)
000c8860  global    custom_undef (.IO_DRIVER_CODE:custom_undef)
000b34b0  global    get_mcu_configuration (.IO_DRIVER_CODE:get_mcu_configuration)
000b05a0  global    get_shared_memory (.IO_DRIVER_CODE:get_shared_memory)
000b0510  local     heap_init (.IO_DRIVER_CODE:heap_init)
000b05b0  local     mem_init (.IO_DRIVER_CODE:mem_init)
000b02b0  local     stack_init (.IO_DRIVER_CODE:stack_init)
000c85e0  global    vim_parity_error (.IO_DRIVER_CODE:vim_parity_error)


================================================================================

rtsv7R4_T_be_v3D16_eabi.lib : auto_init.obj

Run/Load            
Value     Binding   Name (Section)
--------  --------  ---------------
000cb39c  local     $d (.text)
000cb320  local     $t (.text)
000cb320  local     .text (.text)
000cb321  global    __TI_auto_init (.text)
000cb32f  local     _b1_ (.text)
000cb335  local     _b1_loop_ (.text)
000cb347  local     _b1_loop_end_ (.text)
000cb37d  local     _bcopy (.text)
000cb347  local     _c1_ (.text)
000cb389  local     _cont (.text)
000cb34b  local     _loop_ (.text)
000cb355  local     _loop_end_ (.text)
000cb379  local     _wcont (.text)
000cb36d  local     _wcopy (.text)
000cb39c  local     c_binit (.text)
000cb3ac  local     c_cinit_end (.text)
000cb3a8  local     c_cinit_start (.text)
000cb3a0  local     c_pinit (.text)
000cb3a4  local     c_pinit_end (.text)
000cb3b0  local     handler_start (.text)
000cb357  local     perform_cinit (.text)
000cb393  local     rec_chk (.text)
000cb35b  local     record (.text)


================================================================================

rtsv7R4_T_be_v3D16_eabi.lib : copy_decompress_none.obj

Run/Load            
Value     Binding   Name (Section)
--------  --------  ---------------
000cb72a  local     $t (.text:decompress:none)
00000000  local     .text (.text)
000cb72a  local     .text:decompress:none (.text:decompress:none)
000cb72b  global    __TI_decompress_none (.text:decompress:none)


================================================================================

rtsv7R4_T_be_v3D16_eabi.lib : copy_decompress_rle.obj

Run/Load            
Value     Binding   Name (Section)
--------  --------  ---------------
000cb6c1  local     $C$L1 (.text)
000cb6cd  local     $C$L2 (.text)
000cb6db  local     $C$L3 (.text)
000cb6df  local     $C$L4 (.text)
000cb6e5  local     $C$L5 (.text)
000cb6e9  local     $C$L6 (.text)
000cb6ed  local     $C$L7 (.text)
000cb6f7  local     $C$L8 (.text)
000cb6fb  local     $C$L9 (.text)
000cb6b8  local     $t (.text)
000cb738  local     $t (.text:decompress:rle24)
00000000  local     $t (.text:decompress:rle)
000cb6b8  local     .text (.text)
00000000  local     .text:decompress:rle (.text:decompress:rle)
000cb738  local     .text:decompress:rle24 (.text:decompress:rle24)
00000001  global    __TI_decompress_rle (.text:decompress:rle)
000cb739  global    __TI_decompress_rle24 (.text:decompress:rle24)
000cb6b9  local     __TI_decompress_rle_core (.text)


================================================================================

rtsv7R4_T_be_v3D16_eabi.lib : copy_zero_init.obj

Run/Load            
Value     Binding   Name (Section)
--------  --------  ---------------
000cb721  local     $C$L1 (.text:decompress:ZI)
000cb729  local     $C$L2 (.text:decompress:ZI)
000cb718  local     $t (.text:decompress:ZI)
00000000  local     .text (.text)
000cb718  local     .text:decompress:ZI (.text:decompress:ZI)
000cb719  global    __TI_zero_init (.text:decompress:ZI)


================================================================================

rtsv7R4_T_be_v3D16_eabi.lib : cpy_tbl.obj

Run/Load            
Value     Binding   Name (Section)
--------  --------  ---------------
000cb31c  local     $C$CON1 (.text)
000cb2e5  local     $C$L1 (.text)
000cb307  local     $C$L2 (.text)
000cb30b  local     $C$L3 (.text)
000cb30d  local     $C$L4 (.text)
000cb311  local     $C$L5 (.text)
000cb31c  local     $d (.text)
000cb2d8  local     $t (.text)
000cb2d8  local     .text (.text)
000cb2d9  global    copy_in (.text)


================================================================================

rtsv7R4_T_be_v3D16_eabi.lib : ll_lsl_t2.obj

Run/Load            
Value     Binding   Name (Section)
--------  --------  ---------------
000cb46e  local     $t (.text)
000cb46e  local     .text (.text)
000cb46f  global    __aeabi_llsl (.text)


================================================================================

rtsv7R4_T_be_v3D16_eabi.lib : memcmp.obj

Run/Load            
Value     Binding   Name (Section)
--------  --------  ---------------
000cb45b  local     $C$L1 (.text)
000cb46b  local     $C$L2 (.text)
000cb46d  local     $C$L3 (.text)
000cb44c  local     $t (.text)
000cb44c  local     .text (.text)
000cb44d  global    memcmp (.text)


================================================================================

rtsv7R4_T_be_v3D16_eabi.lib : memcpy_t2.obj

Run/Load            
Value     Binding   Name (Section)
--------  --------  ---------------
000cb23a  local     $t (.text)
000cb23a  local     .text (.text)
000cb23b  global    __aeabi_memcpy (.text)
000cb23b  global    __aeabi_memcpy4 (.text)
000cb23b  global    __aeabi_memcpy8 (.text)
000cb24b  local     _aln (.text)
000cb26d  local     _c12 (.text)
000cb275  local     _c4 (.text)
000cb271  local     _c8 (.text)
000cb2ad  local     _cp4 (.text)
000cb29d  local     _cp4s (.text)
000cb2c7  local     _lp1 (.text)
000cb253  local     _lp16 (.text)
000cb2c3  local     _oddb (.text)
000cb279  local     _oddsz (.text)
000cb2bf  local     _off1 (.text)
000cb299  local     _off2 (.text)
000cb24f  local     _ovr16 (.text)
000cb2d5  local     _ret2_ (.text)
000cb2d3  local     _ret_ (.text)
000cb291  local     _saln (.text)
000cb261  local     _udr16 (.text)
000cb281  local     _unaln (.text)
000cb23b  global    memcpy (.text)


================================================================================

rtsv7R4_T_be_v3D16_eabi.lib : memory.obj

Run/Load            
Value     Binding   Name (Section)
--------  --------  ---------------
00000300  local     $C$CON1 (.text)
000003d4  local     $C$CON10 (.text)
000002a8  local     $C$CON2 (.text)
000002ac  local     $C$CON3 (.text)
000002b0  local     $C$CON4 (.text)
00000304  local     $C$CON5 (.text)
000003c8  local     $C$CON6 (.text)
000003cc  local     $C$CON7 (.text)
000003d0  local     $C$CON9 (.text)
0000002d  local     $C$L1 (.text)
000000ad  local     $C$L10 (.text)
000000af  local     $C$L11 (.text)
000000b7  local     $C$L12 (.text)
000000bb  local     $C$L13 (.text)
000000db  local     $C$L14 (.text)
000000ff  local     $C$L15 (.text)
00000111  local     $C$L16 (.text)
00000123  local     $C$L17 (.text)
0000014f  local     $C$L18 (.text)
00000159  local     $C$L19 (.text)
0000003f  local     $C$L2 (.text)
0000016d  local     $C$L20 (.text)
00000171  local     $C$L21 (.text)
00000185  local     $C$L22 (.text)
0000019f  local     $C$L23 (.text)
000001a1  local     $C$L24 (.text)
000001a5  local     $C$L25 (.text)
000001a9  local     $C$L26 (.text)
000001c7  local     $C$L27 (.text)
000001d7  local     $C$L28 (.text)
000001dd  local     $C$L29 (.text)
00000043  local     $C$L3 (.text)
000001e3  local     $C$L30 (.text)
00000201  local     $C$L31 (.text)
00000249  local     $C$L32 (.text)
00000253  local     $C$L33 (.text)
00000265  local     $C$L34 (.text)
00000279  local     $C$L35 (.text)
0000027d  local     $C$L36 (.text)
0000029b  local     $C$L37 (.text)
0000029f  local     $C$L38 (.text)
000002a1  local     $C$L39 (.text)
00000049  local     $C$L4 (.text)
000002d7  local     $C$L40 (.text)
000002e1  local     $C$L41 (.text)
000002e7  local     $C$L42 (.text)
00000309  local     $C$L43 (.text)
0000030d  local     $C$L44 (.text)
0000032d  local     $C$L45 (.text)
00000335  local     $C$L46 (.text)
00000345  local     $C$L47 (.text)
00000347  local     $C$L48 (.text)
0000034d  local     $C$L49 (.text)
00000063  local     $C$L5 (.text)
00000353  local     $C$L50 (.text)
00000375  local     $C$L51 (.text)
00000381  local     $C$L52 (.text)
0000038f  local     $C$L53 (.text)
00000395  local     $C$L54 (.text)
000003bd  local     $C$L55 (.text)
000003c5  local     $C$L56 (.text)
00000079  local     $C$L6 (.text)
0000007d  local     $C$L7 (.text)
00000083  local     $C$L8 (.text)
0000009b  local     $C$L9 (.text)
00000000  local     $O1$$ (.data)
00000000  local     $d (.data)
000002a8  local     $d (.text)
00000300  local     $d (.text)
000003c8  local     $d (.text)
00000000  local     $t (.text)
00000022  local     $t (.text)
0000004c  local     $t (.text)
00000088  local     $t (.text)
000000ea  local     $t (.text)
000001aa  local     $t (.text)
000002b4  local     $t (.text)
00000308  local     $t (.text)
0000039a  local     $t (.text)
00000000  local     .data (.data)
08003000  local     .sysmem (.sysmem)
00000000  local     .text (.text)
08003000  global    _sys_memory (.sysmem)
0000039b  global    calloc (.text)
000000eb  global    free (.text)
00000089  global    malloc (.text)
000002b5  global    memalign (.text)
00000001  global    minit (.text)
0000004d  local     minsert (.text)
00000023  local     mremove (.text)
000001ab  global    realloc (.text)


================================================================================

rtsv7R4_T_be_v3D16_eabi.lib : no_stm_memcpy_t2.obj

Run/Load            
Value     Binding   Name (Section)
--------  --------  ---------------
000cb180  local     $t (.text)
000cb180  local     .text (.text)
000cb191  local     _aln (.text)
000cb1cb  local     _c12 (.text)
000cb1d7  local     _c4 (.text)
000cb1d1  local     _c8 (.text)
000cb211  local     _cp4 (.text)
000cb201  local     _cp4s (.text)
000cb22b  local     _lp1 (.text)
000cb1a3  local     _lp16 (.text)
000cb227  local     _oddb (.text)
000cb1dd  local     _oddsz (.text)
000cb223  local     _off1 (.text)
000cb1fd  local     _off2 (.text)
000cb195  local     _ovr16 (.text)
000cb239  local     _ret2_ (.text)
000cb237  local     _ret_ (.text)
000cb1f5  local     _saln (.text)
000cb1bf  local     _udr16 (.text)
000cb1e5  local     _unaln (.text)
000cb181  global    no_stm_memcpy (.text)


================================================================================

rtsv7R4_T_be_v3D16_eabi.lib : no_stm_memset_t2.obj

Run/Load            
Value     Binding   Name (Section)
--------  --------  ---------------
000cb3b4  local     $t (.text)
000cb3b4  local     .text (.text)
000cb41f  local     _memset15 (.text)
000cb40b  local     _memset16_loop (.text)
000cb439  local     _memset3 (.text)
000cb42f  local     _memset7 (.text)
000cb3cf  local     _unaligned_loop (.text)
000cb3e5  local     _word_aligned (.text)
000cb3b5  global    no_stm_memset (.text)


================================================================================

rtsv7R4_T_be_v3D16_eabi.lib : _lock.obj

Run/Load            
Value     Binding   Name (Section)
--------  --------  ---------------
00000010  local     $C$CON1 (.text)
00000000  local     $O1$$ (.data)
00000000  local     $d (.data)
00000010  local     $d (.text)
00000000  local     $t (.text)
00000006  local     $t (.text)
0000000e  local     $t (.text)
00000000  local     .data (.data)
00000000  local     .text (.text)
00000000  global    _lock (.data)
0000000f  global    _nop (.text)
00000007  global    _register_lock (.text)
00000001  global    _register_unlock (.text)
00000004  global    _unlock (.data)


================================================================================

<linker>

Run/Load            
Value     Binding   Name (Section)
--------  --------  ---------------
000cb990  local     $d (.cinit..IO_DRIVER_VAR_NORMAL.load)
000cc468  local     $d (.cinit..IO_DRIVER_VAR_COMMON.load)


================================================================================

